 EntitiesMP

 Timestamp is 6807fab4 (Wed Apr 23 01:23:16 2025)

 Preferred load address is 10000000

 Start         Length     Name                   Class
 0001:00000000 0016c26cH .text                   CODE
 0001:0016c270 0001b0aaH .text$x                 CODE
 0002:00000000 000009e0H .idata$5                DATA
 0002:000009e0 0000b834H .rdata                  DATA
 0002:0000c218 00000044H .rdata$r                DATA
 0002:0000c260 000285c8H .xdata$x                DATA
 0002:00034828 0000003cH .idata$2                DATA
 0002:00034864 00000014H .idata$3                DATA
 0002:00034878 000009e0H .idata$4                DATA
 0002:00035258 00006474H .idata$6                DATA
 0002:0003b6d0 00025867H .edata                  DATA
 0003:00000000 00000004H .CRT$XCA                DATA
 0003:00000004 00000b24H .CRT$XCU                DATA
 0003:00000b28 00000004H .CRT$XCZ                DATA
 0003:00000b2c 00000004H .CRT$XIA                DATA
 0003:00000b30 00000004H .CRT$XIZ                DATA
 0003:00000b40 00030940H .data                   DATA
 0003:00031480 0002d534H .bss                    DATA

  Address         Publics by Value              Rva+Base     Lib:Object

 0001:00000000       ??0EReminderInit@@QAE@ABV0@@Z 10001000 f i Common.obj
 0001:00000040       ??4EReminderInit@@QAEAAV0@ABV0@@Z 10001040 f i Common.obj
 0001:00000090       ??1EReminderInit@@UAE@XZ   10001090 f i Common.obj
 0001:00000120       ??_GEReminderInit@@UAEPAXI@Z 10001120 f i Common.obj
 0001:00000150       ??_EEReminderInit@@UAEPAXI@Z 10001150 f i Common.obj
 0001:000001b0       ?ClearToDefault@@YAXAAVEReminderInit@@@Z 100011b0 f i Common.obj
 0001:00000250       ??0CReminder@@QAE@XZ       10001250 f i Common.obj
 0001:00000270       ??0CReminder@@QAE@ABV0@@Z  10001270 f i Common.obj
 0001:00000320       ??4CReminder@@QAEAAV0@AAV0@@Z 10001320 f i Common.obj
 0001:00000410       ??1CReminder@@UAE@XZ       10001410 f i Common.obj
 0001:000004c0       ??_GCReminder@@UAEPAXI@Z   100014c0 f i Common.obj
 0001:000004f0       ??_ECReminder@@UAEPAXI@Z   100014f0 f i Common.obj
 0001:00000550       ??0EChangeAnim@@QAE@ABV0@@Z 10001550 f i Common.obj
 0001:000005b0       ??4EChangeAnim@@QAEAAV0@ABV0@@Z 100015b0 f i Common.obj
 0001:00000600       ??1EChangeAnim@@UAE@XZ     10001600 f i Common.obj
 0001:00000610       ??_GEChangeAnim@@UAEPAXI@Z 10001610 f i Common.obj
 0001:00000640       ??_EEChangeAnim@@UAEPAXI@Z 10001640 f i Common.obj
 0001:000006a0       ?ClearToDefault@@YAXAAVEChangeAnim@@@Z 100016a0 f i Common.obj
 0001:00000700       ??0ESpawnSpray@@QAE@ABV0@@Z 10001700 f i Common.obj
 0001:00000770       ??4ESpawnSpray@@QAEAAV0@ABV0@@Z 10001770 f i Common.obj
 0001:000007f0       ??1ESpawnSpray@@UAE@XZ     100017f0 f i Common.obj
 0001:00000880       ??_GESpawnSpray@@UAEPAXI@Z 10001880 f i Common.obj
 0001:000008b0       ??_EESpawnSpray@@UAEPAXI@Z 100018b0 f i Common.obj
 0001:00000910       ?ClearToDefault@@YAXAAVESpawnSpray@@@Z 10001910 f i Common.obj
 0001:000009e0       ?ClearToDefault@@YAXAAW4CustomShadingType@@@Z 100019e0 f i Common.obj
 0001:000009f0       ?ClearToDefault@@YAXAAW4ShadowType@@@Z 100019f0 f i Common.obj
 0001:00000a00       ?ClearToDefault@@YAXAAW4BasicEffectType@@@Z 10001a00 f i Common.obj
 0001:00000a10       ??0ESpawnEffect@@QAE@ABV0@@Z 10001a10 f i Common.obj
 0001:00000a90       ??4ESpawnEffect@@QAEAAV0@ABV0@@Z 10001a90 f i Common.obj
 0001:00000b00       ??1ESpawnEffect@@UAE@XZ    10001b00 f i Common.obj
 0001:00000b10       ??_GESpawnEffect@@UAEPAXI@Z 10001b10 f i Common.obj
 0001:00000b40       ??_EESpawnEffect@@UAEPAXI@Z 10001b40 f i Common.obj
 0001:00000ba0       ?ClearToDefault@@YAXAAVESpawnEffect@@@Z 10001ba0 f i Common.obj
 0001:00000c10       ?ClearToDefault@@YAXAAW4DebrisParticlesType@@@Z 10001c10 f i Common.obj
 0001:00000c20       ??0ESpawnDebris@@QAE@ABV0@@Z 10001c20 f i Common.obj
 0001:00000ce0       ??4ESpawnDebris@@QAEAAV0@ABV0@@Z 10001ce0 f i Common.obj
 0001:00000db0       ??1ESpawnDebris@@UAE@XZ    10001db0 f i Common.obj
 0001:00000e40       ??_GESpawnDebris@@UAEPAXI@Z 10001e40 f i Common.obj
 0001:00000e70       ??_EESpawnDebris@@UAEPAXI@Z 10001e70 f i Common.obj
 0001:00000ed0       ?ClearToDefault@@YAXAAVESpawnDebris@@@Z 10001ed0 f i Common.obj
 0001:00000ff0       ??0ERangeModelDestruction@@QAE@ABV0@@Z 10001ff0 f i Common.obj
 0001:00001010       ??4ERangeModelDestruction@@QAEAAV0@ABV0@@Z 10002010 f i Common.obj
 0001:00001030       ??1ERangeModelDestruction@@UAE@XZ 10002030 f i Common.obj
 0001:00001040       ??_GERangeModelDestruction@@UAEPAXI@Z 10002040 f i Common.obj
 0001:00001070       ??_EERangeModelDestruction@@UAEPAXI@Z 10002070 f i Common.obj
 0001:000010d0       ?ClearToDefault@@YAXAAVERangeModelDestruction@@@Z 100020d0 f i Common.obj
 0001:000010f0       ?ClearToDefault@@YAXAAW4DestructionDebrisType@@@Z 100020f0 f i Common.obj
 0001:00001100       ?ClearToDefault@@YAXAAW4LightType@@@Z 10002100 f i Common.obj
 0001:00001110       ?ClearToDefault@@YAXAAW4LensFlareType@@@Z 10002110 f i Common.obj
 0001:00001120       ??0EFlame@@QAE@ABV0@@Z     10002120 f i Common.obj
 0001:00001160       ??4EFlame@@QAEAAV0@ABV0@@Z 10002160 f i Common.obj
 0001:000011d0       ??1EFlame@@UAE@XZ          100021d0 f i Common.obj
 0001:00001270       ??_GEFlame@@UAEPAXI@Z      10002270 f i Common.obj
 0001:000012a0       ??_EEFlame@@UAEPAXI@Z      100022a0 f i Common.obj
 0001:00001300       ?ClearToDefault@@YAXAAVEFlame@@@Z 10002300 f i Common.obj
 0001:000013e0       ??0EStopFlaming@@QAE@ABV0@@Z 100023e0 f i Common.obj
 0001:00001410       ??4EStopFlaming@@QAEAAV0@ABV0@@Z 10002410 f i Common.obj
 0001:00001430       ??1EStopFlaming@@UAE@XZ    10002430 f i Common.obj
 0001:00001440       ??_GEStopFlaming@@UAEPAXI@Z 10002440 f i Common.obj
 0001:00001470       ??_EEStopFlaming@@UAEPAXI@Z 10002470 f i Common.obj
 0001:000014d0       ?ClearToDefault@@YAXAAVEStopFlaming@@@Z 100024d0 f i Common.obj
 0001:00001500       ?ClearToDefault@@YAXAAW4PlayerViewType@@@Z 10002500 f i Common.obj
 0001:00001510       ?ClearToDefault@@YAXAAW4PlayerState@@@Z 10002510 f i Common.obj
 0001:00001520       ??0ECameraStart@@QAE@ABV0@@Z 10002520 f i Common.obj
 0001:00001550       ??4ECameraStart@@QAEAAV0@ABV0@@Z 10002550 f i Common.obj
 0001:00001590       ??1ECameraStart@@UAE@XZ    10002590 f i Common.obj
 0001:00001620       ??_GECameraStart@@UAEPAXI@Z 10002620 f i Common.obj
 0001:00001650       ??_EECameraStart@@UAEPAXI@Z 10002650 f i Common.obj
 0001:000016b0       ?ClearToDefault@@YAXAAVECameraStart@@@Z 100026b0 f i Common.obj
 0001:00001750       ??0ECameraStop@@QAE@ABV0@@Z 10002750 f i Common.obj
 0001:00001780       ??4ECameraStop@@QAEAAV0@ABV0@@Z 10002780 f i Common.obj
 0001:000017c0       ??1ECameraStop@@UAE@XZ     100027c0 f i Common.obj
 0001:00001850       ??_GECameraStop@@UAEPAXI@Z 10002850 f i Common.obj
 0001:00001880       ??_EECameraStop@@UAEPAXI@Z 10002880 f i Common.obj
 0001:000018e0       ?ClearToDefault@@YAXAAVECameraStop@@@Z 100028e0 f i Common.obj
 0001:00001980       ??0ERebirth@@QAE@ABV0@@Z   10002980 f i Common.obj
 0001:000019a0       ??4ERebirth@@QAEAAV0@ABV0@@Z 100029a0 f i Common.obj
 0001:000019c0       ??1ERebirth@@UAE@XZ        100029c0 f i Common.obj
 0001:000019d0       ??_GERebirth@@UAEPAXI@Z    100029d0 f i Common.obj
 0001:00001a00       ??_EERebirth@@UAEPAXI@Z    10002a00 f i Common.obj
 0001:00001a60       ?ClearToDefault@@YAXAAVERebirth@@@Z 10002a60 f i Common.obj
 0001:00001a80       ??0EDisconnected@@QAE@ABV0@@Z 10002a80 f i Common.obj
 0001:00001aa0       ??4EDisconnected@@QAEAAV0@ABV0@@Z 10002aa0 f i Common.obj
 0001:00001ac0       ??1EDisconnected@@UAE@XZ   10002ac0 f i Common.obj
 0001:00001ad0       ??_GEDisconnected@@UAEPAXI@Z 10002ad0 f i Common.obj
 0001:00001b00       ??_EEDisconnected@@UAEPAXI@Z 10002b00 f i Common.obj
 0001:00001b60       ?ClearToDefault@@YAXAAVEDisconnected@@@Z 10002b60 f i Common.obj
 0001:00001b80       ??0EAutoAction@@QAE@ABV0@@Z 10002b80 f i Common.obj
 0001:00001bb0       ??4EAutoAction@@QAEAAV0@ABV0@@Z 10002bb0 f i Common.obj
 0001:00001bf0       ??1EAutoAction@@UAE@XZ     10002bf0 f i Common.obj
 0001:00001c80       ??_GEAutoAction@@UAEPAXI@Z 10002c80 f i Common.obj
 0001:00001cb0       ??_EEAutoAction@@UAEPAXI@Z 10002cb0 f i Common.obj
 0001:00001d10       ?ClearToDefault@@YAXAAVEAutoAction@@@Z 10002d10 f i Common.obj
 0001:00001db0       ?GetPredictionPair@CPlayer@@UAEPAVCEntity@@XZ 10002db0 f i Common.obj
 0001:00001dc0       ?SetPredictionPair@CPlayer@@UAEXPAVCEntity@@@Z 10002dc0 f i Common.obj
 0001:00001e00       ??0CPlayer@@QAE@AAV0@@Z    10002e00 f i Common.obj
 0001:000033a0       ??4CPlayer@@QAEAAV0@AAV0@@Z 100043a0 f i Common.obj
 0001:000045c0       ??1CPlayer@@UAE@XZ         100055c0 f i Common.obj
 0001:000048a0       ??_GCPlayer@@UAEPAXI@Z     100058a0 f i Common.obj
 0001:000048d0       ??_ECPlayer@@UAEPAXI@Z     100058d0 f i Common.obj
 0001:00004930       ??0CSoundListener@@QAE@ABV0@@Z 10005930 f i Common.obj
 0001:000049b0       ??1CSoundListener@@QAE@XZ  100059b0 f i Common.obj
 0001:000049d0       ??0?$CDynamicStackArray@VCCompMessageID@@@@QAE@AAV0@@Z 100059d0 f i Common.obj
 0001:00004af0       ??4CSoundListener@@QAEAAV0@ABV0@@Z 10005af0 f i Common.obj
 0001:00004b70       ??0EBulletInit@@QAE@ABV0@@Z 10005b70 f i Common.obj
 0001:00004bb0       ??4EBulletInit@@QAEAAV0@ABV0@@Z 10005bb0 f i Common.obj
 0001:00004c00       ??1EBulletInit@@UAE@XZ     10005c00 f i Common.obj
 0001:00004c90       ??_GEBulletInit@@UAEPAXI@Z 10005c90 f i Common.obj
 0001:00004cc0       ??_EEBulletInit@@UAEPAXI@Z 10005cc0 f i Common.obj
 0001:00004d20       ?ClearToDefault@@YAXAAVEBulletInit@@@Z 10005d20 f i Common.obj
 0001:00004dc0       ??0CBullet@@QAE@XZ         10005dc0 f i Common.obj
 0001:00004de0       ??0CBullet@@QAE@ABV0@@Z    10005de0 f i Common.obj
 0001:00004f70       ??4CBullet@@QAEAAV0@AAV0@@Z 10005f70 f i Common.obj
 0001:00005050       ??1CBullet@@UAE@XZ         10006050 f i Common.obj
 0001:000050b0       ??_GCBullet@@UAEPAXI@Z     100060b0 f i Common.obj
 0001:000050e0       ??_ECBullet@@UAEPAXI@Z     100060e0 f i Common.obj
 0001:00005140       ?Clear@CCompMessageID@@QAEXXZ 10006140 f   Common.obj
 0001:00005170       ?Read_t@CCompMessageID@@QAEXAAVCTStream@@@Z 10006170 f   Common.obj
 0001:000051c0       ?Write_t@CCompMessageID@@QAEXAAVCTStream@@@Z 100061c0 f   Common.obj
 0001:00005210       ?NewMessage@CCompMessageID@@QAEXABVCTFileName@@@Z 10006210 f   Common.obj
 0001:00005370       ?GetEntityInfoPosition@@YAXPAVCEntity@@PAMAAV?$Vector@M$02@@@Z 10006370 f   Common.obj
 0001:00005420       ?GetPositionCastRay@@YAXPAVCEntity@@0AAV?$Vector@M$02@@1@Z 10006420 f   Common.obj
 0001:000054b0       ?SetBoolFromBoolEType@@YAXAAHW4BoolEType@@@Z 100064b0 f   Common.obj
 0001:000054e0       ?SendToTarget@@YAXPAVCEntity@@W4EventEType@@0@Z 100064e0 f   Common.obj
 0001:000056d0       ?SendInRange@@YAXPAVCEntity@@W4EventEType@@ABV?$AABBox@M$02@@@Z 100066d0 f   Common.obj
 0001:00005880       ?SpawnReminder@@YA?AVCEntityPointer@@PAVCEntity@@MJ@Z 10006880 f   Common.obj
 0001:000059f0       ?GetParticleEffectTypeForSurface@@YA?AW4EffectParticlesType@@J@Z 100069f0 f   Common.obj
 0001:00005a80       ?GetBulletHitTypeForSurface@@YA?AW4BulletHitType@@J@Z 10006a80 f   Common.obj
 0001:00005b10       ?SpawnHitTypeEffect@@YAXPAVCEntity@@W4BulletHitType@@HV?$Vector@M$02@@222@Z 10006b10 f   Common.obj
 0001:00006160       ?SpawnFlame@@YA?AVCEntityPointer@@PAVCEntity@@0ABV?$Vector@M$02@@@Z 10007160 f   Common.obj
 0001:00006410       ?KickEntity@@YAXPAVCEntity@@V?$Vector@M$02@@@Z 10007410 f   Common.obj
 0001:00006480       ?SetComponents@@YAXPAVCEntity@@AAVCModelObject@@KKKKK@Z 10007480 f   Common.obj
 0001:00006520       ?AddAttachmentToModel@@YAXPAVCEntity@@AAVCModelObject@@JKKKKK@Z 10007520 f   Common.obj
 0001:00006560       ?RemoveAttachmentFromModel@@YAXAAVCModelObject@@J@Z 10007560 f   Common.obj
 0001:00006b00       ?InitLensFlares@@YAXXZ     10007b00 f   Common.obj
 0001:0000b260       ?CloseLensFlares@@YAXXZ    1000c260 f   Common.obj
 0001:0000b530       ?SetModelData_t@@YAXPAVCModelObject@@ABVCTFileName@@@Z 1000c530 f   Common.obj
 0001:0000b550       ?SetTextureData_t@@YAXPAVCModelObject@@ABVCTFileName@@@Z 1000c550 f   Common.obj
 0001:0000b570       ?SetModel_t@@YAXPAVCModelObject@@ABVCTFileName@@1@Z 1000c570 f   Common.obj
 0001:0000b5a0       ?ModelAddAttachment_t@@YAXPAVCModelObject@@JABVCTFileName@@1@Z 1000c5a0 f   Common.obj
 0001:0000b680       ?GetNonEmptyLine_t@@YA?AVCTString@@AAVCTStream@@@Z 1000c680 f   Common.obj
 0001:0000b7b0       ?FixupFileName_t@@YAXAAVCTString@@@Z 1000c7b0 f   Common.obj
 0001:0000b890       ?SkipBlock_t@@YAXAAVCTStream@@@Z 1000c890 f   Common.obj
 0001:0000b9b0       ?ParseAMC_t@@YAXPAVCModelObject@@AAVCTStream@@H@Z 1000c9b0 f   Common.obj
 0001:0000bff0       ?SetPlayerAppearance_internal@@YAHPAVCModelObject@@ABVCTFileName@@AAVCTString@@H@Z 1000cff0 f   Common.obj
 0001:0000c170       ?SetPlayerAppearance@@YAHPAVCModelObject@@PAVCPlayerCharacter@@AAVCTString@@H@Z 1000d170 f   Common.obj
 0001:0000c360       ?PrintConsole@@YAPBDXZ     1000d360 f   Common.obj
 0001:0000c370       ?PrintStack@@YAPBDPAVCEntity@@@Z 1000d370 f   Common.obj
 0001:0000c3c0       ?Debris_Begin@@YAXW4EntityInfoBodyType@@W4DebrisParticlesType@@W4BasicEffectType@@MABV?$Vector@M$02@@3MMK@Z 1000d3c0 f   Common.obj
 0001:0000c440       ?Debris_Spawn@@YA?AVCEntityPointer@@PAVCEntity@@0JJJJJJMABV?$Vector@M$02@@@Z 1000d440 f   Common.obj
 0001:0000c860       ?Debris_Spawn_Independent@@YA?AVCEntityPointer@@PAVCEntity@@0JJJJJJMVCPlacement3D@@V?$Vector@M$02@@2@Z 1000d860 f   Common.obj
 0001:0000ca20       ?Debris_Spawn_Template@@YA?AVCEntityPointer@@W4EntityInfoBodyType@@W4DebrisParticlesType@@W4BasicEffectType@@PAVCModelHolder2@@PAVCEntity@@3V?$Vector@M$02@@MVCPlacement3D@@55HMK@Z 1000da20 f   Common.obj
 0001:0000cce0       ?GetStdEntityInfo@@YAPAUEntityInfo@@W4EntityInfoBodyType@@@Z 1000dce0 f   Common.obj
 0001:0000cd70       ?DamageStrength@@YAMW4EntityInfoBodyType@@W4DamageType@@@Z 1000dd70 f   Common.obj
 0001:0000ce70       ?PrintCenterMessage@@YAXPAVCEntity@@0ABVCTString@@MW4MessageSound@@@Z 1000de70 f   Common.obj
 0001:0000cf10       ?SpawnRangeSound@@YAXPAVCEntity@@0W4SoundType@@M@Z 1000df10 f   Common.obj
 0001:0000d000       ?FixupCausedToPlayer@@YAPAVCEntity@@PAV1@0H@Z 1000e000 f   Common.obj
 0001:0000d130       ?LerpPlacementsPrecise@@YA?AVCPlacement3D@@ABV1@0M@Z 1000e130 f   Common.obj
 0001:0000d540       ?GetGameDamageMultiplier@@YAMXZ 1000e540 f   Common.obj
 0001:0000d600       ?GetSeriousDamageMultiplier@@YAMPAVCEntity@@@Z 1000e600 f   Common.obj
 0001:0000d650       ?GetWSC@@YAPAVCWorldSettingsController@@PAVCEntity@@@Z 1000e650 f   Common.obj
 0001:0000d680       ??1WorldChange@@QAE@XZ     1000e680 f i Common.obj
 0001:0000d690       ??0WorldChange@@QAE@XZ     1000e690 f i Common.obj
 0001:0000d6b0       ??1CEntityPointer@@QAE@XZ  1000e6b0 f i Common.obj
 0001:0000d6d0       ??4CEntityPointer@@QAEABV0@ABV0@@Z 1000e6d0 f i Common.obj
 0001:0000d710       ?AngleDeg@@YAMM@Z          1000e710 f i Common.obj
 0001:0000d720       ??_H@YGXPAXIHP6EX0@Z@Z     1000e720 f i Common.obj
 0001:0000d750       ?GetModelFilename@CPlayerSettings@@QBE?AVCTFileName@@XZ 1000e750 f i Common.obj
 0001:0000d920       ??1EStop@@UAE@XZ           1000e920 f i Common.obj
 0001:0000d930       ??_GEStop@@UAEPAXI@Z       1000e930 f i Common.obj
 0001:0000d960       ??_EEStop@@UAEPAXI@Z       1000e960 f i Common.obj
 0001:0000d9c0       ??1EStart@@UAE@XZ          1000e9c0 f i Common.obj
 0001:0000da50       ??_GEStart@@UAEPAXI@Z      1000ea50 f i Common.obj
 0001:0000da80       ??_EEStart@@UAEPAXI@Z      1000ea80 f i Common.obj
 0001:0000dae0       ??1EActivate@@UAE@XZ       1000eae0 f i Common.obj
 0001:0000daf0       ??_GEActivate@@UAEPAXI@Z   1000eaf0 f i Common.obj
 0001:0000db20       ??_EEActivate@@UAEPAXI@Z   1000eb20 f i Common.obj
 0001:0000db80       ??1EDeactivate@@UAE@XZ     1000eb80 f i Common.obj
 0001:0000db90       ??_GEDeactivate@@UAEPAXI@Z 1000eb90 f i Common.obj
 0001:0000dbc0       ??_EEDeactivate@@UAEPAXI@Z 1000ebc0 f i Common.obj
 0001:0000dc20       ??1EEnvironmentStart@@UAE@XZ 1000ec20 f i Common.obj
 0001:0000dc30       ??_GEEnvironmentStart@@UAEPAXI@Z 1000ec30 f i Common.obj
 0001:0000dc60       ??_EEEnvironmentStart@@UAEPAXI@Z 1000ec60 f i Common.obj
 0001:0000dcc0       ??1EEnvironmentStop@@UAE@XZ 1000ecc0 f i Common.obj
 0001:0000dcd0       ??_GEEnvironmentStop@@UAEPAXI@Z 1000ecd0 f i Common.obj
 0001:0000dd00       ??_EEEnvironmentStop@@UAEPAXI@Z 1000ed00 f i Common.obj
 0001:0000dd60       ??_GEEnd@@UAEPAXI@Z        1000ed60 f i Common.obj
 0001:0000dd90       ??1EEnd@@UAE@XZ            1000ed90 f i Common.obj
 0001:0000dda0       ??_EEEnd@@UAEPAXI@Z        1000eda0 f i Common.obj
 0001:0000de00       ??1ETrigger@@UAE@XZ        1000ee00 f i Common.obj
 0001:0000de90       ??_GETrigger@@UAEPAXI@Z    1000ee90 f i Common.obj
 0001:0000dec0       ??_EETrigger@@UAEPAXI@Z    1000eec0 f i Common.obj
 0001:0000df20       ??1ETeleportMovingBrush@@UAE@XZ 1000ef20 f i Common.obj
 0001:0000df30       ??_GETeleportMovingBrush@@UAEPAXI@Z 1000ef30 f i Common.obj
 0001:0000df60       ??_EETeleportMovingBrush@@UAEPAXI@Z 1000ef60 f i Common.obj
 0001:0000dfc0       ??_GEReminder@@UAEPAXI@Z   1000efc0 f i Common.obj
 0001:0000dff0       ??1EReminder@@UAE@XZ       1000eff0 f i Common.obj
 0001:0000e000       ??_EEReminder@@UAEPAXI@Z   1000f000 f i Common.obj
 0001:0000e060       ??1EStartAttack@@UAE@XZ    1000f060 f i Common.obj
 0001:0000e070       ??_GEStartAttack@@UAEPAXI@Z 1000f070 f i Common.obj
 0001:0000e0a0       ??_EEStartAttack@@UAEPAXI@Z 1000f0a0 f i Common.obj
 0001:0000e100       ??1EStopAttack@@UAE@XZ     1000f100 f i Common.obj
 0001:0000e110       ??_GEStopAttack@@UAEPAXI@Z 1000f110 f i Common.obj
 0001:0000e140       ??_EEStopAttack@@UAEPAXI@Z 1000f140 f i Common.obj
 0001:0000e1a0       ??1EStopBlindness@@UAE@XZ  1000f1a0 f i Common.obj
 0001:0000e1b0       ??_GEStopBlindness@@UAEPAXI@Z 1000f1b0 f i Common.obj
 0001:0000e1e0       ??_EEStopBlindness@@UAEPAXI@Z 1000f1e0 f i Common.obj
 0001:0000e240       ??1EStopDeafness@@UAE@XZ   1000f240 f i Common.obj
 0001:0000e250       ??_GEStopDeafness@@UAEPAXI@Z 1000f250 f i Common.obj
 0001:0000e280       ??_EEStopDeafness@@UAEPAXI@Z 1000f280 f i Common.obj
 0001:0000e2e0       ??_GEReceiveScore@@UAEPAXI@Z 1000f2e0 f i Common.obj
 0001:0000e310       ??1EReceiveScore@@UAE@XZ   1000f310 f i Common.obj
 0001:0000e320       ??_EEReceiveScore@@UAEPAXI@Z 1000f320 f i Common.obj
 0001:0000e380       ??_GEKilledEnemy@@UAEPAXI@Z 1000f380 f i Common.obj
 0001:0000e3b0       ??1EKilledEnemy@@UAE@XZ    1000f3b0 f i Common.obj
 0001:0000e3c0       ??_EEKilledEnemy@@UAEPAXI@Z 1000f3c0 f i Common.obj
 0001:0000e420       ??_GESecretFound@@UAEPAXI@Z 1000f420 f i Common.obj
 0001:0000e450       ??1ESecretFound@@UAE@XZ    1000f450 f i Common.obj
 0001:0000e460       ??_EESecretFound@@UAEPAXI@Z 1000f460 f i Common.obj
 0001:0000e4c0       ??1ESound@@UAE@XZ          1000f4c0 f i Common.obj
 0001:0000e550       ??_GESound@@UAEPAXI@Z      1000f550 f i Common.obj
 0001:0000e580       ??_EESound@@UAEPAXI@Z      1000f580 f i Common.obj
 0001:0000e5e0       ?ToMatrix@?$Quaternion@M@@QBEXAAV?$Matrix@M$02$02@@@Z 1000f5e0 f i Common.obj
 0001:0000e6b0       ??_GEScroll@@UAEPAXI@Z     1000f6b0 f i Common.obj
 0001:0000e6e0       ??1EScroll@@UAE@XZ         1000f6e0 f i Common.obj
 0001:0000e770       ??_EEScroll@@UAEPAXI@Z     1000f770 f i Common.obj
 0001:0000e7d0       ??_GETextFX@@UAEPAXI@Z     1000f7d0 f i Common.obj
 0001:0000e800       ??1ETextFX@@UAE@XZ         1000f800 f i Common.obj
 0001:0000e890       ??_EETextFX@@UAEPAXI@Z     1000f890 f i Common.obj
 0001:0000e8f0       ??_GEHudPicFX@@UAEPAXI@Z   1000f8f0 f i Common.obj
 0001:0000e920       ??1EHudPicFX@@UAE@XZ       1000f920 f i Common.obj
 0001:0000e9b0       ??_EEHudPicFX@@UAEPAXI@Z   1000f9b0 f i Common.obj
 0001:0000ea10       ?New@?$CStaticArray@VCOneLensFlare@@@@QAEXJ@Z 1000fa10 f i Common.obj
 0001:0000ea90       ??A?$CStaticArray@VCOneLensFlare@@@@QAEAAVCOneLensFlare@@J@Z 1000fa90 f i Common.obj
 0001:0000eab0       ??_GECredits@@UAEPAXI@Z    1000fab0 f i Common.obj
 0001:0000eae0       ??1ECredits@@UAE@XZ        1000fae0 f i Common.obj
 0001:0000eb70       ??_EECredits@@UAEPAXI@Z    1000fb70 f i Common.obj
 0001:0000ebd0       ??1ECenterMessage@@UAE@XZ  1000fbd0 f i Common.obj
 0001:0000ec20       ??_GECenterMessage@@UAEPAXI@Z 1000fc20 f i Common.obj
 0001:0000ec50       ??_EECenterMessage@@UAEPAXI@Z 1000fc50 f i Common.obj
 0001:0000ecb0       ??_GEComputerMessage@@UAEPAXI@Z 1000fcb0 f i Common.obj
 0001:0000ece0       ??1EComputerMessage@@UAE@XZ 1000fce0 f i Common.obj
 0001:0000ed30       ??_EEComputerMessage@@UAEPAXI@Z 1000fd30 f i Common.obj
 0001:0000ed90       ??_GEVoiceMessage@@UAEPAXI@Z 1000fd90 f i Common.obj
 0001:0000edc0       ??1EVoiceMessage@@UAE@XZ   1000fdc0 f i Common.obj
 0001:0000ee10       ??_EEVoiceMessage@@UAEPAXI@Z 1000fe10 f i Common.obj
 0001:0000ee70       ??_GEHitBySpaceShipBeam@@UAEPAXI@Z 1000fe70 f i Common.obj
 0001:0000eea0       ??1EHitBySpaceShipBeam@@UAE@XZ 1000fea0 f i Common.obj
 0001:0000eeb0       ??_EEHitBySpaceShipBeam@@UAEPAXI@Z 1000feb0 f i Common.obj
 0001:0000ef10       ??1?$CDynamicStackArray@VCCompMessageID@@@@QAE@XZ 1000ff10 f i Common.obj
 0001:0000efb0       ??4?$CDynamicStackArray@VCCompMessageID@@@@QAEAAV0@AAV0@@Z 1000ffb0 f i Common.obj
 0001:0000f0f0       ??1CCompMessageID@@QAE@XZ  100100f0 f i Common.obj
 0001:0000f100       ??_ECOneLensFlare@@QAEPAXI@Z 10010100 f i Common.obj
 0001:0000f160       ??1CDABlockInfo@@QAE@XZ    10010160 f i Common.obj
 0001:0000f180       ?Delete@?$CStaticArray@J@@QAEXXZ 10010180 f i Common.obj
 0001:0000f1a0       ??G?$Quaternion@M@@QBE?AV0@XZ 100101a0 f i Common.obj
 0001:0000f1f0       ??D?$Quaternion@M@@QBE?AV0@ABV0@@Z 100101f0 f i Common.obj
 0001:0000f2a0       ??D?$Quaternion@M@@QBE?AV0@M@Z 100102a0 f i Common.obj
 0001:0000f2f0       ??H?$Quaternion@M@@QBE?AV0@ABV0@@Z 100102f0 f i Common.obj
 0001:0000f340       ??L?$Quaternion@M@@QBEMABV0@@Z 10010340 f i Common.obj
 0001:0000f370       ?Delete@?$CStaticArray@VCOneLensFlare@@@@QAEXXZ 10010370 f i Common.obj
 0001:0000f3c0       ?Clear@?$CDynamicArray@VCCompMessageID@@@@QAEXXZ 100103c0 f i Common.obj
 0001:0000f450       ??_ECCompMessageID@@QAEPAXI@Z 10010450 f i Common.obj
 0001:0000f4b0       ?GrowPointers@?$CDynamicArray@VCCompMessageID@@@@QAEXJ@Z 100104b0 f i Common.obj
 0001:0000f500       ?AllocBlock@?$CDynamicArray@VCCompMessageID@@@@QAEPAVCCompMessageID@@J@Z 10010500 f i Common.obj
 0001:0000f5b0       ??0CCompMessageID@@QAE@XZ  100105b0 f i Common.obj
 0001:0000f5d0       ??0CEmittedParticle@@QAE@XZ 100105d0 f   EmanatingParticles.obj
 0001:0000f660       ?Write_t@CEmittedParticle@@QAEXAAVCTStream@@@Z 10010660 f   EmanatingParticles.obj
 0001:0000f680       ?Read_t@CEmittedParticle@@QAEXAAVCTStream@@@Z 10010680 f   EmanatingParticles.obj
 0001:0000f6a0       ??0CEmiter@@QAE@XZ         100106a0 f   EmanatingParticles.obj
 0001:0000f740       ?Initialize@CEmiter@@QAEXPAVCEntity@@@Z 10010740 f   EmanatingParticles.obj
 0001:0000f7a0       ?GetGravity@CEmiter@@QAE?AV?$Vector@M$02@@PAVCEntity@@@Z 100107a0 f   EmanatingParticles.obj
 0001:0000f840       ?AddParticle@CEmiter@@QAEXV?$Vector@M$02@@0MMMMMK@Z 10010840 f   EmanatingParticles.obj
 0001:0000f8e0       ?AnimateParticles@CEmiter@@QAEXXZ 100108e0 f   EmanatingParticles.obj
 0001:0000fae0       ?RenderParticles@CEmiter@@QAEXXZ 10010ae0 f   EmanatingParticles.obj
 0001:0000fb10       ?Read_t@CEmiter@@QAEXAAVCTStream@@@Z 10010b10 f   EmanatingParticles.obj
 0001:0000fc40       ?Write_t@CEmiter@@QAEXAAVCTStream@@@Z 10010c40 f   EmanatingParticles.obj
 0001:0000fd30       ??1?$CStaticStackArray@VCEmittedParticle@@@@QAE@XZ 10010d30 f i EmanatingParticles.obj
 0001:0000fd60       ?Expand@?$CStaticArray@VCEmittedParticle@@@@QAEXJ@Z 10010d60 f i EmanatingParticles.obj
 0001:0000fe60       ?ClearToDefault@@YAXAAW4WeaponEffectType@@@Z 10010e60 f i HUD.obj
 0001:0000fe70       ??0EWeaponEffectInit@@QAE@ABV0@@Z 10010e70 f i HUD.obj
 0001:0000feb0       ??4EWeaponEffectInit@@QAEAAV0@ABV0@@Z 10010eb0 f i HUD.obj
 0001:0000ff00       ??1EWeaponEffectInit@@UAE@XZ 10010f00 f i HUD.obj
 0001:0000ff90       ??_GEWeaponEffectInit@@UAEPAXI@Z 10010f90 f i HUD.obj
 0001:0000ffc0       ??_EEWeaponEffectInit@@UAEPAXI@Z 10010fc0 f i HUD.obj
 0001:00010020       ?ClearToDefault@@YAXAAVEWeaponEffectInit@@@Z 10011020 f i HUD.obj
 0001:000100c0       ?ClearToDefault@@YAXAAW4ProjectileType@@@Z 100110c0 f i HUD.obj
 0001:000100d0       ?ClearToDefault@@YAXAAW4ProjectileMovingType@@@Z 100110d0 f i HUD.obj
 0001:000100e0       ??0ELaunchProjectile@@QAE@ABV0@@Z 100110e0 f i HUD.obj
 0001:00010130       ??4ELaunchProjectile@@QAEAAV0@ABV0@@Z 10011130 f i HUD.obj
 0001:00010190       ??1ELaunchProjectile@@UAE@XZ 10011190 f i HUD.obj
 0001:00010220       ??_GELaunchProjectile@@UAEPAXI@Z 10011220 f i HUD.obj
 0001:00010250       ??_EELaunchProjectile@@UAEPAXI@Z 10011250 f i HUD.obj
 0001:000102b0       ?ClearToDefault@@YAXAAVELaunchProjectile@@@Z 100112b0 f i HUD.obj
 0001:00010360       ?GetPredictionPair@CProjectile@@UAEPAVCEntity@@XZ 10011360 f i HUD.obj
 0001:00010370       ?SetPredictionPair@CProjectile@@UAEXPAVCEntity@@@Z 10011370 f i HUD.obj
 0001:000103b0       ??0CProjectile@@QAE@XZ     100113b0 f i HUD.obj
 0001:00010450       ??0CProjectile@@QAE@ABV0@@Z 10011450 f i HUD.obj
 0001:00010890       ??4CProjectile@@QAEAAV0@AAV0@@Z 10011890 f i HUD.obj
 0001:00010b90       ??1CProjectile@@UAE@XZ     10011b90 f i HUD.obj
 0001:00010ca0       ??_GCProjectile@@UAEPAXI@Z 10011ca0 f i HUD.obj
 0001:00010cd0       ??_ECProjectile@@UAEPAXI@Z 10011cd0 f i HUD.obj
 0001:00010d30       ?GetName@CItem@@UBEABVCTString@@XZ 10011d30 f i HUD.obj
 0001:00010d40       ?GetDescription@CItem@@UBEABVCTString@@XZ 10011d40 f i HUD.obj
 0001:00010d50       ?IsTargetable@CItem@@UBEHXZ 10011d50 f i HUD.obj
 0001:00010d60       ?GetPredictionPair@CItem@@UAEPAVCEntity@@XZ 10011d60 f i HUD.obj
 0001:00010d70       ?SetPredictionPair@CItem@@UAEXPAVCEntity@@@Z 10011d70 f i HUD.obj
 0001:00010db0       ??0CItem@@QAE@XZ           10011db0 f i HUD.obj
 0001:00010e50       ??0CItem@@QAE@ABV0@@Z      10011e50 f i HUD.obj
 0001:00011050       ??4CItem@@QAEAAV0@AAV0@@Z  10012050 f i HUD.obj
 0001:000112a0       ??1CItem@@UAE@XZ           100122a0 f i HUD.obj
 0001:00011360       ??_GCItem@@UAEPAXI@Z       10012360 f i HUD.obj
 0001:00011390       ??_ECItem@@UAEPAXI@Z       10012390 f i HUD.obj
 0001:000113f0       ?ClearToDefault@@YAXAAW4WeaponItemType@@@Z 100123f0 f i HUD.obj
 0001:00011400       ??0EWeaponItem@@QAE@ABV0@@Z 10012400 f i HUD.obj
 0001:00011440       ??4EWeaponItem@@QAEAAV0@ABV0@@Z 10012440 f i HUD.obj
 0001:00011470       ??1EWeaponItem@@UAE@XZ     10012470 f i HUD.obj
 0001:00011480       ??_GEWeaponItem@@UAEPAXI@Z 10012480 f i HUD.obj
 0001:000114b0       ??_EEWeaponItem@@UAEPAXI@Z 100124b0 f i HUD.obj
 0001:00011510       ?ClearToDefault@@YAXAAVEWeaponItem@@@Z 10012510 f i HUD.obj
 0001:00011540       ?ClearToDefault@@YAXAAW4AmmoItemType@@@Z 10012540 f i HUD.obj
 0001:00011550       ??0EAmmoItem@@QAE@ABV0@@Z  10012550 f i HUD.obj
 0001:00011580       ??4EAmmoItem@@QAEAAV0@ABV0@@Z 10012580 f i HUD.obj
 0001:000115a0       ??1EAmmoItem@@UAE@XZ       100125a0 f i HUD.obj
 0001:000115b0       ??_GEAmmoItem@@UAEPAXI@Z   100125b0 f i HUD.obj
 0001:000115e0       ??_EEAmmoItem@@UAEPAXI@Z   100125e0 f i HUD.obj
 0001:00011640       ?ClearToDefault@@YAXAAVEAmmoItem@@@Z 10012640 f i HUD.obj
 0001:00011670       ?ClearToDefault@@YAXAAW4AmmoPackType@@@Z 10012670 f i HUD.obj
 0001:00011680       ??0EAmmoPackItem@@QAE@ABV0@@Z 10012680 f i HUD.obj
 0001:000116e0       ??4EAmmoPackItem@@QAEAAV0@ABV0@@Z 100126e0 f i HUD.obj
 0001:00011730       ??1EAmmoPackItem@@UAE@XZ   10012730 f i HUD.obj
 0001:00011740       ??_GEAmmoPackItem@@UAEPAXI@Z 10012740 f i HUD.obj
 0001:00011770       ??_EEAmmoPackItem@@UAEPAXI@Z 10012770 f i HUD.obj
 0001:000117d0       ?ClearToDefault@@YAXAAVEAmmoPackItem@@@Z 100127d0 f i HUD.obj
 0001:00011830       ??0EWatcherInit@@QAE@ABV0@@Z 10012830 f i HUD.obj
 0001:00011860       ??4EWatcherInit@@QAEAAV0@ABV0@@Z 10012860 f i HUD.obj
 0001:000118a0       ??1EWatcherInit@@UAE@XZ    100128a0 f i HUD.obj
 0001:00011930       ??_GEWatcherInit@@UAEPAXI@Z 10012930 f i HUD.obj
 0001:00011960       ??_EEWatcherInit@@UAEPAXI@Z 10012960 f i HUD.obj
 0001:000119c0       ?ClearToDefault@@YAXAAVEWatcherInit@@@Z 100129c0 f i HUD.obj
 0001:00011a60       ??0EWatch@@QAE@ABV0@@Z     10012a60 f i HUD.obj
 0001:00011a90       ??4EWatch@@QAEAAV0@ABV0@@Z 10012a90 f i HUD.obj
 0001:00011ad0       ??1EWatch@@UAE@XZ          10012ad0 f i HUD.obj
 0001:00011b60       ??_GEWatch@@UAEPAXI@Z      10012b60 f i HUD.obj
 0001:00011b90       ??_EEWatch@@UAEPAXI@Z      10012b90 f i HUD.obj
 0001:00011bf0       ?ClearToDefault@@YAXAAVEWatch@@@Z 10012bf0 f i HUD.obj
 0001:00011c90       ?GetPredictionPair@CWatcher@@UAEPAVCEntity@@XZ 10012c90 f i HUD.obj
 0001:00011ca0       ?SetPredictionPair@CWatcher@@UAEXPAVCEntity@@@Z 10012ca0 f i HUD.obj
 0001:00011ce0       ??0CWatcher@@QAE@XZ        10012ce0 f i HUD.obj
 0001:00011d10       ??0CWatcher@@QAE@ABV0@@Z   10012d10 f i HUD.obj
 0001:00011de0       ??4CWatcher@@QAEAAV0@AAV0@@Z 10012de0 f i HUD.obj
 0001:00011f00       ??1CWatcher@@UAE@XZ        10012f00 f i HUD.obj
 0001:00011fd0       ??_GCWatcher@@UAEPAXI@Z    10012fd0 f i HUD.obj
 0001:00012000       ??_ECWatcher@@UAEPAXI@Z    10013000 f i HUD.obj
 0001:00012060       ?ClearToDefault@@YAXAAW4MusicType@@@Z 10013060 f i HUD.obj
 0001:00012070       ??0EChangeMusic@@QAE@ABV0@@Z 10013070 f i HUD.obj
 0001:000120f0       ??4EChangeMusic@@QAEAAV0@ABV0@@Z 100130f0 f i HUD.obj
 0001:00012140       ??1EChangeMusic@@UAE@XZ    10013140 f i HUD.obj
 0001:00012190       ??_GEChangeMusic@@UAEPAXI@Z 10013190 f i HUD.obj
 0001:000121c0       ??_EEChangeMusic@@UAEPAXI@Z 100131c0 f i HUD.obj
 0001:00012220       ?ClearToDefault@@YAXAAVEChangeMusic@@@Z 10013220 f i HUD.obj
 0001:000122b0       ??0ERestartAttack@@QAE@ABV0@@Z 100132b0 f i HUD.obj
 0001:000122d0       ??4ERestartAttack@@QAEAAV0@ABV0@@Z 100132d0 f i HUD.obj
 0001:000122f0       ??1ERestartAttack@@UAE@XZ  100132f0 f i HUD.obj
 0001:00012300       ??_GERestartAttack@@UAEPAXI@Z 10013300 f i HUD.obj
 0001:00012330       ??_EERestartAttack@@UAEPAXI@Z 10013330 f i HUD.obj
 0001:00012390       ?ClearToDefault@@YAXAAVERestartAttack@@@Z 10013390 f i HUD.obj
 0001:000123b0       ??0EReconsiderBehavior@@QAE@ABV0@@Z 100133b0 f i HUD.obj
 0001:000123d0       ??4EReconsiderBehavior@@QAEAAV0@ABV0@@Z 100133d0 f i HUD.obj
 0001:000123f0       ??1EReconsiderBehavior@@UAE@XZ 100133f0 f i HUD.obj
 0001:00012400       ??_GEReconsiderBehavior@@UAEPAXI@Z 10013400 f i HUD.obj
 0001:00012430       ??_EEReconsiderBehavior@@UAEPAXI@Z 10013430 f i HUD.obj
 0001:00012490       ?ClearToDefault@@YAXAAVEReconsiderBehavior@@@Z 10013490 f i HUD.obj
 0001:000124b0       ??0EForceWound@@QAE@ABV0@@Z 100134b0 f i HUD.obj
 0001:000124d0       ??4EForceWound@@QAEAAV0@ABV0@@Z 100134d0 f i HUD.obj
 0001:000124f0       ??1EForceWound@@UAE@XZ     100134f0 f i HUD.obj
 0001:00012500       ??_GEForceWound@@UAEPAXI@Z 10013500 f i HUD.obj
 0001:00012530       ??_EEForceWound@@UAEPAXI@Z 10013530 f i HUD.obj
 0001:00012590       ?ClearToDefault@@YAXAAVEForceWound@@@Z 10013590 f i HUD.obj
 0001:000125b0       ?ClearToDefault@@YAXAAW4TargetType@@@Z 100135b0 f i HUD.obj
 0001:000125c0       ?ClearToDefault@@YAXAAW4DestinationType@@@Z 100135c0 f i HUD.obj
 0001:000125d0       ?GetName@CEnemyBase@@UBEABVCTString@@XZ 100135d0 f i HUD.obj
 0001:000125e0       ?IsTargetable@CEnemyBase@@UBEHXZ 100135e0 f i HUD.obj
 0001:000125f0       ?GetPredictionPair@CEnemyBase@@UAEPAVCEntity@@XZ 100135f0 f i HUD.obj
 0001:00012600       ?SetPredictionPair@CEnemyBase@@UAEXPAVCEntity@@@Z 10013600 f i HUD.obj
 0001:00012640       ??0CEnemyBase@@QAE@ABV0@@Z 10013640 f i HUD.obj
 0001:00012ce0       ??4CEnemyBase@@QAEAAV0@AAV0@@Z 10013ce0 f i HUD.obj
 0001:000134b0       ??1CEnemyBase@@UAE@XZ      100144b0 f i HUD.obj
 0001:00013650       ??_GCEnemyBase@@UAEPAXI@Z  10014650 f i HUD.obj
 0001:00013680       ??_ECEnemyBase@@UAEPAXI@Z  10014680 f i HUD.obj
 0001:000136e0       ?ClearToDefault@@YAXAAW4CannonBallType@@@Z 100146e0 f i HUD.obj
 0001:000136f0       ??0ELaunchCannonBall@@QAE@ABV0@@Z 100146f0 f i HUD.obj
 0001:00013740       ??4ELaunchCannonBall@@QAEAAV0@ABV0@@Z 10014740 f i HUD.obj
 0001:000137a0       ??1ELaunchCannonBall@@UAE@XZ 100147a0 f i HUD.obj
 0001:00013830       ??_GELaunchCannonBall@@UAEPAXI@Z 10014830 f i HUD.obj
 0001:00013860       ??_EELaunchCannonBall@@UAEPAXI@Z 10014860 f i HUD.obj
 0001:000138c0       ?ClearToDefault@@YAXAAVELaunchCannonBall@@@Z 100148c0 f i HUD.obj
 0001:00013970       ??0EForceExplode@@QAE@ABV0@@Z 10014970 f i HUD.obj
 0001:00013990       ??4EForceExplode@@QAEAAV0@ABV0@@Z 10014990 f i HUD.obj
 0001:000139b0       ??1EForceExplode@@UAE@XZ   100149b0 f i HUD.obj
 0001:000139c0       ??_GEForceExplode@@UAEPAXI@Z 100149c0 f i HUD.obj
 0001:000139f0       ??_EEForceExplode@@UAEPAXI@Z 100149f0 f i HUD.obj
 0001:00013a50       ?ClearToDefault@@YAXAAVEForceExplode@@@Z 10014a50 f i HUD.obj
 0001:00013a70       ??0CCannonBall@@QAE@XZ     10014a70 f i HUD.obj
 0001:00013b10       ??0CCannonBall@@QAE@ABV0@@Z 10014b10 f i HUD.obj
 0001:00013e90       ??4CCannonBall@@QAEAAV0@AAV0@@Z 10014e90 f i HUD.obj
 0001:000141e0       ??1CCannonBall@@UAE@XZ     100151e0 f i HUD.obj
 0001:00014290       ??_GCCannonBall@@UAEPAXI@Z 10015290 f i HUD.obj
 0001:000142c0       ??_ECCannonBall@@UAEPAXI@Z 100152c0 f i HUD.obj
 0001:00014320       ??0ELaunchAltCannonBall@@QAE@ABV0@@Z 10015320 f i HUD.obj
 0001:00014360       ??4ELaunchAltCannonBall@@QAEAAV0@ABV0@@Z 10015360 f i HUD.obj
 0001:000143b0       ??1ELaunchAltCannonBall@@UAE@XZ 100153b0 f i HUD.obj
 0001:00014440       ??_GELaunchAltCannonBall@@UAEPAXI@Z 10015440 f i HUD.obj
 0001:00014470       ??_EELaunchAltCannonBall@@UAEPAXI@Z 10015470 f i HUD.obj
 0001:000144d0       ?ClearToDefault@@YAXAAVELaunchAltCannonBall@@@Z 100154d0 f i HUD.obj
 0001:00014570       ??0CAltCannonBall@@QAE@XZ  10015570 f i HUD.obj
 0001:00014620       ??0CAltCannonBall@@QAE@ABV0@@Z 10015620 f i HUD.obj
 0001:000149a0       ??4CAltCannonBall@@QAEAAV0@AAV0@@Z 100159a0 f i HUD.obj
 0001:00014d00       ??1CAltCannonBall@@UAE@XZ  10015d00 f i HUD.obj
 0001:00014dc0       ??_GCAltCannonBall@@UAEPAXI@Z 10015dc0 f i HUD.obj
 0001:00014df0       ??_ECAltCannonBall@@UAEPAXI@Z 10015df0 f i HUD.obj
 0001:00014e50       ??0EWeaponsInit@@QAE@ABV0@@Z 10015e50 f i HUD.obj
 0001:00014e80       ??4EWeaponsInit@@QAEAAV0@ABV0@@Z 10015e80 f i HUD.obj
 0001:00014ec0       ??1EWeaponsInit@@UAE@XZ    10015ec0 f i HUD.obj
 0001:00014f50       ??_GEWeaponsInit@@UAEPAXI@Z 10015f50 f i HUD.obj
 0001:00014f80       ??_EEWeaponsInit@@UAEPAXI@Z 10015f80 f i HUD.obj
 0001:00014fe0       ?ClearToDefault@@YAXAAVEWeaponsInit@@@Z 10015fe0 f i HUD.obj
 0001:00015080       ??0ESelectWeapon@@QAE@ABV0@@Z 10016080 f i HUD.obj
 0001:000150b0       ??4ESelectWeapon@@QAEAAV0@ABV0@@Z 100160b0 f i HUD.obj
 0001:000150d0       ??1ESelectWeapon@@UAE@XZ   100160d0 f i HUD.obj
 0001:000150e0       ??_GESelectWeapon@@UAEPAXI@Z 100160e0 f i HUD.obj
 0001:00015110       ??_EESelectWeapon@@UAEPAXI@Z 10016110 f i HUD.obj
 0001:00015170       ?ClearToDefault@@YAXAAVESelectWeapon@@@Z 10016170 f i HUD.obj
 0001:000151a0       ??0EBoringWeapon@@QAE@ABV0@@Z 100161a0 f i HUD.obj
 0001:000151c0       ??4EBoringWeapon@@QAEAAV0@ABV0@@Z 100161c0 f i HUD.obj
 0001:000151e0       ??1EBoringWeapon@@UAE@XZ   100161e0 f i HUD.obj
 0001:000151f0       ??_GEBoringWeapon@@UAEPAXI@Z 100161f0 f i HUD.obj
 0001:00015220       ??_EEBoringWeapon@@UAEPAXI@Z 10016220 f i HUD.obj
 0001:00015280       ?ClearToDefault@@YAXAAVEBoringWeapon@@@Z 10016280 f i HUD.obj
 0001:000152a0       ??0EFireWeapon@@QAE@ABV0@@Z 100162a0 f i HUD.obj
 0001:000152c0       ??4EFireWeapon@@QAEAAV0@ABV0@@Z 100162c0 f i HUD.obj
 0001:000152e0       ??1EFireWeapon@@UAE@XZ     100162e0 f i HUD.obj
 0001:000152f0       ??_GEFireWeapon@@UAEPAXI@Z 100162f0 f i HUD.obj
 0001:00015320       ??_EEFireWeapon@@UAEPAXI@Z 10016320 f i HUD.obj
 0001:00015380       ?ClearToDefault@@YAXAAVEFireWeapon@@@Z 10016380 f i HUD.obj
 0001:000153a0       ??0EReleaseWeapon@@QAE@ABV0@@Z 100163a0 f i HUD.obj
 0001:000153c0       ??4EReleaseWeapon@@QAEAAV0@ABV0@@Z 100163c0 f i HUD.obj
 0001:000153e0       ??1EReleaseWeapon@@UAE@XZ  100163e0 f i HUD.obj
 0001:000153f0       ??_GEReleaseWeapon@@UAEPAXI@Z 100163f0 f i HUD.obj
 0001:00015420       ??_EEReleaseWeapon@@UAEPAXI@Z 10016420 f i HUD.obj
 0001:00015480       ?ClearToDefault@@YAXAAVEReleaseWeapon@@@Z 10016480 f i HUD.obj
 0001:000154a0       ??0EReloadWeapon@@QAE@ABV0@@Z 100164a0 f i HUD.obj
 0001:000154c0       ??4EReloadWeapon@@QAEAAV0@ABV0@@Z 100164c0 f i HUD.obj
 0001:000154e0       ??1EReloadWeapon@@UAE@XZ   100164e0 f i HUD.obj
 0001:000154f0       ??_GEReloadWeapon@@UAEPAXI@Z 100164f0 f i HUD.obj
 0001:00015520       ??_EEReloadWeapon@@UAEPAXI@Z 10016520 f i HUD.obj
 0001:00015580       ?ClearToDefault@@YAXAAVEReloadWeapon@@@Z 10016580 f i HUD.obj
 0001:000155a0       ??0EWeaponChanged@@QAE@ABV0@@Z 100165a0 f i HUD.obj
 0001:000155c0       ??4EWeaponChanged@@QAEAAV0@ABV0@@Z 100165c0 f i HUD.obj
 0001:000155e0       ??1EWeaponChanged@@UAE@XZ  100165e0 f i HUD.obj
 0001:000155f0       ??_GEWeaponChanged@@UAEPAXI@Z 100165f0 f i HUD.obj
 0001:00015620       ??_EEWeaponChanged@@UAEPAXI@Z 10016620 f i HUD.obj
 0001:00015680       ?ClearToDefault@@YAXAAVEWeaponChanged@@@Z 10016680 f i HUD.obj
 0001:000156a0       ??0EAltFireWeapon@@QAE@ABV0@@Z 100166a0 f i HUD.obj
 0001:000156c0       ??4EAltFireWeapon@@QAEAAV0@ABV0@@Z 100166c0 f i HUD.obj
 0001:000156e0       ??1EAltFireWeapon@@UAE@XZ  100166e0 f i HUD.obj
 0001:000156f0       ??_GEAltFireWeapon@@UAEPAXI@Z 100166f0 f i HUD.obj
 0001:00015720       ??_EEAltFireWeapon@@UAEPAXI@Z 10016720 f i HUD.obj
 0001:00015780       ?ClearToDefault@@YAXAAVEAltFireWeapon@@@Z 10016780 f i HUD.obj
 0001:000157a0       ??0EReleaseWeaponAlt@@QAE@ABV0@@Z 100167a0 f i HUD.obj
 0001:000157c0       ??4EReleaseWeaponAlt@@QAEAAV0@ABV0@@Z 100167c0 f i HUD.obj
 0001:000157e0       ??1EReleaseWeaponAlt@@UAE@XZ 100167e0 f i HUD.obj
 0001:000157f0       ??_GEReleaseWeaponAlt@@UAEPAXI@Z 100167f0 f i HUD.obj
 0001:00015820       ??_EEReleaseWeaponAlt@@UAEPAXI@Z 10016820 f i HUD.obj
 0001:00015880       ?ClearToDefault@@YAXAAVEReleaseWeaponAlt@@@Z 10016880 f i HUD.obj
 0001:000158a0       ?ClearToDefault@@YAXAAW4WeaponType@@@Z 100168a0 f i HUD.obj
 0001:000158b0       ?GetPredictionPair@CPlayerWeapons@@UAEPAVCEntity@@XZ 100168b0 f i HUD.obj
 0001:000158c0       ?SetPredictionPair@CPlayerWeapons@@UAEXPAVCEntity@@@Z 100168c0 f i HUD.obj
 0001:00015900       ??0CPlayerWeapons@@QAE@XZ  10016900 f i HUD.obj
 0001:000159a0       ??0CPlayerWeapons@@QAE@ABV0@@Z 100169a0 f i HUD.obj
 0001:00016070       ??4CPlayerWeapons@@QAEAAV0@AAV0@@Z 10017070 f i HUD.obj
 0001:00016740       ??1CPlayerWeapons@@UAE@XZ  10017740 f i HUD.obj
 0001:000168c0       ??_GCPlayerWeapons@@UAEPAXI@Z 100178c0 f i HUD.obj
 0001:000168f0       ??_ECPlayerWeapons@@UAEPAXI@Z 100178f0 f i HUD.obj
 0001:000176b0       ?SetAllPlayersStats@@YAJJ@Z 100186b0 f   HUD.obj
 0001:00017910       ?HUD_SetEntityForStackDisplay@@YAXPAVCRationalEntity@@@Z 10018910 f   HUD.obj
 0001:00017920       ?DrawHUD@@YAXPBVCPlayer@@PAVCDrawPort@@H0@Z 10018920 f   HUD.obj
 0001:0001bc20       ?InitHUD@@YAXXZ            1001cc20 f   HUD.obj
 0001:0001c920       ?EndHUD@@YAXXZ             1001d920 f   HUD.obj
 0001:0001c930       ?CopyArray@?$CStaticArray@J@@QAEXABV1@@Z 1001d930 f i HUD.obj
 0001:0001c9a0       ?New@?$CStaticArray@J@@QAEXJ@Z 1001d9a0 f i HUD.obj
 0001:0001c9d0       ?ClearToDefault@@YAXAAW4EnvironmentParticlesHolderType@@@Z 1001d9d0 f i Particles.obj
 0001:0001e2c0       ?InitParticleTables@@YAXXZ 1001f2c0 f   Particles.obj
 0001:0001e3b0       ?SnapFloat@@YAXAAMM@Z      1001f3b0 f   Particles.obj
 0001:0001e3f0       ?InitParticles@@YAXXZ      1001f3f0 f   Particles.obj
 0001:0001f6e0       ?CloseParticles@@YAXXZ     100206e0 f   Particles.obj
 0001:0001fa50       ?SetupParticleTexture@@YAXW4ParticleTexture@@@Z 10020a50 f   Particles.obj
 0001:0001fb50       ?SetupParticleTextureWithAddAlpha@@YAXW4ParticleTexture@@@Z 10020b50 f   Particles.obj
 0001:0001fc50       ?Particles_ViewerLocal@@YAXPAVCEntity@@@Z 10020c50 f   Particles.obj
 0001:0001ffd0       ?Particles_RomboidTrail@@YAXPAVCEntity@@@Z 10020fd0 f   Particles.obj
 0001:00020120       ?Particles_BombTrail_Prepare@@YAXPAVCEntity@@@Z 10021120 f   Particles.obj
 0001:00020130       ?Particles_BombTrail@@YAXPAVCEntity@@@Z 10021130 f   Particles.obj
 0001:00020370       ?Particles_FirecrackerTrail_Prepare@@YAXPAVCEntity@@@Z 10021370 f   Particles.obj
 0001:00020380       ?Particles_FirecrackerTrail@@YAXPAVCEntity@@@Z 10021380 f   Particles.obj
 0001:000205c0       ?Particles_SpiralTrail_Prepare@@YAXPAVCEntity@@@Z 100215c0 f   Particles.obj
 0001:000205d0       ?Particles_SpiralTrail@@YAXPAVCEntity@@@Z 100215d0 f   Particles.obj
 0001:00020700       ?Particles_ColoredStarsTrail@@YAXPAVCEntity@@@Z 10021700 f   Particles.obj
 0001:00020810       ?Particles_WhiteLineTrail@@YAXPAVCEntity@@@Z 10021810 f   Particles.obj
 0001:00020940       ?Particles_Fireball01Trail_Prepare@@YAXPAVCEntity@@@Z 10021940 f   Particles.obj
 0001:00020950       ?Particles_Fireball01Trail@@YAXPAVCEntity@@@Z 10021950 f   Particles.obj
 0001:00020b60       ?Particles_GrenadeTrail_Prepare@@YAXPAVCEntity@@@Z 10021b60 f   Particles.obj
 0001:00020b70       ?Particles_GrenadeTrail@@YAXPAVCEntity@@@Z 10021b70 f   Particles.obj
 0001:00020e10       ?Particles_CannonBall_Prepare@@YAXPAVCEntity@@@Z 10021e10 f   Particles.obj
 0001:00020e20       ?Particles_CannonBall@@YAXPAVCEntity@@M@Z 10021e20 f   Particles.obj
 0001:00020f50       ?Particles_LavaTrail_Prepare@@YAXPAVCEntity@@@Z 10021f50 f   Particles.obj
 0001:00020f60       ?Particles_LavaTrail@@YAXPAVCEntity@@@Z 10021f60 f   Particles.obj
 0001:000210f0       ?Particles_LavaBombTrail_Prepare@@YAXPAVCEntity@@@Z 100220f0 f   Particles.obj
 0001:00021100       ?Particles_LavaBombTrail@@YAXPAVCEntity@@M@Z 10022100 f   Particles.obj
 0001:000212f0       ?Particles_BeastProjectileDebrisTrail_Prepare@@YAXPAVCEntity@@@Z 100222f0 f   Particles.obj
 0001:00021300       ?Particles_BeastProjectileDebrisTrail@@YAXPAVCEntity@@M@Z 10022300 f   Particles.obj
 0001:00021490       ?Particles_BeastProjectileTrail_Prepare@@YAXPAVCEntity@@@Z 10022490 f   Particles.obj
 0001:000214a0       ?Particles_BeastProjectileTrail@@YAXPAVCEntity@@MMJ@Z 100224a0 f   Particles.obj
 0001:00021a20       ?Particles_BeastBigProjectileTrail_Prepare@@YAXPAVCEntity@@@Z 10022a20 f   Particles.obj
 0001:00021a30       ?Particles_BeastBigProjectileTrail@@YAXPAVCEntity@@MMMJ@Z 10022a30 f   Particles.obj
 0001:00022040       ?Particles_RocketTrail_Prepare@@YAXPAVCEntity@@@Z 10023040 f   Particles.obj
 0001:00022050       ?Particles_RocketTrail@@YAXPAVCEntity@@M@Z 10023050 f   Particles.obj
 0001:00022420       ?Particles_LaserBlueTrail_Prepare@@YAXPAVCEntity@@@Z 10023420 f   Particles.obj
 0001:00022430       ?Particles_LaserBlueTrail@@YAXPAVCEntity@@M@Z 10023430 f   Particles.obj
 0001:000226f0       ?Particles_ExplosionDebris1@@YAXPAVCEntity@@MV?$Vector@M$02@@K@Z 100236f0 f   Particles.obj
 0001:00022bb0       ?Particles_ExplosionDebris2@@YAXPAVCEntity@@MV?$Vector@M$02@@K@Z 10023bb0 f   Particles.obj
 0001:00023010       ?Particles_ExplosionDebris3@@YAXPAVCEntity@@MV?$Vector@M$02@@K@Z 10024010 f   Particles.obj
 0001:000237d0       ?Particles_ExplosionSmoke@@YAXPAVCEntity@@MV?$Vector@M$02@@K@Z 100247d0 f   Particles.obj
 0001:00023c80       ?Particles_ChimneySmoke@@YAXPAVCEntity@@JMM@Z 10024c80 f   Particles.obj
 0001:00024070       ?Particles_Waterfall@@YAXPAVCEntity@@JMMMMMMM@Z 10025070 f   Particles.obj
 0001:00024880       ?Particles_BloodTrail@@YAXPAVCEntity@@@Z 10025880 f   Particles.obj
 0001:00024af0       ?Particles_FireBreath@@YAJPAVCEntity@@V?$Vector@M$02@@1MM@Z 10025af0 f   Particles.obj
 0001:00024e70       ?Particles_Regeneration@@YAJPAVCEntity@@MMMH@Z 10025e70 f   Particles.obj
 0001:000256d0       ?Particles_FlameThrower@@YAXABVCPlacement3D@@0V?$Vector@M$02@@1MMJH@Z 100266d0 f   Particles.obj
 0001:000259b0       ?Particles_FlameThrowerStart@@YAXABVCPlacement3D@@MM@Z 100269b0 f   Particles.obj
 0001:00025d90       ?Particles_ShooterFlame@@YAXABVCPlacement3D@@0MM@Z 10026d90 f   Particles.obj
 0001:00025ff0       ?Particles_Stardust@@YAXPAVCEntity@@MMW4ParticleTexture@@J@Z 10026ff0 f   Particles.obj
 0001:00026240       ?Particles_Rising@@YAXPAVCEntity@@MMMMMMMW4ParticleTexture@@J@Z 10027240 f   Particles.obj
 0001:000265a0       ?Particles_Spiral@@YAXPAVCEntity@@MMW4ParticleTexture@@J@Z 100275a0 f   Particles.obj
 0001:00026810       ?Particles_Emanate@@YAXPAVCEntity@@MMW4ParticleTexture@@JM@Z 10027810 f   Particles.obj
 0001:00026b20       ?Particles_WaterfallFoam@@YAXPAVCEntity@@MMMMMMMJ@Z 10027b20 f   Particles.obj
 0001:00026ef0       ?Particles_EmanatePlane@@YAXPAVCEntity@@MMMMMMW4ParticleTexture@@JM@Z 10027ef0 f   Particles.obj
 0001:000272a0       ?Particles_Fountain@@YAXPAVCEntity@@MMW4ParticleTexture@@J@Z 100282a0 f   Particles.obj
 0001:00027600       ?Particles_DamageSmoke@@YAXPAVCEntity@@MV?$AABBox@M$02@@M@Z 10028600 f   Particles.obj
 0001:00027900       ?Particles_RunningDust_Prepare@@YAXPAVCEntity@@@Z 10028900 f   Particles.obj
 0001:00027910       ?Particles_RunningDust@@YAXPAVCEntity@@@Z 10028910 f   Particles.obj
 0001:00027ca0       ?Particles_DustFall@@YAXPAVCEntity@@MV?$Vector@M$02@@@Z 10028ca0 f   Particles.obj
 0001:00028280       ?Particles_MetalParts@@YAXPAVCEntity@@MV?$AABBox@M$02@@M@Z 10029280 f   Particles.obj
 0001:000285d0       ?Particles_ElectricitySparks@@YAXPAVCEntity@@MMMJ@Z 100295d0 f   Particles.obj
 0001:00028ad0       ?Particles_LavaErupting@@YAXPAVCEntity@@MMMMMM@Z 10029ad0 f   Particles.obj
 0001:00028c40       ?Particles_Atomic@@YAXPAVCEntity@@MMW4ParticleTexture@@J@Z 10029c40 f   Particles.obj
 0001:000290a0       ?Particles_PowerUpIndicator@@YAXPAVCEntity@@W4ParticleTexture@@MMMJJ@Z 1002a0a0 f   Particles.obj
 0001:00029530       ?Particles_Ghostbuster@@YAXABV?$Vector@M$02@@0JMMM@Z 1002a530 f   Particles.obj
 0001:00029970       ?UpdateGrowthCache@@YAHPAVCEntity@@PAVCTextureData@@AAV?$AABBox@M$02@@0J@Z 1002a970 f   Particles.obj
 0001:0002a3f0       ?Particles_Growth@@YAXPAVCEntity@@PAVCTextureData@@AAV?$AABBox@M$02@@0J@Z 1002b3f0 f   Particles.obj
 0001:0002a9d0       ?Particles_Rain@@YAXPAVCEntity@@MJMPAVCTextureData@@AAV?$AABBox@M$02@@@Z 1002b9d0 f   Particles.obj
 0001:0002adc0       ?Particles_Snow@@YAXPAVCEntity@@MJMPAVCTextureData@@AAV?$AABBox@M$02@@M@Z 1002bdc0 f   Particles.obj
 0001:0002b250       ?RenderOneLightningBranch@@YAXV?$Vector@M$02@@0MMMMJ@Z 1002c250 f   Particles.obj
 0001:0002b8c0       ?Particles_Lightning@@YAXV?$Vector@M$02@@0M@Z 1002c8c0 f   Particles.obj
 0001:0002b970       ?Particles_SandFlow@@YAXPAVCEntity@@MMMMMJ@Z 1002c970 f   Particles.obj
 0001:0002bd60       ?Particles_WaterFlow@@YAXPAVCEntity@@MMMMMJ@Z 1002cd60 f   Particles.obj
 0001:0002c150       ?Particles_LavaFlow@@YAXPAVCEntity@@MMMMMJ@Z 1002d150 f   Particles.obj
 0001:0002c550       ?Particles_BulletSpray@@YAXJV?$Vector@M$02@@0W4EffectParticlesType@@M0M@Z 1002d550 f   Particles.obj
 0001:0002ce10       ?MakeBaseFromVector@@YAXABV?$Vector@M$02@@AAV1@1@Z 1002de10 f   Particles.obj
 0001:0002cf50       ?Particles_EmptyShells@@YAXPAVCEntity@@PAUShellLaunchData@@@Z 1002df50 f   Particles.obj
 0001:0002e040       ?Particles_Death@@YAXPAVCEntity@@M@Z 1002f040 f   Particles.obj
 0001:0002e520       ?Particles_Burning@@YAXPAVCEntity@@MM@Z 1002f520 f   Particles.obj
 0001:0002e8a0       ?Particles_Burning_Comp@@YAXPAVCModelObject@@MVCPlacement3D@@@Z 1002f8a0 f   Particles.obj
 0001:0002eb80       ?Particles_BrushBurning@@YAXPAVCEntity@@QAV?$Vector@M$02@@JV2@MM@Z 1002fb80 f   Particles.obj
 0001:0002f140       ?Particles_Appearing@@YAXPAVCEntity@@M@Z 10030140 f   Particles.obj
 0001:0002f320       ?Particles_BloodSpray@@YAXW4SprayParticlesType@@V?$Vector@M$02@@1MV?$AABBox@M$02@@1MMK@Z 10030320 f   Particles.obj
 0001:000301b0       ?Particles_DestroyingObelisk@@YAXPAVCEntity@@M@Z 100311b0 f   Particles.obj
 0001:00030560       ?Particles_DestroyingPylon@@YAXPAVCEntity@@V?$Vector@M$02@@M@Z 10031560 f   Particles.obj
 0001:00030a40       ?Particles_HitGround@@YAXPAVCEntity@@MM@Z 10031a40 f   Particles.obj
 0001:00030e00       ?Particles_AfterBurner_Prepare@@YAXPAVCEntity@@@Z 10031e00 f   Particles.obj
 0001:00030e10       ?Particles_AfterBurner@@YAXPAVCEntity@@MMJ@Z 10031e10 f   Particles.obj
 0001:00031a40       ?Particles_RocketMotorBurning@@YAXPAVCEntity@@MV?$Vector@M$02@@MM@Z 10032a40 f   Particles.obj
 0001:000323c0       ?Particles_SummonerProjectileExplode@@YAXPAVCEntity@@MMMM@Z 100333c0 f   Particles.obj
 0001:00032620       ?Particles_SummonerExplode@@YAXPAVCEntity@@V?$Vector@M$02@@MMMM@Z 10033620 f   Particles.obj
 0001:00032800       ?Particles_Twister@@YAXPAVCEntity@@MMMM@Z 10033800 f   Particles.obj
 0001:000331f0       ?Particles_ExotechLarvaLaser@@YAXPAVCEntity@@V?$Vector@M$02@@1@Z 100341f0 f   Particles.obj
 0001:000333a0       ?Particles_Smoke@@YAXPAVCEntity@@V?$Vector@M$02@@JMMMM@Z 100343a0 f   Particles.obj
 0001:00033780       ?Particles_Windblast@@YAXPAVCEntity@@MM@Z 10034780 f   Particles.obj
 0001:000340a0       ?Particles_CollectEnergy@@YAXPAVCEntity@@MM@Z 100350a0 f   Particles.obj
 0001:00034930       ?Particles_SummonerDisappear@@YAXPAVCEntity@@M@Z 10035930 f   Particles.obj
 0001:00035060       ?Particles_DisappearDust@@YAXPAVCEntity@@MM@Z 10036060 f   Particles.obj
 0001:00035070       ?Particles_GrowingSwirl@@YAXPAVCEntity@@MM@Z 10036070 f   Particles.obj
 0001:000354e0       ?Particles_SniperResidue@@YAXPAVCEntity@@V?$Vector@M$02@@1@Z 100364e0 f   Particles.obj
 0001:00035680       ?Particles_SummonerStaff@@YAXAAVCEmiter@@@Z 10036680 f   Particles.obj
 0001:000358c0       ?Particles_AirElementalBlow@@YAXAAVCEmiter@@@Z 100368c0 f   Particles.obj
 0001:00035bb0       ?Particles_AirElemental@@YAXPAVCEntity@@MMMK@Z 10036bb0 f   Particles.obj
 0001:00035f10       ?Particles_MeteorTrail@@YAXPAVCEntity@@MMV?$Vector@M$02@@@Z 10036f10 f   Particles.obj
 0001:000360c0       ?Particles_Leaves@@YAXPAVCEntity@@V?$AABBox@M$02@@V?$Vector@M$02@@MM2MMK@Z 100370c0 f   Particles.obj
 0001:00036760       ?Particles_LarvaEnergy@@YAXPAVCEntity@@V?$Vector@M$02@@@Z 10037760 f   Particles.obj
 0001:00036ff0       ?Particles_AirElemental_Comp@@YAXPAVCModelObject@@MMVCPlacement3D@@@Z 10037ff0 f   Particles.obj
 0001:000372e0       ?Particles_ModelGlow@@YAXPAVCEntity@@MW4ParticleTexture@@MMMK@Z 100382e0 f   Particles.obj
 0001:00037450       ?Particles_ModelGlow2@@YAXPAVCModelObject@@VCPlacement3D@@MW4ParticleTexture@@MMMK@Z 10038450 f   Particles.obj
 0001:000375c0       ?Particles_RunAfterBurner@@YAXPAVCEntity@@MMJ@Z 100385c0 f   Particles.obj
 0001:00038160       ?Particles_Fireworks01@@YAXAAVCEmiter@@@Z 10039160 f   Particles.obj
 0001:000383a0       ??1CGrowthCache@@QAE@XZ    100393a0 f i Particles.obj
 0001:00038420       ?Clamp@@YAMMMM@Z           10039420 f i Particles.obj
 0001:00038450       ??0?$CStaticStackArray@VCGrowth@@@@QAE@XZ 10039450 f i Particles.obj
 0001:00038470       ??1?$CStaticStackArray@VCGrowth@@@@QAE@XZ 10039470 f i Particles.obj
 0001:000384a0       ??0?$CStaticStackArray@V?$Vector@M$02@@@@QAE@XZ 100394a0 f i Particles.obj
 0001:000384c0       ??1?$CStaticStackArray@V?$Vector@M$02@@@@QAE@XZ 100394c0 f i Particles.obj
 0001:000384f0       ?SetToNormalizedEmpty@?$AABBox@M$02@@QAEXXZ 100394f0 f i Particles.obj
 0001:00038510       ?Expand@?$CStaticArray@VCGrowth@@@@QAEXJ@Z 10039510 f i Particles.obj
 0001:000385d0       ??0CPathNode@@QAE@ABV0@@Z  100395d0 f i PathFinding.obj
 0001:00038610       ??4CPathNode@@QAEAAV0@ABV0@@Z 10039610 f i PathFinding.obj
 0001:00038650       ?GetName@CNavigationMarker@@UBEABVCTString@@XZ 10039650 f i PathFinding.obj
 0001:00038660       ?IsTargetable@CNavigationMarker@@UBEHXZ 10039660 f i PathFinding.obj
 0001:00038670       ??0CNavigationMarker@@QAE@ABV0@@Z 10039670 f i PathFinding.obj
 0001:00038830       ??4CNavigationMarker@@QAEAAV0@AAV0@@Z 10039830 f i PathFinding.obj
 0001:000389c0       ??_GCNavigationMarker@@UAEPAXI@Z 100399c0 f i PathFinding.obj
 0001:000389f0       ??_ECNavigationMarker@@UAEPAXI@Z 100399f0 f i PathFinding.obj
 0001:00038a90       ?NodeDistance@@YAMPAVCPathNode@@0@Z 10039a90 f   PathFinding.obj
 0001:00038af0       ??0CPathNode@@QAE@PAVCNavigationMarker@@@Z 10039af0 f   PathFinding.obj
 0001:00038b20       ??1CPathNode@@QAE@XZ       10039b20 f   PathFinding.obj
 0001:00038ba0       ?GetName@CPathNode@@QAEABVCTString@@XZ 10039ba0 f   PathFinding.obj
 0001:00038c00       ?GetLink@CPathNode@@QAEPAV1@J@Z 10039c00 f   PathFinding.obj
 0001:00038c30       ?PATH_FindFirstMarker@@YAXPAVCEntity@@ABV?$Vector@M$02@@1AAPAV1@AAV2@@Z 10039c30 f   PathFinding.obj
 0001:00038de0       ?PATH_FindNextMarker@@YAXPAVCEntity@@ABV?$Vector@M$02@@1AAPAV1@AAV2@@Z 10039de0 f   PathFinding.obj
 0001:00039110       ??0EStop@@QAE@ABV0@@Z      1003a110 f i StdH.obj
 0001:00039130       ??4EStop@@QAEAAV0@ABV0@@Z  1003a130 f i StdH.obj
 0001:00039150       ?ClearToDefault@@YAXAAVEStop@@@Z 1003a150 f i StdH.obj
 0001:00039170       ??0EStart@@QAE@ABV0@@Z     1003a170 f i StdH.obj
 0001:000391a0       ??4EStart@@QAEAAV0@ABV0@@Z 1003a1a0 f i StdH.obj
 0001:000391e0       ?ClearToDefault@@YAXAAVEStart@@@Z 1003a1e0 f i StdH.obj
 0001:00039280       ??0EActivate@@QAE@ABV0@@Z  1003a280 f i StdH.obj
 0001:000392a0       ??4EActivate@@QAEAAV0@ABV0@@Z 1003a2a0 f i StdH.obj
 0001:000392c0       ?ClearToDefault@@YAXAAVEActivate@@@Z 1003a2c0 f i StdH.obj
 0001:000392e0       ??0EDeactivate@@QAE@ABV0@@Z 1003a2e0 f i StdH.obj
 0001:00039300       ??4EDeactivate@@QAEAAV0@ABV0@@Z 1003a300 f i StdH.obj
 0001:00039320       ?ClearToDefault@@YAXAAVEDeactivate@@@Z 1003a320 f i StdH.obj
 0001:00039340       ??0EEnvironmentStart@@QAE@ABV0@@Z 1003a340 f i StdH.obj
 0001:00039360       ??4EEnvironmentStart@@QAEAAV0@ABV0@@Z 1003a360 f i StdH.obj
 0001:00039380       ?ClearToDefault@@YAXAAVEEnvironmentStart@@@Z 1003a380 f i StdH.obj
 0001:000393a0       ??0EEnvironmentStop@@QAE@ABV0@@Z 1003a3a0 f i StdH.obj
 0001:000393c0       ??4EEnvironmentStop@@QAEAAV0@ABV0@@Z 1003a3c0 f i StdH.obj
 0001:000393e0       ?ClearToDefault@@YAXAAVEEnvironmentStop@@@Z 1003a3e0 f i StdH.obj
 0001:00039400       ??0EEnd@@QAE@ABV0@@Z       1003a400 f i StdH.obj
 0001:00039420       ??4EEnd@@QAEAAV0@ABV0@@Z   1003a420 f i StdH.obj
 0001:00039440       ?ClearToDefault@@YAXAAVEEnd@@@Z 1003a440 f i StdH.obj
 0001:00039460       ??0ETrigger@@QAE@ABV0@@Z   1003a460 f i StdH.obj
 0001:00039490       ??4ETrigger@@QAEAAV0@ABV0@@Z 1003a490 f i StdH.obj
 0001:000394d0       ?ClearToDefault@@YAXAAVETrigger@@@Z 1003a4d0 f i StdH.obj
 0001:00039570       ??0ETeleportMovingBrush@@QAE@ABV0@@Z 1003a570 f i StdH.obj
 0001:00039590       ??4ETeleportMovingBrush@@QAEAAV0@ABV0@@Z 1003a590 f i StdH.obj
 0001:000395b0       ?ClearToDefault@@YAXAAVETeleportMovingBrush@@@Z 1003a5b0 f i StdH.obj
 0001:000395d0       ??0EReminder@@QAE@ABV0@@Z  1003a5d0 f i StdH.obj
 0001:00039600       ??4EReminder@@QAEAAV0@ABV0@@Z 1003a600 f i StdH.obj
 0001:00039620       ?ClearToDefault@@YAXAAVEReminder@@@Z 1003a620 f i StdH.obj
 0001:00039650       ??0EStartAttack@@QAE@ABV0@@Z 1003a650 f i StdH.obj
 0001:00039670       ??4EStartAttack@@QAEAAV0@ABV0@@Z 1003a670 f i StdH.obj
 0001:00039690       ?ClearToDefault@@YAXAAVEStartAttack@@@Z 1003a690 f i StdH.obj
 0001:000396b0       ??0EStopAttack@@QAE@ABV0@@Z 1003a6b0 f i StdH.obj
 0001:000396d0       ??4EStopAttack@@QAEAAV0@ABV0@@Z 1003a6d0 f i StdH.obj
 0001:000396f0       ?ClearToDefault@@YAXAAVEStopAttack@@@Z 1003a6f0 f i StdH.obj
 0001:00039710       ??0EStopBlindness@@QAE@ABV0@@Z 1003a710 f i StdH.obj
 0001:00039730       ??4EStopBlindness@@QAEAAV0@ABV0@@Z 1003a730 f i StdH.obj
 0001:00039750       ?ClearToDefault@@YAXAAVEStopBlindness@@@Z 1003a750 f i StdH.obj
 0001:00039770       ??0EStopDeafness@@QAE@ABV0@@Z 1003a770 f i StdH.obj
 0001:00039790       ??4EStopDeafness@@QAEAAV0@ABV0@@Z 1003a790 f i StdH.obj
 0001:000397b0       ?ClearToDefault@@YAXAAVEStopDeafness@@@Z 1003a7b0 f i StdH.obj
 0001:000397d0       ??0EReceiveScore@@QAE@ABV0@@Z 1003a7d0 f i StdH.obj
 0001:00039800       ??4EReceiveScore@@QAEAAV0@ABV0@@Z 1003a800 f i StdH.obj
 0001:00039820       ?ClearToDefault@@YAXAAVEReceiveScore@@@Z 1003a820 f i StdH.obj
 0001:00039850       ??0EKilledEnemy@@QAE@ABV0@@Z 1003a850 f i StdH.obj
 0001:00039870       ??4EKilledEnemy@@QAEAAV0@ABV0@@Z 1003a870 f i StdH.obj
 0001:00039890       ?ClearToDefault@@YAXAAVEKilledEnemy@@@Z 1003a890 f i StdH.obj
 0001:000398b0       ??0ESecretFound@@QAE@ABV0@@Z 1003a8b0 f i StdH.obj
 0001:000398d0       ??4ESecretFound@@QAEAAV0@ABV0@@Z 1003a8d0 f i StdH.obj
 0001:000398f0       ?ClearToDefault@@YAXAAVESecretFound@@@Z 1003a8f0 f i StdH.obj
 0001:00039910       ?ClearToDefault@@YAXAAW4BoolEType@@@Z 1003a910 f i StdH.obj
 0001:00039920       ?ClearToDefault@@YAXAAW4EventEType@@@Z 1003a920 f i StdH.obj
 0001:00039930       ?ClearToDefault@@YAXAAW4EntityInfoBodyType@@@Z 1003a930 f i StdH.obj
 0001:00039940       ?ClearToDefault@@YAXAAW4MessageSound@@@Z 1003a940 f i StdH.obj
 0001:00039950       ?ClearToDefault@@YAXAAW4ParticleTexture@@@Z 1003a950 f i StdH.obj
 0001:00039960       ?ClearToDefault@@YAXAAW4SoundType@@@Z 1003a960 f i StdH.obj
 0001:00039970       ?ClearToDefault@@YAXAAW4BulletHitType@@@Z 1003a970 f i StdH.obj
 0001:00039980       ?ClearToDefault@@YAXAAW4EffectParticlesType@@@Z 1003a980 f i StdH.obj
 0001:00039990       ?ClearToDefault@@YAXAAW4SprayParticlesType@@@Z 1003a990 f i StdH.obj
 0001:000399a0       ?ClearToDefault@@YAXAAW4WeaponBits@@@Z 1003a9a0 f i StdH.obj
 0001:000399b0       ?ClearToDefault@@YAXAAW4ClasificationBits@@@Z 1003a9b0 f i StdH.obj
 0001:000399c0       ?ClearToDefault@@YAXAAW4VisibilityBits@@@Z 1003a9c0 f i StdH.obj
 0001:000399d0       ??0ESound@@QAE@ABV0@@Z     1003a9d0 f i StdH.obj
 0001:00039a10       ??4ESound@@QAEAAV0@ABV0@@Z 1003aa10 f i StdH.obj
 0001:00039a60       ?ClearToDefault@@YAXAAVESound@@@Z 1003aa60 f i StdH.obj
 0001:00039b00       ??0EScroll@@QAE@ABV0@@Z    1003ab00 f i StdH.obj
 0001:00039b40       ??4EScroll@@QAEAAV0@ABV0@@Z 1003ab40 f i StdH.obj
 0001:00039b90       ?ClearToDefault@@YAXAAVEScroll@@@Z 1003ab90 f i StdH.obj
 0001:00039c30       ??0ETextFX@@QAE@ABV0@@Z    1003ac30 f i StdH.obj
 0001:00039c70       ??4ETextFX@@QAEAAV0@ABV0@@Z 1003ac70 f i StdH.obj
 0001:00039cc0       ?ClearToDefault@@YAXAAVETextFX@@@Z 1003acc0 f i StdH.obj
 0001:00039d60       ??0EHudPicFX@@QAE@ABV0@@Z  1003ad60 f i StdH.obj
 0001:00039da0       ??4EHudPicFX@@QAEAAV0@ABV0@@Z 1003ada0 f i StdH.obj
 0001:00039df0       ?ClearToDefault@@YAXAAVEHudPicFX@@@Z 1003adf0 f i StdH.obj
 0001:00039e90       ??0ECredits@@QAE@ABV0@@Z   1003ae90 f i StdH.obj
 0001:00039ed0       ??4ECredits@@QAEAAV0@ABV0@@Z 1003aed0 f i StdH.obj
 0001:00039f20       ?ClearToDefault@@YAXAAVECredits@@@Z 1003af20 f i StdH.obj
 0001:00039fc0       ??0ECenterMessage@@QAE@ABV0@@Z 1003afc0 f i StdH.obj
 0001:0003a030       ??4ECenterMessage@@QAEAAV0@ABV0@@Z 1003b030 f i StdH.obj
 0001:0003a080       ?ClearToDefault@@YAXAAVECenterMessage@@@Z 1003b080 f i StdH.obj
 0001:0003a110       ??0EComputerMessage@@QAE@ABV0@@Z 1003b110 f i StdH.obj
 0001:0003a180       ??4EComputerMessage@@QAEAAV0@ABV0@@Z 1003b180 f i StdH.obj
 0001:0003a1c0       ?ClearToDefault@@YAXAAVEComputerMessage@@@Z 1003b1c0 f i StdH.obj
 0001:0003a240       ??0EVoiceMessage@@QAE@ABV0@@Z 1003b240 f i StdH.obj
 0001:0003a2b0       ??4EVoiceMessage@@QAEAAV0@ABV0@@Z 1003b2b0 f i StdH.obj
 0001:0003a2f0       ?ClearToDefault@@YAXAAVEVoiceMessage@@@Z 1003b2f0 f i StdH.obj
 0001:0003a370       ??0EHitBySpaceShipBeam@@QAE@ABV0@@Z 1003b370 f i StdH.obj
 0001:0003a390       ??4EHitBySpaceShipBeam@@QAEAAV0@ABV0@@Z 1003b390 f i StdH.obj
 0001:0003a3b0       ?ClearToDefault@@YAXAAVEHitBySpaceShipBeam@@@Z 1003b3b0 f i StdH.obj
 0001:0003a3d0       ??0PlayerStats@@QAE@XZ     1003b3d0 f i StdH.obj
 0001:0003a3f0       ??4PlayerStats@@QAEAAU0@ABU0@@Z 1003b3f0 f i StdH.obj
 0001:0003a410       ?GetSP@@YAPBVCSessionProperties@@XZ 1003b410 f i StdH.obj
 0001:0003a420       ?DistanceTo@@YAMPAVCEntity@@0@Z 1003b420 f i StdH.obj
 0001:0003a470       ??4CEmittedParticle@@QAEAAV0@ABV0@@Z 1003b470 f i StdH.obj
 0001:0003a490       ??4CEmiter@@QAEAAV0@ABV0@@Z 1003b490 f i StdH.obj
 0001:0003a540       ?New@?$CStaticArray@VCEmittedParticle@@@@QAEXJ@Z 1003b540 f i StdH.obj
 0001:0003a5d0       ??1CEmiter@@QAE@XZ         1003b5d0 f i StdH.obj
 0001:0003a600       ??0CCompMessageID@@QAE@ABV0@@Z 1003b600 f i StdH.obj
 0001:0003a640       ??4CCompMessageID@@QAEAAV0@ABV0@@Z 1003b640 f i StdH.obj
 0001:0003a690       ?ClearToDefault@@YAXAAW4ElementalType@@@Z 1003b690 f i AirElemental.obj
 0001:0003a6a0       ?ClearToDefault@@YAXAAW4ElementalCharacter@@@Z 1003b6a0 f i AirElemental.obj
 0001:0003a6b0       ?ClearToDefault@@YAXAAW4ElementalState@@@Z 1003b6b0 f i AirElemental.obj
 0001:0003a6c0       ??0ESpinnerInit@@QAE@ABV0@@Z 1003b6c0 f i AirElemental.obj
 0001:0003a730       ??4ESpinnerInit@@QAEAAV0@ABV0@@Z 1003b730 f i AirElemental.obj
 0001:0003a7d0       ??1ESpinnerInit@@UAE@XZ    1003b7d0 f i AirElemental.obj
 0001:0003a870       ??_GESpinnerInit@@UAEPAXI@Z 1003b870 f i AirElemental.obj
 0001:0003a8a0       ??_EESpinnerInit@@UAEPAXI@Z 1003b8a0 f i AirElemental.obj
 0001:0003a900       ?ClearToDefault@@YAXAAVESpinnerInit@@@Z 1003b900 f i AirElemental.obj
 0001:0003aa10       ??0CSpinner@@QAE@XZ        1003ba10 f i AirElemental.obj
 0001:0003aa30       ??0CSpinner@@QAE@ABV0@@Z   1003ba30 f i AirElemental.obj
 0001:0003ab60       ??4CSpinner@@QAEAAV0@AAV0@@Z 1003bb60 f i AirElemental.obj
 0001:0003acd0       ??1CSpinner@@UAE@XZ        1003bcd0 f i AirElemental.obj
 0001:0003ad80       ??_GCSpinner@@UAEPAXI@Z    1003bd80 f i AirElemental.obj
 0001:0003adb0       ??_ECSpinner@@UAEPAXI@Z    1003bdb0 f i AirElemental.obj
 0001:0003ae10       ??0ETwister@@QAE@ABV0@@Z   1003be10 f i AirElemental.obj
 0001:0003ae70       ??4ETwister@@QAEAAV0@ABV0@@Z 1003be70 f i AirElemental.obj
 0001:0003aed0       ??1ETwister@@UAE@XZ        1003bed0 f i AirElemental.obj
 0001:0003af60       ??_GETwister@@UAEPAXI@Z    1003bf60 f i AirElemental.obj
 0001:0003af90       ??_EETwister@@UAEPAXI@Z    1003bf90 f i AirElemental.obj
 0001:0003aff0       ?ClearToDefault@@YAXAAVETwister@@@Z 1003bff0 f i AirElemental.obj
 0001:0003b0b0       ??0EElementalGrow@@QAE@ABV0@@Z 1003c0b0 f i AirElemental.obj
 0001:0003b0d0       ??4EElementalGrow@@QAEAAV0@ABV0@@Z 1003c0d0 f i AirElemental.obj
 0001:0003b0f0       ??1EElementalGrow@@UAE@XZ  1003c0f0 f i AirElemental.obj
 0001:0003b100       ??_GEElementalGrow@@UAEPAXI@Z 1003c100 f i AirElemental.obj
 0001:0003b130       ??_EEElementalGrow@@UAEPAXI@Z 1003c130 f i AirElemental.obj
 0001:0003b190       ?ClearToDefault@@YAXAAVEElementalGrow@@@Z 1003c190 f i AirElemental.obj
 0001:0003ba70       ?CAirElemental_New@@YAPAVCEntity@@XZ 1003ca70 f   AirElemental.obj
 0001:0003bb50       ?CAirElemental_OnInitClass@@YAXXZ 1003cb50 f   AirElemental.obj
 0001:0003bb60       ?CAirElemental_OnEndClass@@YAXXZ 1003cb60 f   AirElemental.obj
 0001:0003bb70       ?CAirElemental_OnPrecache@@YAXPAVCDLLEntityClass@@J@Z 1003cb70 f   AirElemental.obj
 0001:0003bb80       ?CAirElemental_OnWorldEnd@@YAXPAVCWorld@@@Z 1003cb80 f   AirElemental.obj
 0001:0003bb90       ?CAirElemental_OnWorldInit@@YAXPAVCWorld@@@Z 1003cb90 f   AirElemental.obj
 0001:0003bba0       ?CAirElemental_OnWorldTick@@YAXPAVCWorld@@@Z 1003cba0 f   AirElemental.obj
 0001:0003bbb0       ?CAirElemental_OnWorldRender@@YAXPAVCWorld@@@Z 1003cbb0 f   AirElemental.obj
 0001:0003bc10       ?MakeCopy@EElementalGrow@@UAEPAVCEntityEvent@@XZ 1003cc10 f   AirElemental.obj
 0001:0003bc40       ??0EElementalGrow@@QAE@XZ  1003cc40 f   AirElemental.obj
 0001:0003bc50       ?SetDefaultProperties@CAirElemental@@UAEXXZ 1003cc50 f   AirElemental.obj
 0001:0003be70       ?Read_t@CAirElemental@@UAEXPAVCTStream@@@Z 1003ce70 f   AirElemental.obj
 0001:0003bea0       ?Write_t@CAirElemental@@UAEXPAVCTStream@@@Z 1003cea0 f   AirElemental.obj
 0001:0003bed0       ?GetPlayerKillDescription@CAirElemental@@UAE?AVCTString@@ABV2@ABVEDeath@@@Z 1003ced0 f   AirElemental.obj
 0001:0003bf70       ?GetComputerMessageName@CAirElemental@@UBEABVCTFileName@@XZ 1003cf70 f   AirElemental.obj
 0001:0003bfc0       ?Precache@CAirElemental@@UAEXXZ 1003cfc0 f   AirElemental.obj
 0001:0003c050       ?GetEntityInfo@CAirElemental@@UAEPAXXZ 1003d050 f   AirElemental.obj
 0001:0003c060       ?ElementalModel@CAirElemental@@QAEPAVCModelObject@@XZ 1003d060 f   AirElemental.obj
 0001:0003c070       ?ReceiveDamage@CAirElemental@@UAEXPAVCEntity@@W4DamageType@@MABV?$Vector@M$02@@2@Z 1003d070 f   AirElemental.obj
 0001:0003c310       ?AnimForDamage@CAirElemental@@UAEJM@Z 1003d310 f   AirElemental.obj
 0001:0003c330       ?StandingAnimFight@CAirElemental@@UAEXXZ 1003d330 f   AirElemental.obj
 0001:0003c350       ?StandingAnim@CAirElemental@@UAEXXZ 1003d350 f   AirElemental.obj
 0001:0003c370       ?WalkingAnim@CAirElemental@@UAEXXZ 1003d370 f   AirElemental.obj
 0001:0003c390       ?RunningAnim@CAirElemental@@UAEXXZ 1003d390 f   AirElemental.obj
 0001:0003c3a0       ?RotatingAnim@CAirElemental@@UAEXXZ 1003d3a0 f   AirElemental.obj
 0001:0003c3b0       ?AnimForDeath@CAirElemental@@UAEJXZ 1003d3b0 f   AirElemental.obj
 0001:0003c3d0       ?IdleSound@CAirElemental@@UAEXXZ 1003d3d0 f   AirElemental.obj
 0001:0003c3e0       ?WoundSound@CAirElemental@@UAEXXZ 1003d3e0 f   AirElemental.obj
 0001:0003c3f0       ?SizeModel@CAirElemental@@UAEXXZ 1003d3f0 f   AirElemental.obj
 0001:0003c400       ?AdjustShadingParameters@CAirElemental@@UAEHAAV?$Vector@M$02@@AAK1@Z 1003d400 f   AirElemental.obj
 0001:0003c420       ?BlowUp@CAirElemental@@UAEXXZ 1003d420 f   AirElemental.obj
 0001:0003c430       ?EnemyPostInit@CAirElemental@@UAEXXZ 1003d430 f   AirElemental.obj
 0001:0003c4a0       ?LaunchTwister@CAirElemental@@QAEXV?$Vector@M$02@@@Z 1003d4a0 f   AirElemental.obj
 0001:0003c7e0       ?PreMoving@CAirElemental@@UAEXXZ 1003d7e0 f   AirElemental.obj
 0001:0003c7f0       ?GetAirElementalAttachmentData@CAirElemental@@QAEXJAAV?$Matrix@M$02$02@@AAV?$Vector@M$02@@@Z 1003d7f0 f   AirElemental.obj
 0001:0003c910       ?GetCurrentStretchRatio@CAirElemental@@QAEMXZ 1003d910 f   AirElemental.obj
 0001:0003c940       ?RenderParticles@CAirElemental@@UAEXXZ 1003d940 f   AirElemental.obj
 0001:0003ca60       ?Die@CAirElemental@@QAEHABVCEntityEvent@@@Z 1003da60 f   AirElemental.obj
 0001:0003cb60       ?H0x015b0002_Die_01@CAirElemental@@QAEHABVCEntityEvent@@@Z 1003db60 f   AirElemental.obj
 0001:0003cbe0       ?H0x015b0003_Die_02@CAirElemental@@QAEHABVCEntityEvent@@@Z 1003dbe0 f   AirElemental.obj
 0001:0003cc70       ?H0x015b0004_Die_03@CAirElemental@@QAEHABVCEntityEvent@@@Z 1003dc70 f   AirElemental.obj
 0001:0003ccf0       ?H0x015b0005_Die_04@CAirElemental@@QAEHABVCEntityEvent@@@Z 1003dcf0 f   AirElemental.obj
 0001:0003cdb0       ?Fire@CAirElemental@@QAEHABVCEntityEvent@@@Z 1003ddb0 f   AirElemental.obj
 0001:0003ce80       ?H0x015b0007_Fire_01@CAirElemental@@QAEHABVCEntityEvent@@@Z 1003de80 f   AirElemental.obj
 0001:0003cf00       ?H0x015b0008_Fire_02@CAirElemental@@QAEHABVCEntityEvent@@@Z 1003df00 f   AirElemental.obj
 0001:0003cf60       ?H0x015b000b_Fire_05@CAirElemental@@QAEHABVCEntityEvent@@@Z 1003df60 f   AirElemental.obj
 0001:0003d180       ?H0x015b0009_Fire_03@CAirElemental@@QAEHABVCEntityEvent@@@Z 1003e180 f   AirElemental.obj
 0001:0003d200       ?H0x015b000a_Fire_04@CAirElemental@@QAEHABVCEntityEvent@@@Z 1003e200 f   AirElemental.obj
 0001:0003d260       ?H0x015b000c_Fire_06@CAirElemental@@QAEHABVCEntityEvent@@@Z 1003e260 f   AirElemental.obj
 0001:0003d350       ?H0x015b000d_Fire_07@CAirElemental@@QAEHABVCEntityEvent@@@Z 1003e350 f   AirElemental.obj
 0001:0003d3d0       ?H0x015b000e_Fire_08@CAirElemental@@QAEHABVCEntityEvent@@@Z 1003e3d0 f   AirElemental.obj
 0001:0003d450       ?H0x015b000f_Fire_09@CAirElemental@@QAEHABVCEntityEvent@@@Z 1003e450 f   AirElemental.obj
 0001:0003d4d0       ?H0x015b0010_Fire_10@CAirElemental@@QAEHABVCEntityEvent@@@Z 1003e4d0 f   AirElemental.obj
 0001:0003d530       ?H0x015b0011_Fire_11@CAirElemental@@QAEHABVCEntityEvent@@@Z 1003e530 f   AirElemental.obj
 0001:0003d5c0       ?H0x015b0012_Fire_12@CAirElemental@@QAEHABVCEntityEvent@@@Z 1003e5c0 f   AirElemental.obj
 0001:0003d640       ?H0x015b0013_Fire_13@CAirElemental@@QAEHABVCEntityEvent@@@Z 1003e640 f   AirElemental.obj
 0001:0003db30       ?H0x015b0014_Fire_14@CAirElemental@@QAEHABVCEntityEvent@@@Z 1003eb30 f   AirElemental.obj
 0001:0003dbb0       ?H0x015b0015_Fire_15@CAirElemental@@QAEHABVCEntityEvent@@@Z 1003ebb0 f   AirElemental.obj
 0001:0003dc30       ?H0x015b0016_Fire_16@CAirElemental@@QAEHABVCEntityEvent@@@Z 1003ec30 f   AirElemental.obj
 0001:0003dcb0       ?H0x015b0017_Fire_17@CAirElemental@@QAEHABVCEntityEvent@@@Z 1003ecb0 f   AirElemental.obj
 0001:0003dd10       ?Hit@CAirElemental@@QAEHABVCEntityEvent@@@Z 1003ed10 f   AirElemental.obj
 0001:0003dd70       ?Death@CAirElemental@@QAEHABVCEntityEvent@@@Z 1003ed70 f   AirElemental.obj
 0001:0003de00       ?H0x015b001a_Death_01@CAirElemental@@QAEHABVCEntityEvent@@@Z 1003ee00 f   AirElemental.obj
 0001:0003de80       ?H0x015b001b_Death_02@CAirElemental@@QAEHABVCEntityEvent@@@Z 1003ee80 f   AirElemental.obj
 0001:0003dee0       ?H0x015b001c_Death_03@CAirElemental@@QAEHABVCEntityEvent@@@Z 1003eee0 f   AirElemental.obj
 0001:0003df80       ?H0x015b001d_Death_04@CAirElemental@@QAEHABVCEntityEvent@@@Z 1003ef80 f   AirElemental.obj
 0001:0003dfe0       ?Grow@CAirElemental@@QAEHABVCEntityEvent@@@Z 1003efe0 f   AirElemental.obj
 0001:0003e0a0       ?H0x015b0021_Grow_03@CAirElemental@@QAEHABVCEntityEvent@@@Z 1003f0a0 f   AirElemental.obj
 0001:0003e2b0       ?H0x015b001f_Grow_01@CAirElemental@@QAEHABVCEntityEvent@@@Z 1003f2b0 f   AirElemental.obj
 0001:0003e330       ?H0x015b0020_Grow_02@CAirElemental@@QAEHABVCEntityEvent@@@Z 1003f330 f   AirElemental.obj
 0001:0003e390       ?H0x015b0022_Grow_04@CAirElemental@@QAEHABVCEntityEvent@@@Z 1003f390 f   AirElemental.obj
 0001:0003e430       ?ElementalLoop@CAirElemental@@QAEHABVCEntityEvent@@@Z 1003f430 f   AirElemental.obj
 0001:0003e4a0       ?H0x015b0024_ElementalLoop_01@CAirElemental@@QAEHABVCEntityEvent@@@Z 1003f4a0 f   AirElemental.obj
 0001:0003e530       ?H0x015b0025_ElementalLoop_02@CAirElemental@@QAEHABVCEntityEvent@@@Z 1003f530 f   AirElemental.obj
 0001:0003e540       ?Main@CAirElemental@@QAEHABVCEntityEvent@@@Z 1003f540 f   AirElemental.obj
 0001:0003e770       ?H0x015b0026_Main_01@CAirElemental@@QAEHABVCEntityEvent@@@Z 1003f770 f   AirElemental.obj
 0001:0003e7f0       ?H0x015b0027_Main_02@CAirElemental@@QAEHABVCEntityEvent@@@Z 1003f7f0 f   AirElemental.obj
 0001:0003e880       ?H0x015b0028_Main_03@CAirElemental@@QAEHABVCEntityEvent@@@Z 1003f880 f   AirElemental.obj
 0001:0003e8f0       ?H0x015b0029_Main_04@CAirElemental@@QAEHABVCEntityEvent@@@Z 1003f8f0 f   AirElemental.obj
 0001:0003e9b0       ?H0x015b002a_Main_05@CAirElemental@@QAEHABVCEntityEvent@@@Z 1003f9b0 f   AirElemental.obj
 0001:0003ea30       ?H0x015b002b_Main_06@CAirElemental@@QAEHABVCEntityEvent@@@Z 1003fa30 f   AirElemental.obj
 0001:0003eae0       ??_GCAirElemental@@UAEPAXI@Z 1003fae0 f i AirElemental.obj
 0001:0003eae0       ??_ECAirElemental@@UAEPAXI@Z 1003fae0 f i AirElemental.obj
 0001:0003eb10       ??1CAirElemental@@UAE@XZ   1003fb10 f i AirElemental.obj
 0001:0003ece0       ?Delete@?$CStaticArray@VCEmittedParticle@@@@QAEXXZ 1003fce0 f i AirElemental.obj
 0001:0003ed00       ?ClearToDefault@@YAXAAW4WarpRotation@@@Z 1003fd00 f i AltCannonBall.obj
 0001:0003ed10       ??0EHit@@QAE@ABV0@@Z       1003fd10 f i AltCannonBall.obj
 0001:0003ed30       ??4EHit@@QAEAAV0@ABV0@@Z   1003fd30 f i AltCannonBall.obj
 0001:0003ed50       ??1EHit@@UAE@XZ            1003fd50 f i AltCannonBall.obj
 0001:0003ed60       ??_GEHit@@UAEPAXI@Z        1003fd60 f i AltCannonBall.obj
 0001:0003ed90       ??_EEHit@@UAEPAXI@Z        1003fd90 f i AltCannonBall.obj
 0001:0003edf0       ?ClearToDefault@@YAXAAVEHit@@@Z 1003fdf0 f i AltCannonBall.obj
 0001:0003ee10       ??0EBrushDestroyed@@QAE@ABV0@@Z 1003fe10 f i AltCannonBall.obj
 0001:0003ee30       ??4EBrushDestroyed@@QAEAAV0@ABV0@@Z 1003fe30 f i AltCannonBall.obj
 0001:0003ee50       ??1EBrushDestroyed@@UAE@XZ 1003fe50 f i AltCannonBall.obj
 0001:0003ee60       ??_GEBrushDestroyed@@UAEPAXI@Z 1003fe60 f i AltCannonBall.obj
 0001:0003ee90       ??_EEBrushDestroyed@@UAEPAXI@Z 1003fe90 f i AltCannonBall.obj
 0001:0003eef0       ?ClearToDefault@@YAXAAVEBrushDestroyed@@@Z 1003fef0 f i AltCannonBall.obj
 0001:0003ef10       ?ClearToDefault@@YAXAAW4BlockAction@@@Z 1003ff10 f i AltCannonBall.obj
 0001:0003ef20       ?ClearToDefault@@YAXAAW4TouchOrDamageEvent@@@Z 1003ff20 f i AltCannonBall.obj
 0001:0003ef30       ?ClearToDefault@@YAXAAW4DevilActionType@@@Z 1003ff30 f i AltCannonBall.obj
 0001:0003ef40       ??0EBrushDestroyedByDevil@@QAE@ABV0@@Z 1003ff40 f i AltCannonBall.obj
 0001:0003ef80       ??4EBrushDestroyedByDevil@@QAEAAV0@ABV0@@Z 1003ff80 f i AltCannonBall.obj
 0001:0003efb0       ??1EBrushDestroyedByDevil@@UAE@XZ 1003ffb0 f i AltCannonBall.obj
 0001:0003efc0       ??_GEBrushDestroyedByDevil@@UAEPAXI@Z 1003ffc0 f i AltCannonBall.obj
 0001:0003eff0       ??_EEBrushDestroyedByDevil@@UAEPAXI@Z 1003fff0 f i AltCannonBall.obj
 0001:0003f050       ?ClearToDefault@@YAXAAVEBrushDestroyedByDevil@@@Z 10040050 f i AltCannonBall.obj
 0001:0003f090       ??0ERegenerationImpuls@@QAE@ABV0@@Z 10040090 f i AltCannonBall.obj
 0001:0003f0b0       ??4ERegenerationImpuls@@QAEAAV0@ABV0@@Z 100400b0 f i AltCannonBall.obj
 0001:0003f0d0       ??1ERegenerationImpuls@@UAE@XZ 100400d0 f i AltCannonBall.obj
 0001:0003f0e0       ??_GERegenerationImpuls@@UAEPAXI@Z 100400e0 f i AltCannonBall.obj
 0001:0003f110       ??_EERegenerationImpuls@@UAEPAXI@Z 10040110 f i AltCannonBall.obj
 0001:0003f170       ?ClearToDefault@@YAXAAVERegenerationImpuls@@@Z 10040170 f i AltCannonBall.obj
 0001:0003f190       ?ClearToDefault@@YAXAAW4DevilCommandType@@@Z 10040190 f i AltCannonBall.obj
 0001:0003f1a0       ??0EDevilCommand@@QAE@ABV0@@Z 100401a0 f i AltCannonBall.obj
 0001:0003f200       ??4EDevilCommand@@QAEAAV0@ABV0@@Z 10040200 f i AltCannonBall.obj
 0001:0003f270       ??1EDevilCommand@@UAE@XZ   10040270 f i AltCannonBall.obj
 0001:0003f300       ??_GEDevilCommand@@UAEPAXI@Z 10040300 f i AltCannonBall.obj
 0001:0003f330       ??_EEDevilCommand@@UAEPAXI@Z 10040330 f i AltCannonBall.obj
 0001:0003f390       ?ClearToDefault@@YAXAAVEDevilCommand@@@Z 10040390 f i AltCannonBall.obj
 0001:0003f450       ?ClearToDefault@@YAXAAW4DevilState@@@Z 10040450 f i AltCannonBall.obj
 0001:0003f460       ?ClearToDefault@@YAXAAW4DevilAttackPower@@@Z 10040460 f i AltCannonBall.obj
 0001:0003f470       ?ClearToDefault@@YAXAAW4FogAttenuationType@@@Z 10040470 f i AltCannonBall.obj
 0001:0003f480       ?ClearToDefault@@YAXAAW4FogGraduationType2@@@Z 10040480 f i AltCannonBall.obj
 0001:0003f870       ?CAltCannonBall_New@@YAPAVCEntity@@XZ 10040870 f   AltCannonBall.obj
 0001:0003f940       ?CAltCannonBall_OnInitClass@@YAXXZ 10040940 f   AltCannonBall.obj
 0001:0003f950       ?CAltCannonBall_OnEndClass@@YAXXZ 10040950 f   AltCannonBall.obj
 0001:0003f960       ?CAltCannonBall_OnWorldEnd@@YAXPAVCWorld@@@Z 10040960 f   AltCannonBall.obj
 0001:0003f970       ?CAltCannonBall_OnWorldInit@@YAXPAVCWorld@@@Z 10040970 f   AltCannonBall.obj
 0001:0003f980       ?CAltCannonBall_OnWorldTick@@YAXPAVCWorld@@@Z 10040980 f   AltCannonBall.obj
 0001:0003f990       ?CAltCannonBall_OnWorldRender@@YAXPAVCWorld@@@Z 10040990 f   AltCannonBall.obj
 0001:0003fa60       ?MakeCopy@ELaunchAltCannonBall@@UAEPAVCEntityEvent@@XZ 10040a60 f   AltCannonBall.obj
 0001:0003fab0       ??0ELaunchAltCannonBall@@QAE@XZ 10040ab0 f   AltCannonBall.obj
 0001:0003fb20       ?CAltCannonBall_OnPrecache@@YAXPAVCDLLEntityClass@@J@Z 10040b20 f   AltCannonBall.obj
 0001:0003fb60       ?SetDefaultProperties@CAltCannonBall@@UAEXXZ 10040b60 f   AltCannonBall.obj
 0001:0003fc20       ?PreMoving@CAltCannonBall@@UAEXXZ 10040c20 f   AltCannonBall.obj
 0001:0003fc80       ?PostMoving@CAltCannonBall@@UAEXXZ 10040c80 f   AltCannonBall.obj
 0001:0003fd60       ?Read_t@CAltCannonBall@@UAEXPAVCTStream@@@Z 10040d60 f   AltCannonBall.obj
 0001:0003fd80       ?GetLightSource@CAltCannonBall@@UAEPAVCLightSource@@XZ 10040d80 f   AltCannonBall.obj
 0001:0003fda0       ?AdjustShadingParameters@CAltCannonBall@@UAEHAAV?$Vector@M$02@@AAK1@Z 10040da0 f   AltCannonBall.obj
 0001:0003fe00       ?SetupLightSource@CAltCannonBall@@QAEXXZ 10040e00 f   AltCannonBall.obj
 0001:0003fe90       ?RenderParticles@CAltCannonBall@@UAEXXZ 10040e90 f   AltCannonBall.obj
 0001:0003fea0       ?Initialize@CAltCannonBall@@QAEXXZ 10040ea0 f   AltCannonBall.obj
 0001:0003ff70       ?CalculateDamageToInflict@CAltCannonBall@@QAEMXZ 10040f70 f   AltCannonBall.obj
 0001:0003ffe0       ?Explosion@CAltCannonBall@@QAEXV?$Vector@M$02@@ABV2@11HHHH@Z 10040fe0 f   AltCannonBall.obj
 0001:00040170       ?BallTouchExplode@CAltCannonBall@@QAEHVCEntityPointer@@@Z 10041170 f   AltCannonBall.obj
 0001:00040320       ?RangeDamage@CAltCannonBall@@QAEXXZ 10041320 f   AltCannonBall.obj
 0001:00040360       ?SpawnEffect@CAltCannonBall@@QAEXABVCPlacement3D@@ABVESpawnEffect@@@Z 10041360 f   AltCannonBall.obj
 0001:000403e0       ?BounceSound@CAltCannonBall@@QAEXM@Z 100413e0 f   AltCannonBall.obj
 0001:00040480       ?Bounce@CAltCannonBall@@QAEHABVCEntityEvent@@@Z 10041480 f   AltCannonBall.obj
 0001:00040520       ?H0x05e20002_Bounce_01@CAltCannonBall@@QAEHABVCEntityEvent@@@Z 10041520 f   AltCannonBall.obj
 0001:000408d0       ?H0x05e20003_Bounce_02@CAltCannonBall@@QAEHABVCEntityEvent@@@Z 100418d0 f   AltCannonBall.obj
 0001:00040930       ?Main@CAltCannonBall@@QAEHABVCEntityEvent@@@Z 10041930 f   AltCannonBall.obj
 0001:00040a40       ?H0x05e20004_Main_01@CAltCannonBall@@QAEHABVCEntityEvent@@@Z 10041a40 f   AltCannonBall.obj
 0001:00040ad0       ?H0x05e20005_Main_02@CAltCannonBall@@QAEHABVCEntityEvent@@@Z 10041ad0 f   AltCannonBall.obj
 0001:00040c20       ?H0x05e20006_Main_03@CAltCannonBall@@QAEHABVCEntityEvent@@@Z 10041c20 f   AltCannonBall.obj
 0001:00040cc0       ?H0x05e20007_Main_04@CAltCannonBall@@QAEHABVCEntityEvent@@@Z 10041cc0 f   AltCannonBall.obj
 0001:00041460       ?CAmmoItem_New@@YAPAVCEntity@@XZ 10042460 f   AmmoItem.obj
 0001:00041520       ?CAmmoItem_OnInitClass@@YAXXZ 10042520 f   AmmoItem.obj
 0001:00041530       ?CAmmoItem_OnEndClass@@YAXXZ 10042530 f   AmmoItem.obj
 0001:00041540       ?CAmmoItem_OnPrecache@@YAXPAVCDLLEntityClass@@J@Z 10042540 f   AmmoItem.obj
 0001:00041550       ?CAmmoItem_OnWorldEnd@@YAXPAVCWorld@@@Z 10042550 f   AmmoItem.obj
 0001:00041560       ?CAmmoItem_OnWorldInit@@YAXPAVCWorld@@@Z 10042560 f   AmmoItem.obj
 0001:00041570       ?CAmmoItem_OnWorldTick@@YAXPAVCWorld@@@Z 10042570 f   AmmoItem.obj
 0001:00041580       ?CAmmoItem_OnWorldRender@@YAXPAVCWorld@@@Z 10042580 f   AmmoItem.obj
 0001:000415e0       ?MakeCopy@EAmmoItem@@UAEPAVCEntityEvent@@XZ 100425e0 f   AmmoItem.obj
 0001:00041620       ??0EAmmoItem@@QAE@XZ       10042620 f   AmmoItem.obj
 0001:00041640       ?SetDefaultProperties@CAmmoItem@@UAEXXZ 10042640 f   AmmoItem.obj
 0001:00041650       ?Precache@CAmmoItem@@UAEXXZ 10042650 f   AmmoItem.obj
 0001:00041660       ?RenderParticles@CAmmoItem@@UAEXXZ 10042660 f   AmmoItem.obj
 0001:00041690       ?FillEntityStatistics@CAmmoItem@@UAEHPAUEntityStats@@@Z 10042690 f   AmmoItem.obj
 0001:000418b0       ?SetProperties@CAmmoItem@@QAEXXZ 100428b0 f   AmmoItem.obj
 0001:000424b0       ?AdjustDifficulty@CAmmoItem@@UAEXXZ 100434b0 f   AmmoItem.obj
 0001:00042510       ?ItemCollected@CAmmoItem@@QAEHABVCEntityEvent@@@Z 10043510 f   AmmoItem.obj
 0001:000426e0       ?Main@CAmmoItem@@QAEHABVCEntityEvent@@@Z 100436e0 f   AmmoItem.obj
 0001:00042770       ??_ECAmmoItem@@UAEPAXI@Z   10043770 f i AmmoItem.obj
 0001:00042770       ??_GCAmmoItem@@UAEPAXI@Z   10043770 f i AmmoItem.obj
 0001:000427a0       ??1CAmmoItem@@UAE@XZ       100437a0 f i AmmoItem.obj
 0001:00042bd0       ?CAmmoPack_New@@YAPAVCEntity@@XZ 10043bd0 f   AmmoPack.obj
 0001:00042c90       ?CAmmoPack_OnInitClass@@YAXXZ 10043c90 f   AmmoPack.obj
 0001:00042ca0       ?CAmmoPack_OnEndClass@@YAXXZ 10043ca0 f   AmmoPack.obj
 0001:00042cb0       ?CAmmoPack_OnPrecache@@YAXPAVCDLLEntityClass@@J@Z 10043cb0 f   AmmoPack.obj
 0001:00042cc0       ?CAmmoPack_OnWorldEnd@@YAXPAVCWorld@@@Z 10043cc0 f   AmmoPack.obj
 0001:00042cd0       ?CAmmoPack_OnWorldInit@@YAXPAVCWorld@@@Z 10043cd0 f   AmmoPack.obj
 0001:00042ce0       ?CAmmoPack_OnWorldTick@@YAXPAVCWorld@@@Z 10043ce0 f   AmmoPack.obj
 0001:00042cf0       ?CAmmoPack_OnWorldRender@@YAXPAVCWorld@@@Z 10043cf0 f   AmmoPack.obj
 0001:00042d50       ?MakeCopy@EAmmoPackItem@@UAEPAVCEntityEvent@@XZ 10043d50 f   AmmoPack.obj
 0001:00042dc0       ??0EAmmoPackItem@@QAE@XZ   10043dc0 f   AmmoPack.obj
 0001:00042df0       ?SetDefaultProperties@CAmmoPack@@UAEXXZ 10043df0 f   AmmoPack.obj
 0001:00042e60       ?Precache@CAmmoPack@@UAEXXZ 10043e60 f   AmmoPack.obj
 0001:00042e70       ?RenderParticles@CAmmoPack@@UAEXXZ 10043e70 f   AmmoPack.obj
 0001:00042ec0       ?FillEntityStatistics@CAmmoPack@@UAEHPAUEntityStats@@@Z 10043ec0 f   AmmoPack.obj
 0001:00042fb0       ?SetProperties@CAmmoPack@@QAEXXZ 10043fb0 f   AmmoPack.obj
 0001:00043290       ?AdjustDifficulty@CAmmoPack@@UAEXXZ 10044290 f   AmmoPack.obj
 0001:000432c0       ?ItemCollected@CAmmoPack@@QAEHABVCEntityEvent@@@Z 100442c0 f   AmmoPack.obj
 0001:00043480       ?Main@CAmmoPack@@QAEHABVCEntityEvent@@@Z 10044480 f   AmmoPack.obj
 0001:00043630       ??_GCAmmoPack@@UAEPAXI@Z   10044630 f i AmmoPack.obj
 0001:00043630       ??_ECAmmoPack@@UAEPAXI@Z   10044630 f i AmmoPack.obj
 0001:00043660       ??1CAmmoPack@@UAE@XZ       10044660 f i AmmoPack.obj
 0001:00043a70       ?CAnimationChanger_New@@YAPAVCEntity@@XZ 10044a70 f   AnimationChanger.obj
 0001:00043b10       ?CAnimationChanger_OnInitClass@@YAXXZ 10044b10 f   AnimationChanger.obj
 0001:00043b20       ?CAnimationChanger_OnEndClass@@YAXXZ 10044b20 f   AnimationChanger.obj
 0001:00043b30       ?CAnimationChanger_OnPrecache@@YAXPAVCDLLEntityClass@@J@Z 10044b30 f   AnimationChanger.obj
 0001:00043b40       ?CAnimationChanger_OnWorldEnd@@YAXPAVCWorld@@@Z 10044b40 f   AnimationChanger.obj
 0001:00043b50       ?CAnimationChanger_OnWorldInit@@YAXPAVCWorld@@@Z 10044b50 f   AnimationChanger.obj
 0001:00043b60       ?CAnimationChanger_OnWorldTick@@YAXPAVCWorld@@@Z 10044b60 f   AnimationChanger.obj
 0001:00043b70       ?CAnimationChanger_OnWorldRender@@YAXPAVCWorld@@@Z 10044b70 f   AnimationChanger.obj
 0001:00043c40       ?MakeCopy@EChangeAnim@@UAEPAVCEntityEvent@@XZ 10044c40 f   AnimationChanger.obj
 0001:00043cb0       ??0EChangeAnim@@QAE@XZ     10044cb0 f   AnimationChanger.obj
 0001:00043cf0       ?SetDefaultProperties@CAnimationChanger@@UAEXXZ 10044cf0 f   AnimationChanger.obj
 0001:00043db0       ?GetDescription@CAnimationChanger@@UBEABVCTString@@XZ 10044db0 f   AnimationChanger.obj
 0001:00043df0       ?GetAnimData@CAnimationChanger@@UAEPAVCAnimData@@J@Z 10044df0 f   AnimationChanger.obj
 0001:00043ef0       ?Main@CAnimationChanger@@QAEHABVCEntityEvent@@@Z 10044ef0 f   AnimationChanger.obj
 0001:00044030       ?H0x00da0001_Main_01@CAnimationChanger@@QAEHABVCEntityEvent@@@Z 10045030 f   AnimationChanger.obj
 0001:00044100       ?H0x00da0002_Main_02@CAnimationChanger@@QAEHABVCEntityEvent@@@Z 10045100 f   AnimationChanger.obj
 0001:00044160       ?GetName@CAnimationChanger@@UBEABVCTString@@XZ 10045160 f i AnimationChanger.obj
 0001:00044170       ?GetTarget@CAnimationChanger@@UBEPAVCEntity@@XZ 10045170 f i AnimationChanger.obj
 0001:00044180       ?IsTargetable@CAnimationChanger@@UBEHXZ 10045180 f i AnimationChanger.obj
 0001:00044190       ??_ECAnimationChanger@@UAEPAXI@Z 10045190 f i AnimationChanger.obj
 0001:00044190       ??_GCAnimationChanger@@UAEPAXI@Z 10045190 f i AnimationChanger.obj
 0001:000441c0       ??1CAnimationChanger@@UAE@XZ 100451c0 f i AnimationChanger.obj
 0001:00044970       ?CAnimationHub_New@@YAPAVCEntity@@XZ 10045970 f   AnimationHub.obj
 0001:00044a50       ?CAnimationHub_OnInitClass@@YAXXZ 10045a50 f   AnimationHub.obj
 0001:00044a60       ?CAnimationHub_OnEndClass@@YAXXZ 10045a60 f   AnimationHub.obj
 0001:00044a70       ?CAnimationHub_OnPrecache@@YAXPAVCDLLEntityClass@@J@Z 10045a70 f   AnimationHub.obj
 0001:00044a80       ?CAnimationHub_OnWorldEnd@@YAXPAVCWorld@@@Z 10045a80 f   AnimationHub.obj
 0001:00044a90       ?CAnimationHub_OnWorldInit@@YAXPAVCWorld@@@Z 10045a90 f   AnimationHub.obj
 0001:00044aa0       ?CAnimationHub_OnWorldTick@@YAXPAVCWorld@@@Z 10045aa0 f   AnimationHub.obj
 0001:00044ab0       ?CAnimationHub_OnWorldRender@@YAXPAVCWorld@@@Z 10045ab0 f   AnimationHub.obj
 0001:00044b80       ?SetDefaultProperties@CAnimationHub@@UAEXXZ 10045b80 f   AnimationHub.obj
 0001:00044d50       ?GetDescription@CAnimationHub@@UBEABVCTString@@XZ 10045d50 f   AnimationHub.obj
 0001:00044d90       ?RelayEvents@CAnimationHub@@QAEHABVCEntityEvent@@@Z 10045d90 f   AnimationHub.obj
 0001:00044e00       ?H0x00e40004_RelayEvents_04@CAnimationHub@@QAEHABVCEntityEvent@@@Z 10045e00 f   AnimationHub.obj
 0001:00044ed0       ?H0x00e40001_RelayEvents_01@CAnimationHub@@QAEHABVCEntityEvent@@@Z 10045ed0 f   AnimationHub.obj
 0001:00044f50       ?H0x00e40002_RelayEvents_02@CAnimationHub@@QAEHABVCEntityEvent@@@Z 10045f50 f   AnimationHub.obj
 0001:00044fb0       ?H0x00e40003_RelayEvents_03@CAnimationHub@@QAEHABVCEntityEvent@@@Z 10045fb0 f   AnimationHub.obj
 0001:000450b0       ?H0x00e40005_RelayEvents_05@CAnimationHub@@QAEHABVCEntityEvent@@@Z 100460b0 f   AnimationHub.obj
 0001:00045110       ?WaitChange@CAnimationHub@@QAEHABVCEntityEvent@@@Z 10046110 f   AnimationHub.obj
 0001:00045170       ?H0x00e40009_WaitChange_03@CAnimationHub@@QAEHABVCEntityEvent@@@Z 10046170 f   AnimationHub.obj
 0001:000451e0       ?H0x00e40007_WaitChange_01@CAnimationHub@@QAEHABVCEntityEvent@@@Z 100461e0 f   AnimationHub.obj
 0001:000452a0       ?H0x00e40008_WaitChange_02@CAnimationHub@@QAEHABVCEntityEvent@@@Z 100462a0 f   AnimationHub.obj
 0001:00045300       ?H0x00e4000a_WaitChange_04@CAnimationHub@@QAEHABVCEntityEvent@@@Z 10046300 f   AnimationHub.obj
 0001:00045310       ?Main@CAnimationHub@@QAEHABVCEntityEvent@@@Z 10046310 f   AnimationHub.obj
 0001:00045410       ?GetName@CAnimationHub@@UBEABVCTString@@XZ 10046410 f i AnimationHub.obj
 0001:00045420       ?IsTargetable@CAnimationHub@@UBEHXZ 10046420 f i AnimationHub.obj
 0001:00045430       ??_GCAnimationHub@@UAEPAXI@Z 10046430 f i AnimationHub.obj
 0001:00045430       ??_ECAnimationHub@@UAEPAXI@Z 10046430 f i AnimationHub.obj
 0001:00045460       ??1CAnimationHub@@UAE@XZ   10046460 f i AnimationHub.obj
 0001:00045760       ?CAreaMarker_New@@YAPAVCEntity@@XZ 10046760 f   AreaMarker.obj
 0001:00045800       ?CAreaMarker_OnInitClass@@YAXXZ 10046800 f   AreaMarker.obj
 0001:00045810       ?CAreaMarker_OnEndClass@@YAXXZ 10046810 f   AreaMarker.obj
 0001:00045820       ?CAreaMarker_OnPrecache@@YAXPAVCDLLEntityClass@@J@Z 10046820 f   AreaMarker.obj
 0001:00045830       ?CAreaMarker_OnWorldEnd@@YAXPAVCWorld@@@Z 10046830 f   AreaMarker.obj
 0001:00045840       ?CAreaMarker_OnWorldInit@@YAXPAVCWorld@@@Z 10046840 f   AreaMarker.obj
 0001:00045850       ?CAreaMarker_OnWorldTick@@YAXPAVCWorld@@@Z 10046850 f   AreaMarker.obj
 0001:00045860       ?CAreaMarker_OnWorldRender@@YAXPAVCWorld@@@Z 10046860 f   AreaMarker.obj
 0001:00045930       ?SetDefaultProperties@CAreaMarker@@UAEXXZ 10046930 f   AreaMarker.obj
 0001:00045a10       ?GetAreaBox@CAreaMarker@@QAEXAAV?$AABBox@M$02@@@Z 10046a10 f   AreaMarker.obj
 0001:00045a70       ?Main@CAreaMarker@@QAEHABVCEntityEvent@@@Z 10046a70 f   AreaMarker.obj
 0001:00045ad0       ?GetName@CAreaMarker@@UBEABVCTString@@XZ 10046ad0 f i AreaMarker.obj
 0001:00045ae0       ?IsTargetable@CAreaMarker@@UBEHXZ 10046ae0 f i AreaMarker.obj
 0001:00045af0       ??_ECAreaMarker@@UAEPAXI@Z 10046af0 f i AreaMarker.obj
 0001:00045af0       ??_GCAreaMarker@@UAEPAXI@Z 10046af0 f i AreaMarker.obj
 0001:00045b20       ??1CAreaMarker@@UAE@XZ     10046b20 f i AreaMarker.obj
 0001:00045b90       ?ClearToDefault@@YAXAAW4ArmorItemType@@@Z 10046b90 f i ArmorItem.obj
 0001:00045ba0       ??0EArmor@@QAE@ABV0@@Z     10046ba0 f i ArmorItem.obj
 0001:00045bd0       ??4EArmor@@QAEAAV0@ABV0@@Z 10046bd0 f i ArmorItem.obj
 0001:00045bf0       ??1EArmor@@UAE@XZ          10046bf0 f i ArmorItem.obj
 0001:00045c00       ??_GEArmor@@UAEPAXI@Z      10046c00 f i ArmorItem.obj
 0001:00045c30       ??_EEArmor@@UAEPAXI@Z      10046c30 f i ArmorItem.obj
 0001:00045c90       ?ClearToDefault@@YAXAAVEArmor@@@Z 10046c90 f i ArmorItem.obj
 0001:00045ff0       ?CArmorItem_New@@YAPAVCEntity@@XZ 10046ff0 f   ArmorItem.obj
 0001:000460b0       ?CArmorItem_OnInitClass@@YAXXZ 100470b0 f   ArmorItem.obj
 0001:000460c0       ?CArmorItem_OnEndClass@@YAXXZ 100470c0 f   ArmorItem.obj
 0001:000460d0       ?CArmorItem_OnPrecache@@YAXPAVCDLLEntityClass@@J@Z 100470d0 f   ArmorItem.obj
 0001:000460e0       ?CArmorItem_OnWorldEnd@@YAXPAVCWorld@@@Z 100470e0 f   ArmorItem.obj
 0001:000460f0       ?CArmorItem_OnWorldInit@@YAXPAVCWorld@@@Z 100470f0 f   ArmorItem.obj
 0001:00046100       ?CArmorItem_OnWorldTick@@YAXPAVCWorld@@@Z 10047100 f   ArmorItem.obj
 0001:00046110       ?CArmorItem_OnWorldRender@@YAXPAVCWorld@@@Z 10047110 f   ArmorItem.obj
 0001:00046170       ?MakeCopy@EArmor@@UAEPAVCEntityEvent@@XZ 10047170 f   ArmorItem.obj
 0001:000461b0       ??0EArmor@@QAE@XZ          100471b0 f   ArmorItem.obj
 0001:000461d0       ?SetDefaultProperties@CArmorItem@@UAEXXZ 100471d0 f   ArmorItem.obj
 0001:000461f0       ?Precache@CArmorItem@@UAEXXZ 100471f0 f   ArmorItem.obj
 0001:00046270       ?FillEntityStatistics@CArmorItem@@UAEHPAUEntityStats@@@Z 10047270 f   ArmorItem.obj
 0001:00046440       ?RenderParticles@CArmorItem@@UAEXXZ 10047440 f   ArmorItem.obj
 0001:00046470       ?SetProperties@CArmorItem@@QAEXXZ 10047470 f   ArmorItem.obj
 0001:00046ad0       ?AdjustDifficulty@CArmorItem@@UAEXXZ 10047ad0 f   ArmorItem.obj
 0001:00046b00       ?ItemCollected@CArmorItem@@QAEHABVCEntityEvent@@@Z 10047b00 f   ArmorItem.obj
 0001:00046ce0       ?Main@CArmorItem@@QAEHABVCEntityEvent@@@Z 10047ce0 f   ArmorItem.obj
 0001:00046d50       ??_ECArmorItem@@UAEPAXI@Z  10047d50 f i ArmorItem.obj
 0001:00046d50       ??_GCArmorItem@@UAEPAXI@Z  10047d50 f i ArmorItem.obj
 0001:00046d80       ??1CArmorItem@@UAE@XZ      10047d80 f i ArmorItem.obj
 0001:00046f50       ?CBackgroundViewer_New@@YAPAVCEntity@@XZ 10047f50 f   BackgroundViewer.obj
 0001:00047000       ?CBackgroundViewer_OnInitClass@@YAXXZ 10048000 f   BackgroundViewer.obj
 0001:00047010       ?CBackgroundViewer_OnEndClass@@YAXXZ 10048010 f   BackgroundViewer.obj
 0001:00047020       ?CBackgroundViewer_OnPrecache@@YAXPAVCDLLEntityClass@@J@Z 10048020 f   BackgroundViewer.obj
 0001:00047030       ?CBackgroundViewer_OnWorldEnd@@YAXPAVCWorld@@@Z 10048030 f   BackgroundViewer.obj
 0001:00047040       ?CBackgroundViewer_OnWorldInit@@YAXPAVCWorld@@@Z 10048040 f   BackgroundViewer.obj
 0001:00047050       ?CBackgroundViewer_OnWorldTick@@YAXPAVCWorld@@@Z 10048050 f   BackgroundViewer.obj
 0001:00047060       ?CBackgroundViewer_OnWorldRender@@YAXPAVCWorld@@@Z 10048060 f   BackgroundViewer.obj
 0001:000470c0       ?SetDefaultProperties@CBackgroundViewer@@UAEXXZ 100480c0 f   BackgroundViewer.obj
 0001:00047100       ?IsTargetValid@CBackgroundViewer@@UAEHJPAVCEntity@@@Z 10048100 f   BackgroundViewer.obj
 0001:00047140       ?HandleEvent@CBackgroundViewer@@UAEHABVCEntityEvent@@@Z 10048140 f   BackgroundViewer.obj
 0001:00047170       ?Main@CBackgroundViewer@@QAEHABVCEntityEvent@@@Z 10048170 f   BackgroundViewer.obj
 0001:00047210       ?GetName@CMarker@@UBEABVCTString@@XZ 10048210 f i BackgroundViewer.obj
 0001:00047220       ?GetTarget@CMarker@@UBEPAVCEntity@@XZ 10048220 f i BackgroundViewer.obj
 0001:00047230       ?IsTargetable@CMarker@@UBEHXZ 10048230 f i BackgroundViewer.obj
 0001:00047240       ?IsImportant@CBackgroundViewer@@UBEHXZ 10048240 f i BackgroundViewer.obj
 0001:00047250       ??_ECBackgroundViewer@@UAEPAXI@Z 10048250 f i BackgroundViewer.obj
 0001:00047250       ??_GCBackgroundViewer@@UAEPAXI@Z 10048250 f i BackgroundViewer.obj
 0001:00047280       ??1CBackgroundViewer@@UAE@XZ 10048280 f i BackgroundViewer.obj
 0001:00047330       ??1CMarker@@UAE@XZ         10048330 f i BackgroundViewer.obj
 0001:00047df0       ?CBasicEffect_New@@YAPAVCEntity@@XZ 10048df0 f   BasicEffects.obj
 0001:00047ea0       ?CBasicEffect_OnInitClass@@YAXXZ 10048ea0 f   BasicEffects.obj
 0001:00047eb0       ?CBasicEffect_OnEndClass@@YAXXZ 10048eb0 f   BasicEffects.obj
 0001:00047ec0       ?CBasicEffect_OnWorldEnd@@YAXPAVCWorld@@@Z 10048ec0 f   BasicEffects.obj
 0001:00047ed0       ?CBasicEffect_OnWorldInit@@YAXPAVCWorld@@@Z 10048ed0 f   BasicEffects.obj
 0001:00047ee0       ?CBasicEffect_OnWorldTick@@YAXPAVCWorld@@@Z 10048ee0 f   BasicEffects.obj
 0001:00047ef0       ?CBasicEffect_OnWorldRender@@YAXPAVCWorld@@@Z 10048ef0 f   BasicEffects.obj
 0001:00047fc0       ?MakeCopy@ESpawnEffect@@UAEPAVCEntityEvent@@XZ 10048fc0 f   BasicEffects.obj
 0001:00048040       ??0ESpawnEffect@@QAE@XZ    10049040 f   BasicEffects.obj
 0001:000480f0       ?CBasicEffect_OnPrecache@@YAXPAVCDLLEntityClass@@J@Z 100490f0 f   BasicEffects.obj
 0001:00048520       ?SetDefaultProperties@CBasicEffect@@UAEXXZ 10049520 f   BasicEffects.obj
 0001:00048650       ?DumpSync_t@CBasicEffect@@UAEXAAVCTStream@@J@Z 10049650 f   BasicEffects.obj
 0001:00048690       ?Read_t@CBasicEffect@@UAEXPAVCTStream@@@Z 10049690 f   BasicEffects.obj
 0001:000486c0       ?GetLightSource@CBasicEffect@@UAEPAVCLightSource@@XZ 100496c0 f   BasicEffects.obj
 0001:000486e0       ?SetupLightSource@CBasicEffect@@QAEXXZ 100496e0 f   BasicEffects.obj
 0001:000488e0       ?RenderParticles@CBasicEffect@@UAEXXZ 100498e0 f   BasicEffects.obj
 0001:00048b70       ?AdjustShadingParameters@CBasicEffect@@UAEHAAV?$Vector@M$02@@AAK1@Z 10049b70 f   BasicEffects.obj
 0001:00048c80       ?GetDepthSortOffset@CBasicEffect@@UAEMXZ 10049c80 f   BasicEffects.obj
 0001:00048c90       ?SetNonLoopingTexAnims@CBasicEffect@@QAEXXZ 10049c90 f   BasicEffects.obj
 0001:00048cc0       ?SetNormalForHalfFaceForward@CBasicEffect@@QAEXXZ 10049cc0 f   BasicEffects.obj
 0001:00048d00       ?SetNormal@CBasicEffect@@QAEXXZ 10049d00 f   BasicEffects.obj
 0001:00048d40       ?SetNormalWithRandomBanking@CBasicEffect@@QAEXXZ 10049d40 f   BasicEffects.obj
 0001:00048d90       ?FindGravityVectorFromSector@CBasicEffect@@QAEXXZ 10049d90 f   BasicEffects.obj
 0001:00048e00       ?SetNormalAndDirection@CBasicEffect@@QAEXXZ 10049e00 f   BasicEffects.obj
 0001:00049050       ?RandomBanking@CBasicEffect@@QAEXXZ 1004a050 f   BasicEffects.obj
 0001:00049090       ?Stretch@CBasicEffect@@QAEXXZ 1004a090 f   BasicEffects.obj
 0001:000490b0       ?ParentToNearestPolygonAndStretch@CBasicEffect@@QAEXXZ 1004a0b0 f   BasicEffects.obj
 0001:00049350       ?ProjectileExplosion@CBasicEffect@@QAEXXZ 1004a350 f   BasicEffects.obj
 0001:00049410       ?ProjectilePlaneExplosion@CBasicEffect@@QAEXXZ 1004a410 f   BasicEffects.obj
 0001:00049480       ?BombExplosion@CBasicEffect@@QAEXXZ 1004a480 f   BasicEffects.obj
 0001:00049560       ?GizmoSplashFX@CBasicEffect@@QAEXXZ 1004a560 f   BasicEffects.obj
 0001:000495f0       ?ExplosionDebris@CBasicEffect@@QAEXXZ 1004a5f0 f   BasicEffects.obj
 0001:00049630       ?CollectEnergy@CBasicEffect@@QAEXXZ 1004a630 f   BasicEffects.obj
 0001:00049670       ?GrowingSwirl@CBasicEffect@@QAEXXZ 1004a670 f   BasicEffects.obj
 0001:000496b0       ?DisappearDust@CBasicEffect@@QAEXXZ 1004a6b0 f   BasicEffects.obj
 0001:000496f0       ?DustFall@CBasicEffect@@QAEXXZ 1004a6f0 f   BasicEffects.obj
 0001:00049730       ?SniperResidue@CBasicEffect@@QAEXXZ 1004a730 f   BasicEffects.obj
 0001:00049770       ?ExplosionSmoke@CBasicEffect@@QAEXXZ 1004a770 f   BasicEffects.obj
 0001:000497c0       ?GrenadeExplosion@CBasicEffect@@QAEXXZ 1004a7c0 f   BasicEffects.obj
 0001:00049880       ?GrenadePlaneExplosion@CBasicEffect@@QAEXXZ 1004a880 f   BasicEffects.obj
 0001:000498f0       ?CannonExplosion@CBasicEffect@@QAEXHH@Z 1004a8f0 f   BasicEffects.obj
 0001:000499e0       ?CannonPlaneExplosion@CBasicEffect@@QAEXXZ 1004a9e0 f   BasicEffects.obj
 0001:00049a40       ?Stain@CBasicEffect@@QAEXXZ 1004aa40 f   BasicEffects.obj
 0001:00049a90       ?CannonStain@CBasicEffect@@QAEXXZ 1004aa90 f   BasicEffects.obj
 0001:00049ae0       ?ShockWave@CBasicEffect@@QAEXXZ 1004aae0 f   BasicEffects.obj
 0001:00049b40       ?CannonShockWave@CBasicEffect@@QAEXXZ 1004ab40 f   BasicEffects.obj
 0001:00049bc0       ?LaserWave@CBasicEffect@@QAEXXZ 1004abc0 f   BasicEffects.obj
 0001:00049c50       ?LaserBlue@CBasicEffect@@QAEXXZ 1004ac50 f   BasicEffects.obj
 0001:00049ce0       ?TeleportEffect@CBasicEffect@@QAEXXZ 1004ace0 f   BasicEffects.obj
 0001:00049dc0       ?SummonerStarExplosion@CBasicEffect@@QAEXXZ 1004adc0 f   BasicEffects.obj
 0001:00049e50       ?BulletStainSand@CBasicEffect@@QAEXH@Z 1004ae50 f   BasicEffects.obj
 0001:00049f60       ?BulletStainRedSand@CBasicEffect@@QAEXH@Z 1004af60 f   BasicEffects.obj
 0001:0004a080       ?BulletStainStone@CBasicEffect@@QAEXHH@Z 1004b080 f   BasicEffects.obj
 0001:0004a180       ?BulletStainWater@CBasicEffect@@QAEXH@Z 1004b180 f   BasicEffects.obj
 0001:0004a280       ?BulletTrail@CBasicEffect@@QAEXXZ 1004b280 f   BasicEffects.obj
 0001:0004a2d0       ?BulletStainGrass@CBasicEffect@@QAEXH@Z 1004b2d0 f   BasicEffects.obj
 0001:0004a3f0       ?BulletStainWood@CBasicEffect@@QAEXH@Z 1004b3f0 f   BasicEffects.obj
 0001:0004a510       ?BulletStainSnow@CBasicEffect@@QAEXH@Z 1004b510 f   BasicEffects.obj
 0001:0004a630       ?BulletStainGlass@CBasicEffect@@QAEXH@Z 1004b630 f   BasicEffects.obj
 0001:0004a750       ?BloodExplode@CBasicEffect@@QAEXXZ 1004b750 f   BasicEffects.obj
 0001:0004a870       ?BloodStain@CBasicEffect@@QAEXXZ 1004b870 f   BasicEffects.obj
 0001:0004a990       ?BloodStainGrow@CBasicEffect@@QAEXXZ 1004b990 f   BasicEffects.obj
 0001:0004aaa0       ?GizmoStain@CBasicEffect@@QAEXXZ 1004baa0 f   BasicEffects.obj
 0001:0004aba0       ?BloodSpill@CBasicEffect@@QAEXK@Z 1004bba0 f   BasicEffects.obj
 0001:0004acd0       ?Main@CBasicEffect@@QAEHABVCEntityEvent@@@Z 1004bcd0 f   BasicEffects.obj
 0001:0004b160       ?H0x02590001_Main_01@CBasicEffect@@QAEHABVCEntityEvent@@@Z 1004c160 f   BasicEffects.obj
 0001:0004b250       ?H0x02590002_Main_02@CBasicEffect@@QAEHABVCEntityEvent@@@Z 1004c250 f   BasicEffects.obj
 0001:0004b2b0       ?EffectLoop@CBasicEffect@@QAEHABVCEntityEvent@@@Z 1004c2b0 f   BasicEffects.obj
 0001:0004b350       ?H0x02590004_EffectLoop_01@CBasicEffect@@QAEHABVCEntityEvent@@@Z 1004c350 f   BasicEffects.obj
 0001:0004b3d0       ?H0x02590005_EffectLoop_02@CBasicEffect@@QAEHABVCEntityEvent@@@Z 1004c3d0 f   BasicEffects.obj
 0001:0004b430       ?H0x02590006_EffectLoop_03@CBasicEffect@@QAEHABVCEntityEvent@@@Z 1004c430 f   BasicEffects.obj
 0001:0004b510       ?H0x02590007_EffectLoop_04@CBasicEffect@@QAEHABVCEntityEvent@@@Z 1004c510 f   BasicEffects.obj
 0001:0004b590       ?H0x02590008_EffectLoop_05@CBasicEffect@@QAEHABVCEntityEvent@@@Z 1004c590 f   BasicEffects.obj
 0001:0004b600       ?H0x02590009_EffectLoop_06@CBasicEffect@@QAEHABVCEntityEvent@@@Z 1004c600 f   BasicEffects.obj
 0001:0004b6c0       ?H0x0259000a_EffectLoop_07@CBasicEffect@@QAEHABVCEntityEvent@@@Z 1004c6c0 f   BasicEffects.obj
 0001:0004b740       ?H0x0259000b_EffectLoop_08@CBasicEffect@@QAEHABVCEntityEvent@@@Z 1004c740 f   BasicEffects.obj
 0001:0004b7a0       ?H0x0259000c_EffectLoop_09@CBasicEffect@@QAEHABVCEntityEvent@@@Z 1004c7a0 f   BasicEffects.obj
 0001:0004b850       ?H0x0259000d_EffectLoop_10@CBasicEffect@@QAEHABVCEntityEvent@@@Z 1004c850 f   BasicEffects.obj
 0001:0004b8d0       ?H0x0259000e_EffectLoop_11@CBasicEffect@@QAEHABVCEntityEvent@@@Z 1004c8d0 f   BasicEffects.obj
 0001:0004b930       ?H0x0259000f_EffectLoop_12@CBasicEffect@@QAEHABVCEntityEvent@@@Z 1004c930 f   BasicEffects.obj
 0001:0004b990       ?GetPredictionPair@CBasicEffect@@UAEPAVCEntity@@XZ 1004c990 f i BasicEffects.obj
 0001:0004b9a0       ?SetPredictionPair@CBasicEffect@@UAEXPAVCEntity@@@Z 1004c9a0 f i BasicEffects.obj
 0001:0004b9e0       ??_ECBasicEffect@@UAEPAXI@Z 1004c9e0 f i BasicEffects.obj
 0001:0004b9e0       ??_GCBasicEffect@@UAEPAXI@Z 1004c9e0 f i BasicEffects.obj
 0001:0004ba10       ??1CBasicEffect@@UAE@XZ    1004ca10 f i BasicEffects.obj
 0001:0004bb00       ?ClearToDefault@@YAXAAW4BeastType@@@Z 1004cb00 f i Beast.obj
 0001:0004bd80       ?CBeast_New@@YAPAVCEntity@@XZ 1004cd80 f   Beast.obj
 0001:0004bde0       ?CBeast_OnInitClass@@YAXXZ 1004cde0 f   Beast.obj
 0001:0004bdf0       ?CBeast_OnEndClass@@YAXXZ  1004cdf0 f   Beast.obj
 0001:0004be00       ?CBeast_OnPrecache@@YAXPAVCDLLEntityClass@@J@Z 1004ce00 f   Beast.obj
 0001:0004be10       ?CBeast_OnWorldEnd@@YAXPAVCWorld@@@Z 1004ce10 f   Beast.obj
 0001:0004be20       ?CBeast_OnWorldInit@@YAXPAVCWorld@@@Z 1004ce20 f   Beast.obj
 0001:0004be30       ?CBeast_OnWorldTick@@YAXPAVCWorld@@@Z 1004ce30 f   Beast.obj
 0001:0004be40       ?CBeast_OnWorldRender@@YAXPAVCWorld@@@Z 1004ce40 f   Beast.obj
 0001:0004bea0       ?SetDefaultProperties@CBeast@@UAEXXZ 1004cea0 f   Beast.obj
 0001:0004bec0       ?GetPlayerKillDescription@CBeast@@UAE?AVCTString@@ABV2@ABVEDeath@@@Z 1004cec0 f   Beast.obj
 0001:0004bf60       ?GetComputerMessageName@CBeast@@UBEABVCTFileName@@XZ 1004cf60 f   Beast.obj
 0001:0004c050       ?Precache@CBeast@@UAEXXZ   1004d050 f   Beast.obj
 0001:0004c100       ?GetEntityInfo@CBeast@@UAEPAXXZ 1004d100 f   Beast.obj
 0001:0004c120       ?ShakeItBaby@CBeast@@QAEXMM@Z 1004d120 f   Beast.obj
 0001:0004c1c0       ?GetCrushHealth@CBeast@@UAEMXZ 1004d1c0 f   Beast.obj
 0001:0004c1f0       ?ForcesCannonballToExplode@CBeast@@UAEHXZ 1004d1f0 f   Beast.obj
 0001:0004c200       ?ReceiveDamage@CBeast@@UAEXPAVCEntity@@W4DamageType@@MABV?$Vector@M$02@@2@Z 1004d200 f   Beast.obj
 0001:0004c280       ?AnimForDamage@CBeast@@UAEJM@Z 1004d280 f   Beast.obj
 0001:0004c2d0       ?AnimForDeath@CBeast@@UAEJXZ 1004d2d0 f   Beast.obj
 0001:0004c300       ?WaitForDust@CBeast@@UAEMAAV?$Vector@M$02@@@Z 1004d300 f   Beast.obj
 0001:0004c380       ?DeathNotify@CBeast@@UAEXXZ 1004d380 f   Beast.obj
 0001:0004c3a0       ?StandingAnim@CBeast@@UAEXXZ 1004d3a0 f   Beast.obj
 0001:0004c3d0       ?WalkingAnim@CBeast@@UAEXXZ 1004d3d0 f   Beast.obj
 0001:0004c440       ?RunningAnim@CBeast@@UAEXXZ 1004d440 f   Beast.obj
 0001:0004c450       ?RotatingAnim@CBeast@@UAEXXZ 1004d450 f   Beast.obj
 0001:0004c460       ?IdleSound@CBeast@@UAEXXZ  1004d460 f   Beast.obj
 0001:0004c480       ?SightSound@CBeast@@UAEXXZ 1004d480 f   Beast.obj
 0001:0004c4a0       ?WoundSound@CBeast@@UAEXXZ 1004d4a0 f   Beast.obj
 0001:0004c500       ?DeathSound@CBeast@@UAEXXZ 1004d500 f   Beast.obj
 0001:0004c540       ?EnemyPostInit@CBeast@@UAEXXZ 1004d540 f   Beast.obj
 0001:0004c570       ?Death@CBeast@@QAEHABVCEntityEvent@@@Z 1004d570 f   Beast.obj
 0001:0004c660       ?H0x01500001_Death_01@CBeast@@QAEHABVCEntityEvent@@@Z 1004d660 f   Beast.obj
 0001:0004c6e0       ?H0x01500002_Death_02@CBeast@@QAEHABVCEntityEvent@@@Z 1004d6e0 f   Beast.obj
 0001:0004c780       ?H0x01500003_Death_03@CBeast@@QAEHABVCEntityEvent@@@Z 1004d780 f   Beast.obj
 0001:0004c800       ?H0x01500004_Death_04@CBeast@@QAEHABVCEntityEvent@@@Z 1004d800 f   Beast.obj
 0001:0004c9e0       ?H0x01500005_Death_05@CBeast@@QAEHABVCEntityEvent@@@Z 1004d9e0 f   Beast.obj
 0001:0004ca60       ?H0x01500006_Death_06@CBeast@@QAEHABVCEntityEvent@@@Z 1004da60 f   Beast.obj
 0001:0004cac0       ?Fire@CBeast@@QAEHABVCEntityEvent@@@Z 1004dac0 f   Beast.obj
 0001:0004cb30       ?H0x01500008_Fire_01@CBeast@@QAEHABVCEntityEvent@@@Z 1004db30 f   Beast.obj
 0001:0004cbd0       ?H0x01500009_Fire_02@CBeast@@QAEHABVCEntityEvent@@@Z 1004dbd0 f   Beast.obj
 0001:0004cc60       ?H0x0150000a_Fire_03@CBeast@@QAEHABVCEntityEvent@@@Z 1004dc60 f   Beast.obj
 0001:0004cd00       ?H0x0150000b_Fire_04@CBeast@@QAEHABVCEntityEvent@@@Z 1004dd00 f   Beast.obj
 0001:0004cd80       ?H0x0150000c_Fire_05@CBeast@@QAEHABVCEntityEvent@@@Z 1004dd80 f   Beast.obj
 0001:0004ce00       ?H0x0150000d_Fire_06@CBeast@@QAEHABVCEntityEvent@@@Z 1004de00 f   Beast.obj
 0001:0004cec0       ?H0x0150000e_Fire_07@CBeast@@QAEHABVCEntityEvent@@@Z 1004dec0 f   Beast.obj
 0001:0004cf40       ?H0x0150000f_Fire_08@CBeast@@QAEHABVCEntityEvent@@@Z 1004df40 f   Beast.obj
 0001:0004cfa0       ?H0x01500010_Fire_09@CBeast@@QAEHABVCEntityEvent@@@Z 1004dfa0 f   Beast.obj
 0001:0004d060       ?H0x01500015_Fire_14@CBeast@@QAEHABVCEntityEvent@@@Z 1004e060 f   Beast.obj
 0001:0004d0f0       ?H0x01500011_Fire_10@CBeast@@QAEHABVCEntityEvent@@@Z 1004e0f0 f   Beast.obj
 0001:0004d190       ?H0x01500012_Fire_11@CBeast@@QAEHABVCEntityEvent@@@Z 1004e190 f   Beast.obj
 0001:0004d210       ?H0x01500013_Fire_12@CBeast@@QAEHABVCEntityEvent@@@Z 1004e210 f   Beast.obj
 0001:0004d290       ?H0x01500014_Fire_13@CBeast@@QAEHABVCEntityEvent@@@Z 1004e290 f   Beast.obj
 0001:0004d340       ?H0x01500016_Fire_15@CBeast@@QAEHABVCEntityEvent@@@Z 1004e340 f   Beast.obj
 0001:0004d3b0       ?H0x01500017_Fire_16@CBeast@@QAEHABVCEntityEvent@@@Z 1004e3b0 f   Beast.obj
 0001:0004d450       ?H0x0150001c_Fire_21@CBeast@@QAEHABVCEntityEvent@@@Z 1004e450 f   Beast.obj
 0001:0004d4e0       ?H0x01500018_Fire_17@CBeast@@QAEHABVCEntityEvent@@@Z 1004e4e0 f   Beast.obj
 0001:0004d580       ?H0x01500019_Fire_18@CBeast@@QAEHABVCEntityEvent@@@Z 1004e580 f   Beast.obj
 0001:0004d600       ?H0x0150001a_Fire_19@CBeast@@QAEHABVCEntityEvent@@@Z 1004e600 f   Beast.obj
 0001:0004d680       ?H0x0150001b_Fire_20@CBeast@@QAEHABVCEntityEvent@@@Z 1004e680 f   Beast.obj
 0001:0004d730       ?H0x0150001d_Fire_22@CBeast@@QAEHABVCEntityEvent@@@Z 1004e730 f   Beast.obj
 0001:0004d790       ?H0x0150001e_Fire_23@CBeast@@QAEHABVCEntityEvent@@@Z 1004e790 f   Beast.obj
 0001:0004d7f0       ?H0x0150001f_Fire_24@CBeast@@QAEHABVCEntityEvent@@@Z 1004e7f0 f   Beast.obj
 0001:0004d8b0       ?H0x01500024_Fire_29@CBeast@@QAEHABVCEntityEvent@@@Z 1004e8b0 f   Beast.obj
 0001:0004d940       ?H0x01500020_Fire_25@CBeast@@QAEHABVCEntityEvent@@@Z 1004e940 f   Beast.obj
 0001:0004d9e0       ?H0x01500021_Fire_26@CBeast@@QAEHABVCEntityEvent@@@Z 1004e9e0 f   Beast.obj
 0001:0004da60       ?H0x01500022_Fire_27@CBeast@@QAEHABVCEntityEvent@@@Z 1004ea60 f   Beast.obj
 0001:0004dae0       ?H0x01500023_Fire_28@CBeast@@QAEHABVCEntityEvent@@@Z 1004eae0 f   Beast.obj
 0001:0004db90       ?H0x01500025_Fire_30@CBeast@@QAEHABVCEntityEvent@@@Z 1004eb90 f   Beast.obj
 0001:0004dc00       ?H0x01500026_Fire_31@CBeast@@QAEHABVCEntityEvent@@@Z 1004ec00 f   Beast.obj
 0001:0004dca0       ?H0x0150002b_Fire_36@CBeast@@QAEHABVCEntityEvent@@@Z 1004eca0 f   Beast.obj
 0001:0004dd30       ?H0x01500027_Fire_32@CBeast@@QAEHABVCEntityEvent@@@Z 1004ed30 f   Beast.obj
 0001:0004ddd0       ?H0x01500028_Fire_33@CBeast@@QAEHABVCEntityEvent@@@Z 1004edd0 f   Beast.obj
 0001:0004de50       ?H0x01500029_Fire_34@CBeast@@QAEHABVCEntityEvent@@@Z 1004ee50 f   Beast.obj
 0001:0004ded0       ?H0x0150002a_Fire_35@CBeast@@QAEHABVCEntityEvent@@@Z 1004eed0 f   Beast.obj
 0001:0004df80       ?H0x0150002c_Fire_37@CBeast@@QAEHABVCEntityEvent@@@Z 1004ef80 f   Beast.obj
 0001:0004dfe0       ?H0x0150002d_Fire_38@CBeast@@QAEHABVCEntityEvent@@@Z 1004efe0 f   Beast.obj
 0001:0004e040       ?H0x0150002e_Fire_39@CBeast@@QAEHABVCEntityEvent@@@Z 1004f040 f   Beast.obj
 0001:0004e0c0       ?H0x0150002f_Fire_40@CBeast@@QAEHABVCEntityEvent@@@Z 1004f0c0 f   Beast.obj
 0001:0004e140       ?H0x01500030_Fire_41@CBeast@@QAEHABVCEntityEvent@@@Z 1004f140 f   Beast.obj
 0001:0004e210       ?H0x01500031_Fire_42@CBeast@@QAEHABVCEntityEvent@@@Z 1004f210 f   Beast.obj
 0001:0004e2b0       ?H0x01500032_Fire_43@CBeast@@QAEHABVCEntityEvent@@@Z 1004f2b0 f   Beast.obj
 0001:0004e330       ?H0x01500033_Fire_44@CBeast@@QAEHABVCEntityEvent@@@Z 1004f330 f   Beast.obj
 0001:0004e3b0       ?H0x01500034_Fire_45@CBeast@@QAEHABVCEntityEvent@@@Z 1004f3b0 f   Beast.obj
 0001:0004e410       ?H0x01500035_Fire_46@CBeast@@QAEHABVCEntityEvent@@@Z 1004f410 f   Beast.obj
 0001:0004e470       ?H0x01500036_Fire_47@CBeast@@QAEHABVCEntityEvent@@@Z 1004f470 f   Beast.obj
 0001:0004e4d0       ?Hit@CBeast@@QAEHABVCEntityEvent@@@Z 1004f4d0 f   Beast.obj
 0001:0004e540       ?H0x01500038_Hit_01@CBeast@@QAEHABVCEntityEvent@@@Z 1004f540 f   Beast.obj
 0001:0004e5c0       ?H0x01500039_Hit_02@CBeast@@QAEHABVCEntityEvent@@@Z 1004f5c0 f   Beast.obj
 0001:0004e760       ?H0x0150003a_Hit_03@CBeast@@QAEHABVCEntityEvent@@@Z 1004f760 f   Beast.obj
 0001:0004e7e0       ?H0x0150003b_Hit_04@CBeast@@QAEHABVCEntityEvent@@@Z 1004f7e0 f   Beast.obj
 0001:0004e840       ?Main@CBeast@@QAEHABVCEntityEvent@@@Z 1004f840 f   Beast.obj
 0001:0004eba0       ??_ECBeast@@UAEPAXI@Z      1004fba0 f i Beast.obj
 0001:0004eba0       ??_GCBeast@@UAEPAXI@Z      1004fba0 f i Beast.obj
 0001:0004ebd0       ??1CBeast@@UAE@XZ          1004fbd0 f i Beast.obj
 0001:0004ed40       ?ClearToDefault@@YAXAAW4BigHeadType@@@Z 1004fd40 f i BigHead.obj
 0001:0004f120       ?CBigHead_New@@YAPAVCEntity@@XZ 10050120 f   BigHead.obj
 0001:0004f1f0       ?CBigHead_OnInitClass@@YAXXZ 100501f0 f   BigHead.obj
 0001:0004f200       ?CBigHead_OnEndClass@@YAXXZ 10050200 f   BigHead.obj
 0001:0004f210       ?CBigHead_OnPrecache@@YAXPAVCDLLEntityClass@@J@Z 10050210 f   BigHead.obj
 0001:0004f220       ?CBigHead_OnWorldEnd@@YAXPAVCWorld@@@Z 10050220 f   BigHead.obj
 0001:0004f230       ?CBigHead_OnWorldInit@@YAXPAVCWorld@@@Z 10050230 f   BigHead.obj
 0001:0004f240       ?CBigHead_OnWorldTick@@YAXPAVCWorld@@@Z 10050240 f   BigHead.obj
 0001:0004f250       ?CBigHead_OnWorldRender@@YAXPAVCWorld@@@Z 10050250 f   BigHead.obj
 0001:0004f2b0       ?SetDefaultProperties@CBigHead@@UAEXXZ 100502b0 f   BigHead.obj
 0001:0004f3b0       ?HandleEvent@CBigHead@@UAEHABVCEntityEvent@@@Z 100503b0 f   BigHead.obj
 0001:0004f400       ?GetEntityInfo@CBigHead@@UAEPAXXZ 10050400 f   BigHead.obj
 0001:0004f410       ?Precache@CBigHead@@UAEXXZ 10050410 f   BigHead.obj
 0001:0004f480       ?GetWalkAnim@CBigHead@@QAEJXZ 10050480 f   BigHead.obj
 0001:0004f4a0       ?AnimForDamage@CBigHead@@UAEJM@Z 100504a0 f   BigHead.obj
 0001:0004f4c0       ?AnimForDeath@CBigHead@@UAEJXZ 100504c0 f   BigHead.obj
 0001:0004f4d0       ?DeathNotify@CBigHead@@UAEXXZ 100504d0 f   BigHead.obj
 0001:0004f4e0       ?StandingAnim@CBigHead@@UAEXXZ 100504e0 f   BigHead.obj
 0001:0004f4f0       ?WalkingAnim@CBigHead@@UAEXXZ 100504f0 f   BigHead.obj
 0001:0004f550       ?RunningAnim@CBigHead@@UAEXXZ 10050550 f   BigHead.obj
 0001:0004f570       ?RotatingAnim@CBigHead@@UAEXXZ 10050570 f   BigHead.obj
 0001:0004f580       ?PlayWalkSound@CBigHead@@QAEXXZ 10050580 f   BigHead.obj
 0001:0004f600       ?IdleSound@CBigHead@@UAEXXZ 10050600 f   BigHead.obj
 0001:0004f630       ?SightSound@CBigHead@@UAEXXZ 10050630 f   BigHead.obj
 0001:0004f660       ?WoundSound@CBigHead@@UAEXXZ 10050660 f   BigHead.obj
 0001:0004f690       ?DeathSound@CBigHead@@UAEXXZ 10050690 f   BigHead.obj
 0001:0004f6c0       ?Fire@CBigHead@@QAEHABVCEntityEvent@@@Z 100506c0 f   BigHead.obj
 0001:0004f800       ?H0x01540001_Fire_01@CBigHead@@QAEHABVCEntityEvent@@@Z 10050800 f   BigHead.obj
 0001:0004f880       ?H0x01540002_Fire_02@CBigHead@@QAEHABVCEntityEvent@@@Z 10050880 f   BigHead.obj
 0001:0004f8e0       ?H0x01540003_Fire_03@CBigHead@@QAEHABVCEntityEvent@@@Z 100508e0 f   BigHead.obj
 0001:0004f940       ?Sleep@CBigHead@@QAEHABVCEntityEvent@@@Z 10050940 f   BigHead.obj
 0001:0004f9b0       ?H0x01540005_Sleep_01@CBigHead@@QAEHABVCEntityEvent@@@Z 100509b0 f   BigHead.obj
 0001:0004fa20       ?H0x01540006_Sleep_02@CBigHead@@QAEHABVCEntityEvent@@@Z 10050a20 f   BigHead.obj
 0001:0004fa30       ?WakeUp@CBigHead@@QAEHABVCEntityEvent@@@Z 10050a30 f   BigHead.obj
 0001:0004fac0       ?H0x01540008_WakeUp_01@CBigHead@@QAEHABVCEntityEvent@@@Z 10050ac0 f   BigHead.obj
 0001:0004fb40       ?H0x01540009_WakeUp_02@CBigHead@@QAEHABVCEntityEvent@@@Z 10050b40 f   BigHead.obj
 0001:0004fba0       ?PreMainLoop@CBigHead@@QAEHABVCEntityEvent@@@Z 10050ba0 f   BigHead.obj
 0001:0004fc40       ?H0x0154000b_PreMainLoop_01@CBigHead@@QAEHABVCEntityEvent@@@Z 10050c40 f   BigHead.obj
 0001:0004fd00       ?H0x0154000c_PreMainLoop_02@CBigHead@@QAEHABVCEntityEvent@@@Z 10050d00 f   BigHead.obj
 0001:0004fd60       ?H0x0154000d_PreMainLoop_03@CBigHead@@QAEHABVCEntityEvent@@@Z 10050d60 f   BigHead.obj
 0001:0004fdc0       ?Main@CBigHead@@QAEHABVCEntityEvent@@@Z 10050dc0 f   BigHead.obj
 0001:000500a0       ??_GCBigHead@@UAEPAXI@Z    100510a0 f i BigHead.obj
 0001:000500a0       ??_ECBigHead@@UAEPAXI@Z    100510a0 f i BigHead.obj
 0001:000500d0       ??1CBigHead@@UAE@XZ        100510d0 f i BigHead.obj
 0001:00050280       ?ClearToDefault@@YAXAAW4BlendControllerType@@@Z 10051280 f i BlendController.obj
 0001:00050370       ?CBlendController_New@@YAPAVCEntity@@XZ 10051370 f   BlendController.obj
 0001:00050410       ?CBlendController_OnInitClass@@YAXXZ 10051410 f   BlendController.obj
 0001:00050420       ?CBlendController_OnEndClass@@YAXXZ 10051420 f   BlendController.obj
 0001:00050430       ?CBlendController_OnPrecache@@YAXPAVCDLLEntityClass@@J@Z 10051430 f   BlendController.obj
 0001:00050440       ?CBlendController_OnWorldEnd@@YAXPAVCWorld@@@Z 10051440 f   BlendController.obj
 0001:00050450       ?CBlendController_OnWorldInit@@YAXPAVCWorld@@@Z 10051450 f   BlendController.obj
 0001:00050460       ?CBlendController_OnWorldTick@@YAXPAVCWorld@@@Z 10051460 f   BlendController.obj
 0001:00050470       ?CBlendController_OnWorldRender@@YAXPAVCWorld@@@Z 10051470 f   BlendController.obj
 0001:000504d0       ?SetDefaultProperties@CBlendController@@UAEXXZ 100514d0 f   BlendController.obj
 0001:000504e0       ?HandleEvent@CBlendController@@UAEHABVCEntityEvent@@@Z 100514e0 f   BlendController.obj
 0001:00050630       ?Main@CBlendController@@QAEHABVCEntityEvent@@@Z 10051630 f   BlendController.obj
 0001:00050690       ?IsImportant@CBlendController@@UBEHXZ 10051690 f i BlendController.obj
 0001:000506a0       ??_GCBlendController@@UAEPAXI@Z 100516a0 f i BlendController.obj
 0001:000506a0       ??_ECBlendController@@UAEPAXI@Z 100516a0 f i BlendController.obj
 0001:000506d0       ??1CBlendController@@UAE@XZ 100516d0 f i BlendController.obj
 0001:00050aa0       ?CBloodSpray_New@@YAPAVCEntity@@XZ 10051aa0 f   BloodSpray.obj
 0001:00050b60       ?CBloodSpray_OnInitClass@@YAXXZ 10051b60 f   BloodSpray.obj
 0001:00050b70       ?CBloodSpray_OnEndClass@@YAXXZ 10051b70 f   BloodSpray.obj
 0001:00050b80       ?CBloodSpray_OnPrecache@@YAXPAVCDLLEntityClass@@J@Z 10051b80 f   BloodSpray.obj
 0001:00050b90       ?CBloodSpray_OnWorldEnd@@YAXPAVCWorld@@@Z 10051b90 f   BloodSpray.obj
 0001:00050ba0       ?CBloodSpray_OnWorldInit@@YAXPAVCWorld@@@Z 10051ba0 f   BloodSpray.obj
 0001:00050bb0       ?CBloodSpray_OnWorldTick@@YAXPAVCWorld@@@Z 10051bb0 f   BloodSpray.obj
 0001:00050bc0       ?CBloodSpray_OnWorldRender@@YAXPAVCWorld@@@Z 10051bc0 f   BloodSpray.obj
 0001:00050c90       ?MakeCopy@ESpawnSpray@@UAEPAVCEntityEvent@@XZ 10051c90 f   BloodSpray.obj
 0001:00050d10       ??0ESpawnSpray@@QAE@XZ     10051d10 f   BloodSpray.obj
 0001:00050db0       ?SetDefaultProperties@CBloodSpray@@UAEXXZ 10051db0 f   BloodSpray.obj
 0001:00050f20       ?RenderParticles@CBloodSpray@@UAEXXZ 10051f20 f   BloodSpray.obj
 0001:00051460       ?Main@CBloodSpray@@QAEHABVCEntityEvent@@@Z 10052460 f   BloodSpray.obj
 0001:00051730       ?H0x025b0001_Main_01@CBloodSpray@@QAEHABVCEntityEvent@@@Z 10052730 f   BloodSpray.obj
 0001:000517b0       ?H0x025b0002_Main_02@CBloodSpray@@QAEHABVCEntityEvent@@@Z 100527b0 f   BloodSpray.obj
 0001:00051810       ?GetPredictionPair@CBloodSpray@@UAEPAVCEntity@@XZ 10052810 f i BloodSpray.obj
 0001:00051820       ?SetPredictionPair@CBloodSpray@@UAEXPAVCEntity@@@Z 10052820 f i BloodSpray.obj
 0001:00051860       ??_GCBloodSpray@@UAEPAXI@Z 10052860 f i BloodSpray.obj
 0001:00051860       ??_ECBloodSpray@@UAEPAXI@Z 10052860 f i BloodSpray.obj
 0001:00051890       ??1CBloodSpray@@UAE@XZ     10052890 f i BloodSpray.obj
 0001:00051c00       ?CBoneman_New@@YAPAVCEntity@@XZ 10052c00 f   Boneman.obj
 0001:00051c70       ?CBoneman_OnInitClass@@YAXXZ 10052c70 f   Boneman.obj
 0001:00051c80       ?CBoneman_OnEndClass@@YAXXZ 10052c80 f   Boneman.obj
 0001:00051c90       ?CBoneman_OnPrecache@@YAXPAVCDLLEntityClass@@J@Z 10052c90 f   Boneman.obj
 0001:00051ca0       ?CBoneman_OnWorldEnd@@YAXPAVCWorld@@@Z 10052ca0 f   Boneman.obj
 0001:00051cb0       ?CBoneman_OnWorldInit@@YAXPAVCWorld@@@Z 10052cb0 f   Boneman.obj
 0001:00051cc0       ?CBoneman_OnWorldTick@@YAXPAVCWorld@@@Z 10052cc0 f   Boneman.obj
 0001:00051cd0       ?CBoneman_OnWorldRender@@YAXPAVCWorld@@@Z 10052cd0 f   Boneman.obj
 0001:00051d30       ?SetDefaultProperties@CBoneman@@UAEXXZ 10052d30 f   Boneman.obj
 0001:00051d70       ?Precache@CBoneman@@UAEXXZ 10052d70 f   Boneman.obj
 0001:00051e00       ?GetPlayerKillDescription@CBoneman@@UAE?AVCTString@@ABV2@ABVEDeath@@@Z 10052e00 f   Boneman.obj
 0001:00051eb0       ?GetComputerMessageName@CBoneman@@UBEABVCTFileName@@XZ 10052eb0 f   Boneman.obj
 0001:00051f00       ?GetEntityInfo@CBoneman@@UAEPAXXZ 10052f00 f   Boneman.obj
 0001:00051f10       ?ReceiveDamage@CBoneman@@UAEXPAVCEntity@@W4DamageType@@MABV?$Vector@M$02@@2@Z 10052f10 f   Boneman.obj
 0001:00051f50       ?LeaveStain@CBoneman@@UAEXH@Z 10052f50 f   Boneman.obj
 0001:00051f60       ?AnimForDamage@CBoneman@@UAEJM@Z 10052f60 f   Boneman.obj
 0001:00051fe0       ?AnimForDeath@CBoneman@@UAEJXZ 10052fe0 f   Boneman.obj
 0001:00052030       ?WaitForDust@CBoneman@@UAEMAAV?$Vector@M$02@@@Z 10053030 f   Boneman.obj
 0001:00052110       ?DeathNotify@CBoneman@@UAEXXZ 10053110 f   Boneman.obj
 0001:00052120       ?StandingAnim@CBoneman@@UAEXXZ 10053120 f   Boneman.obj
 0001:00052140       ?WalkingAnim@CBoneman@@UAEXXZ 10053140 f   Boneman.obj
 0001:00052160       ?RunningAnim@CBoneman@@UAEXXZ 10053160 f   Boneman.obj
 0001:00052180       ?RotatingAnim@CBoneman@@UAEXXZ 10053180 f   Boneman.obj
 0001:000521a0       ?IdleSound@CBoneman@@UAEXXZ 100531a0 f   Boneman.obj
 0001:000521c0       ?SightSound@CBoneman@@UAEXXZ 100531c0 f   Boneman.obj
 0001:000521e0       ?WoundSound@CBoneman@@UAEXXZ 100531e0 f   Boneman.obj
 0001:00052200       ?DeathSound@CBoneman@@UAEXXZ 10053200 f   Boneman.obj
 0001:00052220       ?ActivateRunningSound@CBoneman@@QAEXXZ 10053220 f   Boneman.obj
 0001:00052250       ?DeactivateRunningSound@CBoneman@@QAEXXZ 10053250 f   Boneman.obj
 0001:00052270       ?BlowUp@CBoneman@@UAEXXZ   10053270 f   Boneman.obj
 0001:00052740       ?Fire@CBoneman@@QAEHABVCEntityEvent@@@Z 10053740 f   Boneman.obj
 0001:000527c0       ?H0x01310001_Fire_01@CBoneman@@QAEHABVCEntityEvent@@@Z 100537c0 f   Boneman.obj
 0001:00052840       ?H0x01310002_Fire_02@CBoneman@@QAEHABVCEntityEvent@@@Z 10053840 f   Boneman.obj
 0001:00052900       ?H0x01310003_Fire_03@CBoneman@@QAEHABVCEntityEvent@@@Z 10053900 f   Boneman.obj
 0001:00052980       ?H0x01310004_Fire_04@CBoneman@@QAEHABVCEntityEvent@@@Z 10053980 f   Boneman.obj
 0001:00052a50       ?H0x01310005_Fire_05@CBoneman@@QAEHABVCEntityEvent@@@Z 10053a50 f   Boneman.obj
 0001:00052ad0       ?H0x01310006_Fire_06@CBoneman@@QAEHABVCEntityEvent@@@Z 10053ad0 f   Boneman.obj
 0001:00052b30       ?Hit@CBoneman@@QAEHABVCEntityEvent@@@Z 10053b30 f   Boneman.obj
 0001:00052c20       ?JumpOnEnemy@CBoneman@@QAEHABVCEntityEvent@@@Z 10053c20 f   Boneman.obj
 0001:00052e30       ?H0x01310009_JumpOnEnemy_01@CBoneman@@QAEHABVCEntityEvent@@@Z 10053e30 f   Boneman.obj
 0001:00052ed0       ?H0x0131000a_JumpOnEnemy_02@CBoneman@@QAEHABVCEntityEvent@@@Z 10053ed0 f   Boneman.obj
 0001:00052f40       ?H0x0131000b_JumpOnEnemy_03@CBoneman@@QAEHABVCEntityEvent@@@Z 10053f40 f   Boneman.obj
 0001:00052fc0       ?H0x0131000c_JumpOnEnemy_04@CBoneman@@QAEHABVCEntityEvent@@@Z 10053fc0 f   Boneman.obj
 0001:00053020       ?HitWithBones@CBoneman@@QAEHABVCEntityEvent@@@Z 10054020 f   Boneman.obj
 0001:000530b0       ?H0x0131000e_HitWithBones_01@CBoneman@@QAEHABVCEntityEvent@@@Z 100540b0 f   Boneman.obj
 0001:00053130       ?H0x0131000f_HitWithBones_02@CBoneman@@QAEHABVCEntityEvent@@@Z 10054130 f   Boneman.obj
 0001:000531d0       ?H0x01310010_HitWithBones_03@CBoneman@@QAEHABVCEntityEvent@@@Z 100541d0 f   Boneman.obj
 0001:00053250       ?H0x01310011_HitWithBones_04@CBoneman@@QAEHABVCEntityEvent@@@Z 10054250 f   Boneman.obj
 0001:00053420       ?H0x01310012_HitWithBones_05@CBoneman@@QAEHABVCEntityEvent@@@Z 10054420 f   Boneman.obj
 0001:000534a0       ?H0x01310013_HitWithBones_06@CBoneman@@QAEHABVCEntityEvent@@@Z 100544a0 f   Boneman.obj
 0001:00053540       ?H0x01310014_HitWithBones_07@CBoneman@@QAEHABVCEntityEvent@@@Z 10054540 f   Boneman.obj
 0001:000535c0       ?H0x01310015_HitWithBones_08@CBoneman@@QAEHABVCEntityEvent@@@Z 100545c0 f   Boneman.obj
 0001:00053770       ?Main@CBoneman@@QAEHABVCEntityEvent@@@Z 10054770 f   Boneman.obj
 0001:00053980       ??_ECBoneman@@UAEPAXI@Z    10054980 f i Boneman.obj
 0001:00053980       ??_GCBoneman@@UAEPAXI@Z    10054980 f i Boneman.obj
 0001:000539b0       ??1CBoneman@@UAE@XZ        100549b0 f i Boneman.obj
 0001:00053d90       ?CBouncer_New@@YAPAVCEntity@@XZ 10054d90 f   Bouncer.obj
 0001:00053e20       ?CBouncer_OnInitClass@@YAXXZ 10054e20 f   Bouncer.obj
 0001:00053e30       ?CBouncer_OnEndClass@@YAXXZ 10054e30 f   Bouncer.obj
 0001:00053e40       ?CBouncer_OnPrecache@@YAXPAVCDLLEntityClass@@J@Z 10054e40 f   Bouncer.obj
 0001:00053e50       ?CBouncer_OnWorldEnd@@YAXPAVCWorld@@@Z 10054e50 f   Bouncer.obj
 0001:00053e60       ?CBouncer_OnWorldInit@@YAXPAVCWorld@@@Z 10054e60 f   Bouncer.obj
 0001:00053e70       ?CBouncer_OnWorldTick@@YAXPAVCWorld@@@Z 10054e70 f   Bouncer.obj
 0001:00053e80       ?CBouncer_OnWorldRender@@YAXPAVCWorld@@@Z 10054e80 f   Bouncer.obj
 0001:00053f50       ?JumpFromBouncer@@YAXPAVCEntity@@0@Z 10054f50 f   Bouncer.obj
 0001:00053fd0       ?SetDefaultProperties@CBouncer@@UAEXXZ 10054fd0 f   Bouncer.obj
 0001:000540a0       ?Main@CBouncer@@QAEHABVCEntityEvent@@@Z 100550a0 f   Bouncer.obj
 0001:00054130       ?GetName@CBouncer@@UBEABVCTString@@XZ 10055130 f i Bouncer.obj
 0001:00054140       ??_ECBouncer@@UAEPAXI@Z    10055140 f i Bouncer.obj
 0001:00054140       ??_GCBouncer@@UAEPAXI@Z    10055140 f i Bouncer.obj
 0001:00054170       ??1CBouncer@@UAE@XZ        10055170 f i Bouncer.obj
 0001:00054470       ?CBullet_New@@YAPAVCEntity@@XZ 10055470 f   Bullet.obj
 0001:000544f0       ?CBullet_OnInitClass@@YAXXZ 100554f0 f   Bullet.obj
 0001:00054500       ?CBullet_OnEndClass@@YAXXZ 10055500 f   Bullet.obj
 0001:00054510       ?CBullet_OnWorldEnd@@YAXPAVCWorld@@@Z 10055510 f   Bullet.obj
 0001:00054520       ?CBullet_OnWorldInit@@YAXPAVCWorld@@@Z 10055520 f   Bullet.obj
 0001:00054530       ?CBullet_OnWorldTick@@YAXPAVCWorld@@@Z 10055530 f   Bullet.obj
 0001:00054540       ?CBullet_OnWorldRender@@YAXPAVCWorld@@@Z 10055540 f   Bullet.obj
 0001:00054610       ?MakeCopy@EBulletInit@@UAEPAVCEntityEvent@@XZ 10055610 f   Bullet.obj
 0001:00054650       ??0EBulletInit@@QAE@XZ     10055650 f   Bullet.obj
 0001:000546c0       ?CBullet_OnPrecache@@YAXPAVCDLLEntityClass@@J@Z 100556c0 f   Bullet.obj
 0001:00054740       ?SetDefaultProperties@CBullet@@UAEXXZ 10055740 f   Bullet.obj
 0001:00054820       ?SetDamage@CBullet@@QAEXM@Z 10055820 f   Bullet.obj
 0001:00054830       ?CalcTarget@CBullet@@QAEXM@Z 10055830 f   Bullet.obj
 0001:000548b0       ?CalcTarget@CBullet@@QAEXPAVCEntity@@M@Z 100558b0 f   Bullet.obj
 0001:000549c0       ?CalcJitterTarget@CBullet@@QAEXM@Z 100559c0 f   Bullet.obj
 0001:00054ae0       ?CalcJitterTargetFixed@CBullet@@QAEXMMM@Z 10055ae0 f   Bullet.obj
 0001:00054c00       ?LaunchBullet@CBullet@@QAEXHHH@Z 10055c00 f   Bullet.obj
 0001:00055080       ?DestroyBullet@CBullet@@QAEXXZ 10056080 f   Bullet.obj
 0001:00055090       ?SpawnTrail@CBullet@@QAEXXZ 10056090 f   Bullet.obj
 0001:00055500       ?Main@CBullet@@QAEHABVCEntityEvent@@@Z 10056500 f   Bullet.obj
 0001:00055f10       ?CCamera_New@@YAPAVCEntity@@XZ 10056f10 f   Camera.obj
 0001:00055fe0       ?CCamera_OnInitClass@@YAXXZ 10056fe0 f   Camera.obj
 0001:00055ff0       ?CCamera_OnEndClass@@YAXXZ 10056ff0 f   Camera.obj
 0001:00056000       ?CCamera_OnPrecache@@YAXPAVCDLLEntityClass@@J@Z 10057000 f   Camera.obj
 0001:00056010       ?CCamera_OnWorldEnd@@YAXPAVCWorld@@@Z 10057010 f   Camera.obj
 0001:00056020       ?CCamera_OnWorldInit@@YAXPAVCWorld@@@Z 10057020 f   Camera.obj
 0001:00056030       ?CCamera_OnWorldTick@@YAXPAVCWorld@@@Z 10057030 f   Camera.obj
 0001:00056040       ?CCamera_OnWorldRender@@YAXPAVCWorld@@@Z 10057040 f   Camera.obj
 0001:00056110       ?SetDefaultProperties@CCamera@@UAEXXZ 10057110 f   Camera.obj
 0001:00056430       ?RenderParticles@CCamera@@UAEXXZ 10057430 f   Camera.obj
 0001:00056450       ?MovesByTargetedRoute@CCamera@@UBEHAAVCTString@@@Z 10057450 f   Camera.obj
 0001:00056480       ?DropsMarker@CCamera@@UBEHAAVCTFileName@@AAVCTString@@@Z 10057480 f   Camera.obj
 0001:00056520       ?GetDescription@CCamera@@UBEABVCTString@@XZ 10057520 f   Camera.obj
 0001:00056570       ?GetAutoRotatePlacement@CCamera@@QBEXMAAV?$Vector@M$02@@AAV?$Matrix@M$02$02@@AAVCPlacement3D@@V2@@Z 10057570 f   Camera.obj
 0001:000566a0       ?GetLerpedPlacement@CCamera@@UBE?AVCPlacement3D@@XZ 100576a0 f   Camera.obj
 0001:000568b0       ?CalcTargetedRotation@CCamera@@QBEXABV?$Vector@M$02@@PAVCEntity@@V2@AAV?$Matrix@M$02$02@@H@Z 100578b0 f   Camera.obj
 0001:00056970       ?PreMoving@CCamera@@UAEXXZ 10057970 f   Camera.obj
 0001:00056990       ?DoMoving@CCamera@@UAEXXZ  10057990 f   Camera.obj
 0001:00058890       ?PostMoving@CCamera@@UAEXXZ 10059890 f   Camera.obj
 0001:00058900       ?PlayStaticCamera@CCamera@@QAEHABVCEntityEvent@@@Z 10059900 f   Camera.obj
 0001:000589e0       ?H0x00dc0001_PlayStaticCamera_01@CCamera@@QAEHABVCEntityEvent@@@Z 100599e0 f   Camera.obj
 0001:00058a60       ?H0x00dc0002_PlayStaticCamera_02@CCamera@@QAEHABVCEntityEvent@@@Z 10059a60 f   Camera.obj
 0001:00058b20       ?PlayAutoRotatingCamera@CCamera@@QAEHABVCEntityEvent@@@Z 10059b20 f   Camera.obj
 0001:00058c00       ?H0x00dc0004_PlayAutoRotatingCamera_01@CCamera@@QAEHABVCEntityEvent@@@Z 10059c00 f   Camera.obj
 0001:00058d00       ?H0x00dc0005_PlayAutoRotatingCamera_02@CCamera@@QAEHABVCEntityEvent@@@Z 10059d00 f   Camera.obj
 0001:00058d60       ?PlayMovingCamera@CCamera@@QAEHABVCEntityEvent@@@Z 10059d60 f   Camera.obj
 0001:00059010       ?H0x00dc0007_PlayMovingCamera_01@CCamera@@QAEHABVCEntityEvent@@@Z 1005a010 f   Camera.obj
 0001:000590f0       ?H0x00dc0008_PlayMovingCamera_02@CCamera@@QAEHABVCEntityEvent@@@Z 1005a0f0 f   Camera.obj
 0001:00059150       ?PlayCamera@CCamera@@QAEHABVCEntityEvent@@@Z 1005a150 f   Camera.obj
 0001:00059200       ?Main@CCamera@@QAEHABVCEntityEvent@@@Z 1005a200 f   Camera.obj
 0001:00059360       ?H0x00dc000a_Main_01@CCamera@@QAEHABVCEntityEvent@@@Z 1005a360 f   Camera.obj
 0001:000593e0       ?H0x00dc000b_Main_02@CCamera@@QAEHABVCEntityEvent@@@Z 1005a3e0 f   Camera.obj
 0001:00059440       ?H0x00dc000c_Main_03@CCamera@@QAEHABVCEntityEvent@@@Z 1005a440 f   Camera.obj
 0001:00059570       ?H0x00dc000f_Main_06@CCamera@@QAEHABVCEntityEvent@@@Z 1005a570 f   Camera.obj
 0001:000595e0       ?H0x00dc000d_Main_04@CCamera@@QAEHABVCEntityEvent@@@Z 1005a5e0 f   Camera.obj
 0001:000596a0       ?H0x00dc000e_Main_05@CCamera@@QAEHABVCEntityEvent@@@Z 1005a6a0 f   Camera.obj
 0001:00059700       ?H0x00dc0010_Main_07@CCamera@@QAEHABVCEntityEvent@@@Z 1005a700 f   Camera.obj
 0001:00059760       ?GetName@CCamera@@UBEABVCTString@@XZ 1005a760 f i Camera.obj
 0001:00059770       ?IsTargetable@CCamera@@UBEHXZ 1005a770 f i Camera.obj
 0001:00059780       ?IsImportant@CCamera@@UBEHXZ 1005a780 f i Camera.obj
 0001:00059790       ??_GCCamera@@UAEPAXI@Z     1005a790 f i Camera.obj
 0001:00059790       ??_ECCamera@@UAEPAXI@Z     1005a790 f i Camera.obj
 0001:000597c0       ??1CCamera@@UAE@XZ         1005a7c0 f i Camera.obj
 0001:00059900       ??0?$Quaternion@M@@QAE@MMMM@Z 1005a900 f i Camera.obj
 0001:00059920       ?FromMatrix@?$Quaternion@M@@QAEXAAV?$Matrix@M$02$02@@@Z 1005a920 f i Camera.obj
 0001:00059a60       ??G?$Quaternion@M@@QBE?AV0@ABV0@@Z 1005aa60 f i Camera.obj
 0001:00059ab0       ??K?$Quaternion@M@@QBE?AV0@M@Z 1005aab0 f i Camera.obj
 0001:00059b00       ?Log@@YA?AV?$Quaternion@M@@ABV1@@Z 1005ab00 f i Camera.obj
 0001:00059bc0       ?Exp@@YA?AV?$Quaternion@M@@ABV1@@Z 1005abc0 f i Camera.obj
 0001:00059c90       ?Squad@@YA?AV?$Quaternion@M@@MABV1@000@Z 1005ac90 f i Camera.obj
 0001:00059f80       ?Slerp@@YA?AV?$Quaternion@M@@MABV1@0@Z 1005af80 f i Camera.obj
 0001:0005a0e0       ??S?$Quaternion@M@@QBE?AV0@XZ 1005b0e0 f i Camera.obj
 0001:0005a130       ?Norm@?$Quaternion@M@@QBEMXZ 1005b130 f i Camera.obj
 0001:0005a4e0       ?CCameraMarker_New@@YAPAVCEntity@@XZ 1005b4e0 f   CameraMarker.obj
 0001:0005a590       ?CCameraMarker_OnInitClass@@YAXXZ 1005b590 f   CameraMarker.obj
 0001:0005a5a0       ?CCameraMarker_OnEndClass@@YAXXZ 1005b5a0 f   CameraMarker.obj
 0001:0005a5b0       ?CCameraMarker_OnPrecache@@YAXPAVCDLLEntityClass@@J@Z 1005b5b0 f   CameraMarker.obj
 0001:0005a5c0       ?CCameraMarker_OnWorldEnd@@YAXPAVCWorld@@@Z 1005b5c0 f   CameraMarker.obj
 0001:0005a5d0       ?CCameraMarker_OnWorldInit@@YAXPAVCWorld@@@Z 1005b5d0 f   CameraMarker.obj
 0001:0005a5e0       ?CCameraMarker_OnWorldTick@@YAXPAVCWorld@@@Z 1005b5e0 f   CameraMarker.obj
 0001:0005a5f0       ?CCameraMarker_OnWorldRender@@YAXPAVCWorld@@@Z 1005b5f0 f   CameraMarker.obj
 0001:0005a650       ?SetDefaultProperties@CCameraMarker@@UAEXXZ 1005b650 f   CameraMarker.obj
 0001:0005a730       ?DropsMarker@CCameraMarker@@UBEHAAVCTFileName@@AAVCTString@@@Z 1005b730 f   CameraMarker.obj
 0001:0005a7d0       ?GetUsedMemory@CCameraMarker@@UAEJXZ 1005b7d0 f   CameraMarker.obj
 0001:0005a7e0       ?Main@CCameraMarker@@QAEHABVCEntityEvent@@@Z 1005b7e0 f   CameraMarker.obj
 0001:0005a990       ??_ECCameraMarker@@UAEPAXI@Z 1005b990 f i CameraMarker.obj
 0001:0005a990       ??_GCCameraMarker@@UAEPAXI@Z 1005b990 f i CameraMarker.obj
 0001:0005a9c0       ??1CCameraMarker@@UAE@XZ   1005b9c0 f i CameraMarker.obj
 0001:0005aee0       ?CCannonBall_New@@YAPAVCEntity@@XZ 1005bee0 f   CannonBall.obj
 0001:0005afa0       ?CCannonBall_OnInitClass@@YAXXZ 1005bfa0 f   CannonBall.obj
 0001:0005afb0       ?CCannonBall_OnEndClass@@YAXXZ 1005bfb0 f   CannonBall.obj
 0001:0005afc0       ?CCannonBall_OnWorldEnd@@YAXPAVCWorld@@@Z 1005bfc0 f   CannonBall.obj
 0001:0005afd0       ?CCannonBall_OnWorldInit@@YAXPAVCWorld@@@Z 1005bfd0 f   CannonBall.obj
 0001:0005afe0       ?CCannonBall_OnWorldTick@@YAXPAVCWorld@@@Z 1005bfe0 f   CannonBall.obj
 0001:0005aff0       ?CCannonBall_OnWorldRender@@YAXPAVCWorld@@@Z 1005bff0 f   CannonBall.obj
 0001:0005b0c0       ?MakeCopy@ELaunchCannonBall@@UAEPAVCEntityEvent@@XZ 1005c0c0 f   CannonBall.obj
 0001:0005b110       ??0ELaunchCannonBall@@QAE@XZ 1005c110 f   CannonBall.obj
 0001:0005b180       ?MakeCopy@EForceExplode@@UAEPAVCEntityEvent@@XZ 1005c180 f   CannonBall.obj
 0001:0005b1b0       ??0EForceExplode@@QAE@XZ   1005c1b0 f   CannonBall.obj
 0001:0005b1c0       ?CCannonBall_OnPrecache@@YAXPAVCDLLEntityClass@@J@Z 1005c1c0 f   CannonBall.obj
 0001:0005b240       ?SetDefaultProperties@CCannonBall@@UAEXXZ 1005c240 f   CannonBall.obj
 0001:0005b300       ?PreMoving@CCannonBall@@UAEXXZ 1005c300 f   CannonBall.obj
 0001:0005b360       ?PostMoving@CCannonBall@@UAEXXZ 1005c360 f   CannonBall.obj
 0001:0005b440       ?Read_t@CCannonBall@@UAEXPAVCTStream@@@Z 1005c440 f   CannonBall.obj
 0001:0005b460       ?AdjustShadingParameters@CCannonBall@@UAEHAAV?$Vector@M$02@@AAK1@Z 1005c460 f   CannonBall.obj
 0001:0005b4c0       ?RenderParticles@CCannonBall@@UAEXXZ 1005c4c0 f   CannonBall.obj
 0001:0005b590       ?Initialize@CCannonBall@@QAEXXZ 1005c590 f   CannonBall.obj
 0001:0005b6e0       ?CalculateDamageToInflict@CCannonBall@@QAEMXZ 1005c6e0 f   CannonBall.obj
 0001:0005b750       ?Explosion@CCannonBall@@QAEXV?$Vector@M$02@@ABV2@11HHHH@Z 1005c750 f   CannonBall.obj
 0001:0005b9a0       ?BallTouchExplode@CCannonBall@@QAEHVCEntityPointer@@@Z 1005c9a0 f   CannonBall.obj
 0001:0005bb70       ?RangeDamage@CCannonBall@@QAEXXZ 1005cb70 f   CannonBall.obj
 0001:0005bbf0       ?SpawnEffect@CCannonBall@@QAEXABVCPlacement3D@@ABVESpawnEffect@@@Z 1005cbf0 f   CannonBall.obj
 0001:0005bc70       ?BounceSound@CCannonBall@@QAEXM@Z 1005cc70 f   CannonBall.obj
 0001:0005bd10       ?Bounce@CCannonBall@@QAEHABVCEntityEvent@@@Z 1005cd10 f   CannonBall.obj
 0001:0005bdc0       ?H0x01fa0003_Bounce_01@CCannonBall@@QAEHABVCEntityEvent@@@Z 1005cdc0 f   CannonBall.obj
 0001:0005c140       ?H0x01fa0004_Bounce_02@CCannonBall@@QAEHABVCEntityEvent@@@Z 1005d140 f   CannonBall.obj
 0001:0005c1a0       ?Main@CCannonBall@@QAEHABVCEntityEvent@@@Z 1005d1a0 f   CannonBall.obj
 0001:0005c2b0       ?H0x01fa0005_Main_01@CCannonBall@@QAEHABVCEntityEvent@@@Z 1005d2b0 f   CannonBall.obj
 0001:0005c340       ?H0x01fa0006_Main_02@CCannonBall@@QAEHABVCEntityEvent@@@Z 1005d340 f   CannonBall.obj
 0001:0005c490       ?H0x01fa0007_Main_03@CCannonBall@@QAEHABVCEntityEvent@@@Z 1005d490 f   CannonBall.obj
 0001:0005c530       ?H0x01fa0008_Main_04@CCannonBall@@QAEHABVCEntityEvent@@@Z 1005d530 f   CannonBall.obj
 0001:0005c8a0       ?H0x01fa0023_Main_31@CCannonBall@@QAEHABVCEntityEvent@@@Z 1005d8a0 f   CannonBall.obj
 0001:0005c9c0       ?H0x01fa0009_Main_05@CCannonBall@@QAEHABVCEntityEvent@@@Z 1005d9c0 f   CannonBall.obj
 0001:0005ca40       ?H0x01fa000a_Main_06@CCannonBall@@QAEHABVCEntityEvent@@@Z 1005da40 f   CannonBall.obj
 0001:0005cb30       ?H0x01fa000b_Main_07@CCannonBall@@QAEHABVCEntityEvent@@@Z 1005db30 f   CannonBall.obj
 0001:0005cbb0       ?H0x01fa000c_Main_08@CCannonBall@@QAEHABVCEntityEvent@@@Z 1005dbb0 f   CannonBall.obj
 0001:0005cca0       ?H0x01fa000d_Main_09@CCannonBall@@QAEHABVCEntityEvent@@@Z 1005dca0 f   CannonBall.obj
 0001:0005cd20       ?H0x01fa000e_Main_10@CCannonBall@@QAEHABVCEntityEvent@@@Z 1005dd20 f   CannonBall.obj
 0001:0005ce10       ?H0x01fa000f_Main_11@CCannonBall@@QAEHABVCEntityEvent@@@Z 1005de10 f   CannonBall.obj
 0001:0005ce90       ?H0x01fa0010_Main_12@CCannonBall@@QAEHABVCEntityEvent@@@Z 1005de90 f   CannonBall.obj
 0001:0005cf80       ?H0x01fa0011_Main_13@CCannonBall@@QAEHABVCEntityEvent@@@Z 1005df80 f   CannonBall.obj
 0001:0005d000       ?H0x01fa0012_Main_14@CCannonBall@@QAEHABVCEntityEvent@@@Z 1005e000 f   CannonBall.obj
 0001:0005d0f0       ?H0x01fa0013_Main_15@CCannonBall@@QAEHABVCEntityEvent@@@Z 1005e0f0 f   CannonBall.obj
 0001:0005d170       ?H0x01fa0014_Main_16@CCannonBall@@QAEHABVCEntityEvent@@@Z 1005e170 f   CannonBall.obj
 0001:0005d260       ?H0x01fa0015_Main_17@CCannonBall@@QAEHABVCEntityEvent@@@Z 1005e260 f   CannonBall.obj
 0001:0005d2e0       ?H0x01fa0016_Main_18@CCannonBall@@QAEHABVCEntityEvent@@@Z 1005e2e0 f   CannonBall.obj
 0001:0005d3d0       ?H0x01fa0017_Main_19@CCannonBall@@QAEHABVCEntityEvent@@@Z 1005e3d0 f   CannonBall.obj
 0001:0005d450       ?H0x01fa0018_Main_20@CCannonBall@@QAEHABVCEntityEvent@@@Z 1005e450 f   CannonBall.obj
 0001:0005d540       ?H0x01fa0019_Main_21@CCannonBall@@QAEHABVCEntityEvent@@@Z 1005e540 f   CannonBall.obj
 0001:0005d5c0       ?H0x01fa001a_Main_22@CCannonBall@@QAEHABVCEntityEvent@@@Z 1005e5c0 f   CannonBall.obj
 0001:0005d6b0       ?H0x01fa001b_Main_23@CCannonBall@@QAEHABVCEntityEvent@@@Z 1005e6b0 f   CannonBall.obj
 0001:0005d730       ?H0x01fa001c_Main_24@CCannonBall@@QAEHABVCEntityEvent@@@Z 1005e730 f   CannonBall.obj
 0001:0005d820       ?H0x01fa001d_Main_25@CCannonBall@@QAEHABVCEntityEvent@@@Z 1005e820 f   CannonBall.obj
 0001:0005d8a0       ?H0x01fa001e_Main_26@CCannonBall@@QAEHABVCEntityEvent@@@Z 1005e8a0 f   CannonBall.obj
 0001:0005d990       ?H0x01fa001f_Main_27@CCannonBall@@QAEHABVCEntityEvent@@@Z 1005e990 f   CannonBall.obj
 0001:0005da10       ?H0x01fa0020_Main_28@CCannonBall@@QAEHABVCEntityEvent@@@Z 1005ea10 f   CannonBall.obj
 0001:0005daf0       ?H0x01fa0021_Main_29@CCannonBall@@QAEHABVCEntityEvent@@@Z 1005eaf0 f   CannonBall.obj
 0001:0005db50       ?H0x01fa0022_Main_30@CCannonBall@@QAEHABVCEntityEvent@@@Z 1005eb50 f   CannonBall.obj
 0001:0005e1e0       ?CCannonRotating_New@@YAPAVCEntity@@XZ 1005f1e0 f   CannonRotating.obj
 0001:0005e240       ?CCannonRotating_OnInitClass@@YAXXZ 1005f240 f   CannonRotating.obj
 0001:0005e250       ?CCannonRotating_OnEndClass@@YAXXZ 1005f250 f   CannonRotating.obj
 0001:0005e260       ?CCannonRotating_OnPrecache@@YAXPAVCDLLEntityClass@@J@Z 1005f260 f   CannonRotating.obj
 0001:0005e270       ?CCannonRotating_OnWorldEnd@@YAXPAVCWorld@@@Z 1005f270 f   CannonRotating.obj
 0001:0005e280       ?CCannonRotating_OnWorldInit@@YAXPAVCWorld@@@Z 1005f280 f   CannonRotating.obj
 0001:0005e290       ?CCannonRotating_OnWorldTick@@YAXPAVCWorld@@@Z 1005f290 f   CannonRotating.obj
 0001:0005e2a0       ?CCannonRotating_OnWorldRender@@YAXPAVCWorld@@@Z 1005f2a0 f   CannonRotating.obj
 0001:0005e300       ?SetDefaultProperties@CCannonRotating@@UAEXXZ 1005f300 f   CannonRotating.obj
 0001:0005e4f0       ?GetPlayerKillDescription@CCannonRotating@@UAE?AVCTString@@ABV2@ABVEDeath@@@Z 1005f4f0 f   CannonRotating.obj
 0001:0005e590       ?GetEntityInfo@CCannonRotating@@UAEPAXXZ 1005f590 f   CannonRotating.obj
 0001:0005e5a0       ?GetComputerMessageName@CCannonRotating@@UBEABVCTFileName@@XZ 1005f5a0 f   CannonRotating.obj
 0001:0005e5f0       ?Precache@CCannonRotating@@UAEXXZ 1005f5f0 f   CannonRotating.obj
 0001:0005e650       ?ReceiveDamage@CCannonRotating@@UAEXPAVCEntity@@W4DamageType@@MABV?$Vector@M$02@@2@Z 1005f650 f   CannonRotating.obj
 0001:0005e6a0       ?AnimForDamage@CCannonRotating@@UAEJM@Z 1005f6a0 f   CannonRotating.obj
 0001:0005e6b0       ?AnimForDeath@CCannonRotating@@UAEJXZ 1005f6b0 f   CannonRotating.obj
 0001:0005e6c0       ?IsVisible@CCannonRotating@@QAEHPAVCEntity@@@Z 1005f6c0 f   CannonRotating.obj
 0001:0005e770       ?IsInTheLineOfFire@CCannonRotating@@QAEHPAVCEntity@@M@Z 1005f770 f   CannonRotating.obj
 0001:0005e940       ?AcquireTarget@CCannonRotating@@QAEPAVCPlayer@@XZ 1005f940 f   CannonRotating.obj
 0001:0005ea00       ?CannonBlowUp@CCannonRotating@@QAEXXZ 1005fa00 f   CannonRotating.obj
 0001:0005f120       ?PreMoving@CCannonRotating@@UAEXXZ 10060120 f   CannonRotating.obj
 0001:0005f140       ?PostMoving@CCannonRotating@@UAEXXZ 10060140 f   CannonRotating.obj
 0001:0005f160       ?AdjustShadingParameters@CCannonRotating@@UAEHAAV?$Vector@M$02@@AAK1@Z 10060160 f   CannonRotating.obj
 0001:0005f3c0       ?UpdateAttachmentRotations@CCannonRotating@@QAEXXZ 100603c0 f   CannonRotating.obj
 0001:0005f4a0       ?UpdateFiringPos@CCannonRotating@@QAEXXZ 100604a0 f   CannonRotating.obj
 0001:0005f650       ?MainLoop@CCannonRotating@@QAEHABVCEntityEvent@@@Z 10060650 f   CannonRotating.obj
 0001:0005f6c0       ?H0x01590001_MainLoop_01@CCannonRotating@@QAEHABVCEntityEvent@@@Z 100606c0 f   CannonRotating.obj
 0001:0005f780       ?H0x01590002_MainLoop_02@CCannonRotating@@QAEHABVCEntityEvent@@@Z 10060780 f   CannonRotating.obj
 0001:0005f7e0       ?Scan@CCannonRotating@@QAEHABVCEntityEvent@@@Z 100607e0 f   CannonRotating.obj
 0001:0005f840       ?H0x0159000e_Scan_11@CCannonRotating@@QAEHABVCEntityEvent@@@Z 10060840 f   CannonRotating.obj
 0001:0005f8b0       ?H0x01590004_Scan_01@CCannonRotating@@QAEHABVCEntityEvent@@@Z 100608b0 f   CannonRotating.obj
 0001:0005f930       ?H0x01590005_Scan_02@CCannonRotating@@QAEHABVCEntityEvent@@@Z 10060930 f   CannonRotating.obj
 0001:0005fad0       ?H0x01590006_Scan_03@CCannonRotating@@QAEHABVCEntityEvent@@@Z 10060ad0 f   CannonRotating.obj
 0001:0005fb50       ?H0x01590007_Scan_04@CCannonRotating@@QAEHABVCEntityEvent@@@Z 10060b50 f   CannonRotating.obj
 0001:0005fbb0       ?H0x01590008_Scan_05@CCannonRotating@@QAEHABVCEntityEvent@@@Z 10060bb0 f   CannonRotating.obj
 0001:0005fd40       ?H0x01590009_Scan_06@CCannonRotating@@QAEHABVCEntityEvent@@@Z 10060d40 f   CannonRotating.obj
 0001:0005fde0       ?H0x0159000a_Scan_07@CCannonRotating@@QAEHABVCEntityEvent@@@Z 10060de0 f   CannonRotating.obj
 0001:0005fe40       ?H0x0159000b_Scan_08@CCannonRotating@@QAEHABVCEntityEvent@@@Z 10060e40 f   CannonRotating.obj
 0001:0005fea0       ?H0x0159000c_Scan_09@CCannonRotating@@QAEHABVCEntityEvent@@@Z 10060ea0 f   CannonRotating.obj
 0001:0005ff00       ?H0x0159000d_Scan_10@CCannonRotating@@QAEHABVCEntityEvent@@@Z 10060f00 f   CannonRotating.obj
 0001:0005ff60       ?H0x0159000f_Scan_12@CCannonRotating@@QAEHABVCEntityEvent@@@Z 10060f60 f   CannonRotating.obj
 0001:0005ff70       ?Die@CCannonRotating@@QAEHABVCEntityEvent@@@Z 10060f70 f   CannonRotating.obj
 0001:00060180       ?RotateMuzzle@CCannonRotating@@QAEHABVCEntityEvent@@@Z 10061180 f   CannonRotating.obj
 0001:00060290       ?H0x01590012_RotateMuzzle_01@CCannonRotating@@QAEHABVCEntityEvent@@@Z 10061290 f   CannonRotating.obj
 0001:00060310       ?H0x01590013_RotateMuzzle_02@CCannonRotating@@QAEHABVCEntityEvent@@@Z 10061310 f   CannonRotating.obj
 0001:00060390       ?FireCannon@CCannonRotating@@QAEHABVCEntityEvent@@@Z 10061390 f   CannonRotating.obj
 0001:000606a0       ?H0x01590015_FireCannon_01@CCannonRotating@@QAEHABVCEntityEvent@@@Z 100616a0 f   CannonRotating.obj
 0001:00060740       ?H0x01590016_FireCannon_02@CCannonRotating@@QAEHABVCEntityEvent@@@Z 10061740 f   CannonRotating.obj
 0001:00060980       ?Inactive@CCannonRotating@@QAEHABVCEntityEvent@@@Z 10061980 f   CannonRotating.obj
 0001:00060a40       ?H0x01590018_Inactive_01@CCannonRotating@@QAEHABVCEntityEvent@@@Z 10061a40 f   CannonRotating.obj
 0001:00060ac0       ?H0x01590019_Inactive_02@CCannonRotating@@QAEHABVCEntityEvent@@@Z 10061ac0 f   CannonRotating.obj
 0001:00060ad0       ?Main@CCannonRotating@@QAEHABVCEntityEvent@@@Z 10061ad0 f   CannonRotating.obj
 0001:00060cc0       ?H0x0159001a_Main_01@CCannonRotating@@QAEHABVCEntityEvent@@@Z 10061cc0 f   CannonRotating.obj
 0001:00060d40       ?H0x0159001b_Main_02@CCannonRotating@@QAEHABVCEntityEvent@@@Z 10061d40 f   CannonRotating.obj
 0001:00060df0       ??_GCCannonRotating@@UAEPAXI@Z 10061df0 f i CannonRotating.obj
 0001:00060df0       ??_ECCannonRotating@@UAEPAXI@Z 10061df0 f i CannonRotating.obj
 0001:00060e20       ??1CCannonRotating@@UAE@XZ 10061e20 f i CannonRotating.obj
 0001:00061470       ?CCannonStatic_New@@YAPAVCEntity@@XZ 10062470 f   CannonStatic.obj
 0001:000614d0       ?CCannonStatic_OnInitClass@@YAXXZ 100624d0 f   CannonStatic.obj
 0001:000614e0       ?CCannonStatic_OnEndClass@@YAXXZ 100624e0 f   CannonStatic.obj
 0001:000614f0       ?CCannonStatic_OnPrecache@@YAXPAVCDLLEntityClass@@J@Z 100624f0 f   CannonStatic.obj
 0001:00061500       ?CCannonStatic_OnWorldEnd@@YAXPAVCWorld@@@Z 10062500 f   CannonStatic.obj
 0001:00061510       ?CCannonStatic_OnWorldInit@@YAXPAVCWorld@@@Z 10062510 f   CannonStatic.obj
 0001:00061520       ?CCannonStatic_OnWorldTick@@YAXPAVCWorld@@@Z 10062520 f   CannonStatic.obj
 0001:00061530       ?CCannonStatic_OnWorldRender@@YAXPAVCWorld@@@Z 10062530 f   CannonStatic.obj
 0001:00061590       ?SetDefaultProperties@CCannonStatic@@UAEXXZ 10062590 f   CannonStatic.obj
 0001:000616a0       ?GetPlayerKillDescription@CCannonStatic@@UAE?AVCTString@@ABV2@ABVEDeath@@@Z 100626a0 f   CannonStatic.obj
 0001:00061740       ?GetEntityInfo@CCannonStatic@@UAEPAXXZ 10062740 f   CannonStatic.obj
 0001:00061750       ?GetComputerMessageName@CCannonStatic@@UBEABVCTFileName@@XZ 10062750 f   CannonStatic.obj
 0001:000617a0       ?Precache@CCannonStatic@@UAEXXZ 100627a0 f   CannonStatic.obj
 0001:00061800       ?ReceiveDamage@CCannonStatic@@UAEXPAVCEntity@@W4DamageType@@MABV?$Vector@M$02@@2@Z 10062800 f   CannonStatic.obj
 0001:00061850       ?AnimForDamage@CCannonStatic@@UAEJM@Z 10062850 f   CannonStatic.obj
 0001:00061860       ?AnimForDeath@CCannonStatic@@UAEJXZ 10062860 f   CannonStatic.obj
 0001:00061870       ?IsVisible@CCannonStatic@@QAEHPAVCEntity@@@Z 10062870 f   CannonStatic.obj
 0001:00061920       ?IsInTheLineOfFire@CCannonStatic@@QAEHPAVCEntity@@M@Z 10062920 f   CannonStatic.obj
 0001:00061a50       ?AcquireTarget@CCannonStatic@@QAEPAVCPlayer@@XZ 10062a50 f   CannonStatic.obj
 0001:00061b10       ?CannonBlowUp@CCannonStatic@@QAEXXZ 10062b10 f   CannonStatic.obj
 0001:00062230       ?PreMoving@CCannonStatic@@UAEXXZ 10063230 f   CannonStatic.obj
 0001:00062250       ?PostMoving@CCannonStatic@@UAEXXZ 10063250 f   CannonStatic.obj
 0001:00062270       ?AdjustShadingParameters@CCannonStatic@@UAEHAAV?$Vector@M$02@@AAK1@Z 10063270 f   CannonStatic.obj
 0001:000623b0       ?UpdateAttachmentRotations@CCannonStatic@@QAEXXZ 100633b0 f   CannonStatic.obj
 0001:00062430       ?UpdateFiringPos@CCannonStatic@@QAEXXZ 10063430 f   CannonStatic.obj
 0001:00062540       ?MainLoop@CCannonStatic@@QAEHABVCEntityEvent@@@Z 10063540 f   CannonStatic.obj
 0001:000625b0       ?H0x01590001_MainLoop_01@CCannonStatic@@QAEHABVCEntityEvent@@@Z 100635b0 f   CannonStatic.obj
 0001:00062670       ?H0x01590002_MainLoop_02@CCannonStatic@@QAEHABVCEntityEvent@@@Z 10063670 f   CannonStatic.obj
 0001:000626d0       ?Die@CCannonStatic@@QAEHABVCEntityEvent@@@Z 100636d0 f   CannonStatic.obj
 0001:000628e0       ?RotateMuzzle@CCannonStatic@@QAEHABVCEntityEvent@@@Z 100638e0 f   CannonStatic.obj
 0001:000629f0       ?H0x01590005_RotateMuzzle_01@CCannonStatic@@QAEHABVCEntityEvent@@@Z 100639f0 f   CannonStatic.obj
 0001:00062a70       ?H0x01590006_RotateMuzzle_02@CCannonStatic@@QAEHABVCEntityEvent@@@Z 10063a70 f   CannonStatic.obj
 0001:00062b00       ?FireCannon@CCannonStatic@@QAEHABVCEntityEvent@@@Z 10063b00 f   CannonStatic.obj
 0001:00062da0       ?H0x01590008_FireCannon_01@CCannonStatic@@QAEHABVCEntityEvent@@@Z 10063da0 f   CannonStatic.obj
 0001:00062e40       ?H0x01590009_FireCannon_02@CCannonStatic@@QAEHABVCEntityEvent@@@Z 10063e40 f   CannonStatic.obj
 0001:00063070       ?WatchPlayers@CCannonStatic@@QAEHABVCEntityEvent@@@Z 10064070 f   CannonStatic.obj
 0001:000630d0       ?H0x01590013_WatchPlayers_09@CCannonStatic@@QAEHABVCEntityEvent@@@Z 100640d0 f   CannonStatic.obj
 0001:00063140       ?H0x0159000b_WatchPlayers_01@CCannonStatic@@QAEHABVCEntityEvent@@@Z 10064140 f   CannonStatic.obj
 0001:000631c0       ?H0x0159000c_WatchPlayers_02@CCannonStatic@@QAEHABVCEntityEvent@@@Z 100641c0 f   CannonStatic.obj
 0001:000632e0       ?H0x0159000d_WatchPlayers_03@CCannonStatic@@QAEHABVCEntityEvent@@@Z 100642e0 f   CannonStatic.obj
 0001:00063380       ?H0x0159000e_WatchPlayers_04@CCannonStatic@@QAEHABVCEntityEvent@@@Z 10064380 f   CannonStatic.obj
 0001:000633f0       ?H0x0159000f_WatchPlayers_05@CCannonStatic@@QAEHABVCEntityEvent@@@Z 100643f0 f   CannonStatic.obj
 0001:00063470       ?H0x01590010_WatchPlayers_06@CCannonStatic@@QAEHABVCEntityEvent@@@Z 10064470 f   CannonStatic.obj
 0001:000634d0       ?H0x01590011_WatchPlayers_07@CCannonStatic@@QAEHABVCEntityEvent@@@Z 100644d0 f   CannonStatic.obj
 0001:00063530       ?H0x01590012_WatchPlayers_08@CCannonStatic@@QAEHABVCEntityEvent@@@Z 10064530 f   CannonStatic.obj
 0001:00063590       ?H0x01590014_WatchPlayers_10@CCannonStatic@@QAEHABVCEntityEvent@@@Z 10064590 f   CannonStatic.obj
 0001:000635a0       ?Inactive@CCannonStatic@@QAEHABVCEntityEvent@@@Z 100645a0 f   CannonStatic.obj
 0001:00063640       ?H0x01590016_Inactive_01@CCannonStatic@@QAEHABVCEntityEvent@@@Z 10064640 f   CannonStatic.obj
 0001:000636c0       ?H0x01590017_Inactive_02@CCannonStatic@@QAEHABVCEntityEvent@@@Z 100646c0 f   CannonStatic.obj
 0001:000636d0       ?Main@CCannonStatic@@QAEHABVCEntityEvent@@@Z 100646d0 f   CannonStatic.obj
 0001:000638a0       ?H0x01590018_Main_01@CCannonStatic@@QAEHABVCEntityEvent@@@Z 100648a0 f   CannonStatic.obj
 0001:00063920       ?H0x01590019_Main_02@CCannonStatic@@QAEHABVCEntityEvent@@@Z 10064920 f   CannonStatic.obj
 0001:000639d0       ??_ECCannonStatic@@UAEPAXI@Z 100649d0 f i CannonStatic.obj
 0001:000639d0       ??_GCCannonStatic@@UAEPAXI@Z 100649d0 f i CannonStatic.obj
 0001:00063a00       ??1CCannonStatic@@UAE@XZ   10064a00 f i CannonStatic.obj
 0001:00063b70       ??0CEnemyRunInto@@QAE@XZ   10064b70 f i ChainsawFreak.obj
 0001:00063b90       ??0CEnemyRunInto@@QAE@ABV0@@Z 10064b90 f i ChainsawFreak.obj
 0001:00063c30       ??4CEnemyRunInto@@QAEAAV0@AAV0@@Z 10064c30 f i ChainsawFreak.obj
 0001:00063ce0       ??1CEnemyRunInto@@UAE@XZ   10064ce0 f i ChainsawFreak.obj
 0001:00063e60       ??_GCEnemyRunInto@@UAEPAXI@Z 10064e60 f i ChainsawFreak.obj
 0001:00063e90       ??_ECEnemyRunInto@@UAEPAXI@Z 10064e90 f i ChainsawFreak.obj
 0001:00064200       ?CChainsawFreak_New@@YAPAVCEntity@@XZ 10065200 f   ChainsawFreak.obj
 0001:00064290       ?CChainsawFreak_OnInitClass@@YAXXZ 10065290 f   ChainsawFreak.obj
 0001:000642a0       ?CChainsawFreak_OnEndClass@@YAXXZ 100652a0 f   ChainsawFreak.obj
 0001:000642b0       ?CChainsawFreak_OnPrecache@@YAXPAVCDLLEntityClass@@J@Z 100652b0 f   ChainsawFreak.obj
 0001:000642c0       ?CChainsawFreak_OnWorldEnd@@YAXPAVCWorld@@@Z 100652c0 f   ChainsawFreak.obj
 0001:000642d0       ?CChainsawFreak_OnWorldInit@@YAXPAVCWorld@@@Z 100652d0 f   ChainsawFreak.obj
 0001:000642e0       ?CChainsawFreak_OnWorldTick@@YAXPAVCWorld@@@Z 100652e0 f   ChainsawFreak.obj
 0001:000642f0       ?CChainsawFreak_OnWorldRender@@YAXPAVCWorld@@@Z 100652f0 f   ChainsawFreak.obj
 0001:00064350       ?SetDefaultProperties@CChainsawFreak@@UAEXXZ 10065350 f   ChainsawFreak.obj
 0001:000643c0       ?GetPlayerKillDescription@CChainsawFreak@@UAE?AVCTString@@ABV2@ABVEDeath@@@Z 100653c0 f   ChainsawFreak.obj
 0001:00064460       ?Precache@CChainsawFreak@@UAEXXZ 10065460 f   ChainsawFreak.obj
 0001:000644b0       ?GetEntityInfo@CChainsawFreak@@UAEPAXXZ 100654b0 f   ChainsawFreak.obj
 0001:000644c0       ?GetCrushHealth@CChainsawFreak@@UAEMXZ 100654c0 f   ChainsawFreak.obj
 0001:000644d0       ?GetComputerMessageName@CChainsawFreak@@UBEABVCTFileName@@XZ 100654d0 f   ChainsawFreak.obj
 0001:00064520       ?ReceiveDamage@CChainsawFreak@@UAEXPAVCEntity@@W4DamageType@@MABV?$Vector@M$02@@2@Z 10065520 f   ChainsawFreak.obj
 0001:00064560       ?AdjustDifficulty@CChainsawFreak@@UAEXXZ 10065560 f   ChainsawFreak.obj
 0001:00064570       ?AnimForDeath@CChainsawFreak@@UAEJXZ 10065570 f   ChainsawFreak.obj
 0001:000645e0       ?WaitForDust@CChainsawFreak@@UAEMAAV?$Vector@M$02@@@Z 100655e0 f   ChainsawFreak.obj
 0001:000646c0       ?DeathNotify@CChainsawFreak@@UAEXXZ 100656c0 f   ChainsawFreak.obj
 0001:000646e0       ?StandingAnim@CChainsawFreak@@UAEXXZ 100656e0 f   ChainsawFreak.obj
 0001:000646f0       ?WalkingAnim@CChainsawFreak@@UAEXXZ 100656f0 f   ChainsawFreak.obj
 0001:00064700       ?RunningAnim@CChainsawFreak@@UAEXXZ 10065700 f   ChainsawFreak.obj
 0001:00064740       ?ChargeAnim@CChainsawFreak@@UAEXXZ 10065740 f   ChainsawFreak.obj
 0001:00064750       ?RotatingAnim@CChainsawFreak@@UAEXXZ 10065750 f   ChainsawFreak.obj
 0001:00064780       ?IdleSound@CChainsawFreak@@UAEXXZ 10065780 f   ChainsawFreak.obj
 0001:000647a0       ?WoundSound@CChainsawFreak@@UAEXXZ 100657a0 f   ChainsawFreak.obj
 0001:000647c0       ?DeathSound@CChainsawFreak@@UAEXXZ 100657c0 f   ChainsawFreak.obj
 0001:000647e0       ?ActivateRunningSound@CChainsawFreak@@QAEXXZ 100657e0 f   ChainsawFreak.obj
 0001:00064810       ?DeactivateRunningSound@CChainsawFreak@@QAEXXZ 10065810 f   ChainsawFreak.obj
 0001:00064830       ?LiveEntityTouched@CChainsawFreak@@UAEXVETouch@@@Z 10065830 f   ChainsawFreak.obj
 0001:00064bb0       ?HigherMass@CChainsawFreak@@UAEHXZ 10065bb0 f   ChainsawFreak.obj
 0001:00064bd0       ?EnemyPostInit@CChainsawFreak@@UAEXXZ 10065bd0 f   ChainsawFreak.obj
 0001:00064c20       ?PreMoving@CChainsawFreak@@UAEXXZ 10065c20 f   ChainsawFreak.obj
 0001:00064c70       ?Hit@CChainsawFreak@@QAEHABVCEntityEvent@@@Z 10065c70 f   ChainsawFreak.obj
 0001:00064e50       ?H0x01560001_Hit_01@CChainsawFreak@@QAEHABVCEntityEvent@@@Z 10065e50 f   ChainsawFreak.obj
 0001:00064ed0       ?H0x01560002_Hit_02@CChainsawFreak@@QAEHABVCEntityEvent@@@Z 10065ed0 f   ChainsawFreak.obj
 0001:00064f70       ?H0x01560003_Hit_03@CChainsawFreak@@QAEHABVCEntityEvent@@@Z 10065f70 f   ChainsawFreak.obj
 0001:00064ff0       ?H0x01560004_Hit_04@CChainsawFreak@@QAEHABVCEntityEvent@@@Z 10065ff0 f   ChainsawFreak.obj
 0001:00065080       ?H0x01560005_Hit_05@CChainsawFreak@@QAEHABVCEntityEvent@@@Z 10066080 f   ChainsawFreak.obj
 0001:00065100       ?H0x01560006_Hit_06@CChainsawFreak@@QAEHABVCEntityEvent@@@Z 10066100 f   ChainsawFreak.obj
 0001:00065330       ?H0x01560007_Hit_07@CChainsawFreak@@QAEHABVCEntityEvent@@@Z 10066330 f   ChainsawFreak.obj
 0001:000653b0       ?H0x01560008_Hit_08@CChainsawFreak@@QAEHABVCEntityEvent@@@Z 100663b0 f   ChainsawFreak.obj
 0001:00065410       ?H0x01560009_Hit_09@CChainsawFreak@@QAEHABVCEntityEvent@@@Z 10066410 f   ChainsawFreak.obj
 0001:00065480       ?AttackEnemy@CChainsawFreak@@QAEHABVCEntityEvent@@@Z 10066480 f   ChainsawFreak.obj
 0001:00065510       ?BeIdle@CChainsawFreak@@QAEHABVCEntityEvent@@@Z 10066510 f   ChainsawFreak.obj
 0001:00065580       ?PostRunAwayFromEnemy@CChainsawFreak@@QAEHABVCEntityEvent@@@Z 10066580 f   ChainsawFreak.obj
 0001:000655f0       ?H0x0156000d_PostRunAwayFromEnemy_01@CChainsawFreak@@QAEHABVCEntityEvent@@@Z 100665f0 f   ChainsawFreak.obj
 0001:00065670       ?H0x0156000e_PostRunAwayFromEnemy_02@CChainsawFreak@@QAEHABVCEntityEvent@@@Z 10066670 f   ChainsawFreak.obj
 0001:00065710       ?H0x0156000f_PostRunAwayFromEnemy_03@CChainsawFreak@@QAEHABVCEntityEvent@@@Z 10066710 f   ChainsawFreak.obj
 0001:00065790       ?H0x01560010_PostRunAwayFromEnemy_04@CChainsawFreak@@QAEHABVCEntityEvent@@@Z 10066790 f   ChainsawFreak.obj
 0001:000657f0       ?Main@CChainsawFreak@@QAEHABVCEntityEvent@@@Z 100667f0 f   ChainsawFreak.obj
 0001:00065a40       ??_GCChainsawFreak@@UAEPAXI@Z 10066a40 f i ChainsawFreak.obj
 0001:00065a40       ??_ECChainsawFreak@@UAEPAXI@Z 10066a40 f i ChainsawFreak.obj
 0001:00065a70       ??1CChainsawFreak@@UAE@XZ  10066a70 f i ChainsawFreak.obj
 0001:00065dd0       ?CCopier_New@@YAPAVCEntity@@XZ 10066dd0 f   Copier.obj
 0001:00065e70       ?CCopier_OnInitClass@@YAXXZ 10066e70 f   Copier.obj
 0001:00065e80       ?CCopier_OnEndClass@@YAXXZ 10066e80 f   Copier.obj
 0001:00065e90       ?CCopier_OnPrecache@@YAXPAVCDLLEntityClass@@J@Z 10066e90 f   Copier.obj
 0001:00065ea0       ?CCopier_OnWorldEnd@@YAXPAVCWorld@@@Z 10066ea0 f   Copier.obj
 0001:00065eb0       ?CCopier_OnWorldInit@@YAXPAVCWorld@@@Z 10066eb0 f   Copier.obj
 0001:00065ec0       ?CCopier_OnWorldTick@@YAXPAVCWorld@@@Z 10066ec0 f   Copier.obj
 0001:00065ed0       ?CCopier_OnWorldRender@@YAXPAVCWorld@@@Z 10066ed0 f   Copier.obj
 0001:00065fa0       ?SetDefaultProperties@CCopier@@UAEXXZ 10066fa0 f   Copier.obj
 0001:00066030       ?GetDescription@CCopier@@UBEABVCTString@@XZ 10067030 f   Copier.obj
 0001:00066070       ?TeleportEntity@CCopier@@QAEXXZ 10067070 f   Copier.obj
 0001:00066330       ?GetUsedMemory@CCopier@@UAEJXZ 10067330 f   Copier.obj
 0001:00066380       ?Main@CCopier@@QAEHABVCEntityEvent@@@Z 10067380 f   Copier.obj
 0001:00066410       ?H0x00e10004_Main_05@CCopier@@QAEHABVCEntityEvent@@@Z 10067410 f   Copier.obj
 0001:00066480       ?H0x00e10000_Main_01@CCopier@@QAEHABVCEntityEvent@@@Z 10067480 f   Copier.obj
 0001:00066500       ?H0x00e10001_Main_02@CCopier@@QAEHABVCEntityEvent@@@Z 10067500 f   Copier.obj
 0001:00066570       ?H0x00e10002_Main_03@CCopier@@QAEHABVCEntityEvent@@@Z 10067570 f   Copier.obj
 0001:000665f0       ?H0x00e10003_Main_04@CCopier@@QAEHABVCEntityEvent@@@Z 100675f0 f   Copier.obj
 0001:00066650       ?H0x00e10005_Main_06@CCopier@@QAEHABVCEntityEvent@@@Z 10067650 f   Copier.obj
 0001:00066660       ?GetName@CCopier@@UBEABVCTString@@XZ 10067660 f i Copier.obj
 0001:00066670       ?GetTarget@CCopier@@UBEPAVCEntity@@XZ 10067670 f i Copier.obj
 0001:00066680       ?IsTargetable@CCopier@@UBEHXZ 10067680 f i Copier.obj
 0001:00066690       ??_GCCopier@@UAEPAXI@Z     10067690 f i Copier.obj
 0001:00066690       ??_ECCopier@@UAEPAXI@Z     10067690 f i Copier.obj
 0001:000666c0       ??1CCopier@@UAE@XZ         100676c0 f i Copier.obj
 0001:00066bd0       ?CCounter_New@@YAPAVCEntity@@XZ 10067bd0 f   Counter.obj
 0001:00066cb0       ?CCounter_OnInitClass@@YAXXZ 10067cb0 f   Counter.obj
 0001:00066cc0       ?CCounter_OnEndClass@@YAXXZ 10067cc0 f   Counter.obj
 0001:00066cd0       ?CCounter_OnPrecache@@YAXPAVCDLLEntityClass@@J@Z 10067cd0 f   Counter.obj
 0001:00066ce0       ?CCounter_OnWorldEnd@@YAXPAVCWorld@@@Z 10067ce0 f   Counter.obj
 0001:00066cf0       ?CCounter_OnWorldInit@@YAXPAVCWorld@@@Z 10067cf0 f   Counter.obj
 0001:00066d00       ?CCounter_OnWorldTick@@YAXPAVCWorld@@@Z 10067d00 f   Counter.obj
 0001:00066d10       ?CCounter_OnWorldRender@@YAXPAVCWorld@@@Z 10067d10 f   Counter.obj
 0001:00066de0       ?SetDefaultProperties@CCounter@@UAEXXZ 10067de0 f   Counter.obj
 0001:00066f60       ?Precache@CCounter@@UAEXXZ 10067f60 f   Counter.obj
 0001:00066f80       ?DisplayNumber@CCounter@@QAEXXZ 10067f80 f   Counter.obj
 0001:000670a0       ?CountDown@CCounter@@QAEHABVCEntityEvent@@@Z 100680a0 f   Counter.obj
 0001:00067100       ?H0x00e80003_CountDown_03@CCounter@@QAEHABVCEntityEvent@@@Z 10068100 f   Counter.obj
 0001:00067170       ?H0x00e80001_CountDown_01@CCounter@@QAEHABVCEntityEvent@@@Z 10068170 f   Counter.obj
 0001:000671f0       ?H0x00e80002_CountDown_02@CCounter@@QAEHABVCEntityEvent@@@Z 100681f0 f   Counter.obj
 0001:00067310       ?H0x00e80004_CountDown_04@CCounter@@QAEHABVCEntityEvent@@@Z 10068310 f   Counter.obj
 0001:00067320       ?Main@CCounter@@QAEHABVCEntityEvent@@@Z 10068320 f   Counter.obj
 0001:000673c0       ?H0x00e80005_Main_01@CCounter@@QAEHABVCEntityEvent@@@Z 100683c0 f   Counter.obj
 0001:00067440       ?H0x00e80006_Main_02@CCounter@@QAEHABVCEntityEvent@@@Z 10068440 f   Counter.obj
 0001:000674c0       ?H0x00e80007_Main_03@CCounter@@QAEHABVCEntityEvent@@@Z 100684c0 f   Counter.obj
 0001:000675c0       ?H0x00e80008_Main_04@CCounter@@QAEHABVCEntityEvent@@@Z 100685c0 f   Counter.obj
 0001:00067620       ?GetName@CCounter@@UBEABVCTString@@XZ 10068620 f i Counter.obj
 0001:00067630       ?IsTargetable@CCounter@@UBEHXZ 10068630 f i Counter.obj
 0001:00067640       ?IsImportant@CCounter@@UBEHXZ 10068640 f i Counter.obj
 0001:00067650       ??_ECCounter@@UAEPAXI@Z    10068650 f i Counter.obj
 0001:00067650       ??_GCCounter@@UAEPAXI@Z    10068650 f i Counter.obj
 0001:00067680       ??1CCounter@@UAE@XZ        10068680 f i Counter.obj
 0001:00067860       ??0ESummonerTeleport@@QAE@ABV0@@Z 10068860 f i CrateBus.obj
 0001:00067890       ??4ESummonerTeleport@@QAEAAV0@ABV0@@Z 10068890 f i CrateBus.obj
 0001:000678b0       ??1ESummonerTeleport@@UAE@XZ 100688b0 f i CrateBus.obj
 0001:000678c0       ??_GESummonerTeleport@@UAEPAXI@Z 100688c0 f i CrateBus.obj
 0001:000678f0       ??_EESummonerTeleport@@UAEPAXI@Z 100688f0 f i CrateBus.obj
 0001:00067950       ?ClearToDefault@@YAXAAVESummonerTeleport@@@Z 10068950 f i CrateBus.obj
 0001:00067980       ??0ESpawnerProjectile@@QAE@ABV0@@Z 10068980 f i CrateBus.obj
 0001:000679c0       ??4ESpawnerProjectile@@QAEAAV0@ABV0@@Z 100689c0 f i CrateBus.obj
 0001:00067a30       ??1ESpawnerProjectile@@UAE@XZ 10068a30 f i CrateBus.obj
 0001:00067ad0       ??_GESpawnerProjectile@@UAEPAXI@Z 10068ad0 f i CrateBus.obj
 0001:00067b00       ??_EESpawnerProjectile@@UAEPAXI@Z 10068b00 f i CrateBus.obj
 0001:00067b60       ?ClearToDefault@@YAXAAVESpawnerProjectile@@@Z 10068b60 f i CrateBus.obj
 0001:00068370       ?CCrateBus_New@@YAPAVCEntity@@XZ 10069370 f   CrateBus.obj
 0001:000685a0       ?CCrateBus_OnInitClass@@YAXXZ 100695a0 f   CrateBus.obj
 0001:000685b0       ?CCrateBus_OnEndClass@@YAXXZ 100695b0 f   CrateBus.obj
 0001:000685c0       ?CCrateBus_OnPrecache@@YAXPAVCDLLEntityClass@@J@Z 100695c0 f   CrateBus.obj
 0001:000685d0       ?CCrateBus_OnWorldEnd@@YAXPAVCWorld@@@Z 100695d0 f   CrateBus.obj
 0001:000685e0       ?CCrateBus_OnWorldInit@@YAXPAVCWorld@@@Z 100695e0 f   CrateBus.obj
 0001:000685f0       ?CCrateBus_OnWorldTick@@YAXPAVCWorld@@@Z 100695f0 f   CrateBus.obj
 0001:00068600       ?CCrateBus_OnWorldRender@@YAXPAVCWorld@@@Z 10069600 f   CrateBus.obj
 0001:00068750       ?SetDefaultProperties@CCrateBus@@UAEXXZ 10069750 f   CrateBus.obj
 0001:00068d90       ?Precache@CCrateBus@@UAEXXZ 10069d90 f   CrateBus.obj
 0001:00068db0       ?AddRiders@CCrateBus@@QAEXXZ 10069db0 f   CrateBus.obj
 0001:00068f60       ?RenderParticles@CCrateBus@@UAEXXZ 10069f60 f   CrateBus.obj
 0001:00068f90       ?SpawnExplosion@CCrateBus@@QAEXJMM@Z 10069f90 f   CrateBus.obj
 0001:000692c0       ?GetLerpedPlacement@CCrateBus@@UBE?AVCPlacement3D@@XZ 1006a2c0 f   CrateBus.obj
 0001:000692f0       ?Die@CCrateBus@@QAEHABVCEntityEvent@@@Z 1006a2f0 f   CrateBus.obj
 0001:000697c0       ?H0x01600001_Die_01@CCrateBus@@QAEHABVCEntityEvent@@@Z 1006a7c0 f   CrateBus.obj
 0001:00069840       ?H0x01600002_Die_02@CCrateBus@@QAEHABVCEntityEvent@@@Z 1006a840 f   CrateBus.obj
 0001:000698a0       ?Main@CCrateBus@@QAEHABVCEntityEvent@@@Z 1006a8a0 f   CrateBus.obj
 0001:00069990       ?H0x01600003_Main_01@CCrateBus@@QAEHABVCEntityEvent@@@Z 1006a990 f   CrateBus.obj
 0001:00069a10       ?H0x01600004_Main_02@CCrateBus@@QAEHABVCEntityEvent@@@Z 1006aa10 f   CrateBus.obj
 0001:00069a90       ?H0x01600005_Main_03@CCrateBus@@QAEHABVCEntityEvent@@@Z 1006aa90 f   CrateBus.obj
 0001:00069b40       ?H0x01600006_Main_04@CCrateBus@@QAEHABVCEntityEvent@@@Z 1006ab40 f   CrateBus.obj
 0001:00069b50       ?IsTargetable@CCrateBus@@UBEHXZ 1006ab50 f i CrateBus.obj
 0001:00069b60       ?GetName@CCrateBus@@UBEABVCTString@@XZ 1006ab60 f i CrateBus.obj
 0001:00069b70       ?IsImportant@CCrateBus@@UBEHXZ 1006ab70 f i CrateBus.obj
 0001:00069b80       ??_GCCrateBus@@UAEPAXI@Z   1006ab80 f i CrateBus.obj
 0001:00069b80       ??_ECCrateBus@@UAEPAXI@Z   1006ab80 f i CrateBus.obj
 0001:00069bb0       ??1CCrateBus@@UAE@XZ       1006abb0 f i CrateBus.obj
 0001:00069f50       ?CCrateRider_New@@YAPAVCEntity@@XZ 1006af50 f   CrateRider.obj
 0001:0006a040       ?CCrateRider_OnInitClass@@YAXXZ 1006b040 f   CrateRider.obj
 0001:0006a050       ?CCrateRider_OnEndClass@@YAXXZ 1006b050 f   CrateRider.obj
 0001:0006a060       ?CCrateRider_OnPrecache@@YAXPAVCDLLEntityClass@@J@Z 1006b060 f   CrateRider.obj
 0001:0006a070       ?CCrateRider_OnWorldEnd@@YAXPAVCWorld@@@Z 1006b070 f   CrateRider.obj
 0001:0006a080       ?CCrateRider_OnWorldInit@@YAXPAVCWorld@@@Z 1006b080 f   CrateRider.obj
 0001:0006a090       ?CCrateRider_OnWorldTick@@YAXPAVCWorld@@@Z 1006b090 f   CrateRider.obj
 0001:0006a0a0       ?CCrateRider_OnWorldRender@@YAXPAVCWorld@@@Z 1006b0a0 f   CrateRider.obj
 0001:0006a100       ?SetDefaultProperties@CCrateRider@@UAEXXZ 1006b100 f   CrateRider.obj
 0001:0006a210       ?GetEntityInfo@CCrateRider@@UAEPAXXZ 1006b210 f   CrateRider.obj
 0001:0006a220       ?Precache@CCrateRider@@UAEXXZ 1006b220 f   CrateRider.obj
 0001:0006a280       ?AnimForDamage@CCrateRider@@UAEJM@Z 1006b280 f   CrateRider.obj
 0001:0006a290       ?AnimForDeath@CCrateRider@@UAEJXZ 1006b290 f   CrateRider.obj
 0001:0006a2a0       ?DeathNotify@CCrateRider@@UAEXXZ 1006b2a0 f   CrateRider.obj
 0001:0006a2b0       ?StandingAnim@CCrateRider@@UAEXXZ 1006b2b0 f   CrateRider.obj
 0001:0006a300       ?WalkingAnim@CCrateRider@@UAEXXZ 1006b300 f   CrateRider.obj
 0001:0006a320       ?RunningAnim@CCrateRider@@UAEXXZ 1006b320 f   CrateRider.obj
 0001:0006a390       ?RotatingAnim@CCrateRider@@UAEXXZ 1006b390 f   CrateRider.obj
 0001:0006a3a0       ?IdleSound@CCrateRider@@UAEXXZ 1006b3a0 f   CrateRider.obj
 0001:0006a3b0       ?SightSound@CCrateRider@@UAEXXZ 1006b3b0 f   CrateRider.obj
 0001:0006a3c0       ?WoundSound@CCrateRider@@UAEXXZ 1006b3c0 f   CrateRider.obj
 0001:0006a3d0       ?DeathSound@CCrateRider@@UAEXXZ 1006b3d0 f   CrateRider.obj
 0001:0006a3e0       ?AddRider@CCrateRider@@QAEXJABVCTFileName@@@Z 1006b3e0 f   CrateRider.obj
 0001:0006a4c0       ?Main@CCrateRider@@QAEHABVCEntityEvent@@@Z 1006b4c0 f   CrateRider.obj
 0001:0006a670       ??_ECCrateRider@@UAEPAXI@Z 1006b670 f i CrateRider.obj
 0001:0006a670       ??_GCCrateRider@@UAEPAXI@Z 1006b670 f i CrateRider.obj
 0001:0006a6a0       ??1CCrateRider@@UAE@XZ     1006b6a0 f i CrateRider.obj
 0001:0006aaf0       ?CCreditsHolder_New@@YAPAVCEntity@@XZ 1006baf0 f   CreditsHolder.obj
 0001:0006ab50       ?CCreditsHolder_OnInitClass@@YAXXZ 1006bb50 f   CreditsHolder.obj
 0001:0006ab60       ?CCreditsHolder_OnEndClass@@YAXXZ 1006bb60 f   CreditsHolder.obj
 0001:0006ab70       ?CCreditsHolder_OnPrecache@@YAXPAVCDLLEntityClass@@J@Z 1006bb70 f   CreditsHolder.obj
 0001:0006ab80       ?CCreditsHolder_OnWorldEnd@@YAXPAVCWorld@@@Z 1006bb80 f   CreditsHolder.obj
 0001:0006ab90       ?CCreditsHolder_OnWorldInit@@YAXPAVCWorld@@@Z 1006bb90 f   CreditsHolder.obj
 0001:0006aba0       ?CCreditsHolder_OnWorldTick@@YAXPAVCWorld@@@Z 1006bba0 f   CreditsHolder.obj
 0001:0006abb0       ?CCreditsHolder_OnWorldRender@@YAXPAVCWorld@@@Z 1006bbb0 f   CreditsHolder.obj
 0001:0006acc0       ?SetDefaultProperties@CCreditsHolder@@UAEXXZ 1006bcc0 f   CreditsHolder.obj
 0001:0006adc0       ?GetDescription@CCreditsHolder@@UBEABVCTString@@XZ 1006bdc0 f   CreditsHolder.obj
 0001:0006ae40       ??0CCreditsHolder@@QAE@XZ  1006be40 f   CreditsHolder.obj
 0001:0006aee0       ?ReloadData@CCreditsHolder@@QAEHXZ 1006bee0 f   CreditsHolder.obj
 0001:0006af60       ?LoadOneFile@CCreditsHolder@@QAEHABVCTFileName@@@Z 1006bf60 f   CreditsHolder.obj
 0001:0006b440       ?LoadFont@CCreditsHolder@@QAEHXZ 1006c440 f   CreditsHolder.obj
 0001:0006b4d0       ?Credits_On@CCreditsHolder@@QAEHVCTFileName@@@Z 1006c4d0 f   CreditsHolder.obj
 0001:0006b530       ?Credits_Off@CCreditsHolder@@QAEXXZ 1006c530 f   CreditsHolder.obj
 0001:0006b580       ?Credits_Render@CCreditsHolder@@QAEMPAV1@PAVCDrawPort@@@Z 1006c580 f   CreditsHolder.obj
 0001:0006bb90       ?WaitScrollingToEnd@CCreditsHolder@@QAEHABVCEntityEvent@@@Z 1006cb90 f   CreditsHolder.obj
 0001:0006bbf0       ?H0x00f00003_WaitScrollingToEnd_03@CCreditsHolder@@QAEHABVCEntityEvent@@@Z 1006cbf0 f   CreditsHolder.obj
 0001:0006bc80       ?H0x00f00001_WaitScrollingToEnd_01@CCreditsHolder@@QAEHABVCEntityEvent@@@Z 1006cc80 f   CreditsHolder.obj
 0001:0006bd00       ?H0x00f00002_WaitScrollingToEnd_02@CCreditsHolder@@QAEHABVCEntityEvent@@@Z 1006cd00 f   CreditsHolder.obj
 0001:0006bd90       ?H0x00f00004_WaitScrollingToEnd_04@CCreditsHolder@@QAEHABVCEntityEvent@@@Z 1006cd90 f   CreditsHolder.obj
 0001:0006bdf0       ?Main@CCreditsHolder@@QAEHABVCEntityEvent@@@Z 1006cdf0 f   CreditsHolder.obj
 0001:0006be90       ?H0x00f00005_Main_01@CCreditsHolder@@QAEHABVCEntityEvent@@@Z 1006ce90 f   CreditsHolder.obj
 0001:0006bf10       ?H0x00f00006_Main_02@CCreditsHolder@@QAEHABVCEntityEvent@@@Z 1006cf10 f   CreditsHolder.obj
 0001:0006bff0       ?H0x00f00007_Main_03@CCreditsHolder@@QAEHABVCEntityEvent@@@Z 1006cff0 f   CreditsHolder.obj
 0001:0006c1c0       ?H0x00f00008_Main_04@CCreditsHolder@@QAEHABVCEntityEvent@@@Z 1006d1c0 f   CreditsHolder.obj
 0001:0006c240       ?IsTargetable@CCreditsHolder@@UBEHXZ 1006d240 f i CreditsHolder.obj
 0001:0006c250       ?GetName@CCreditsHolder@@UBEABVCTString@@XZ 1006d250 f i CreditsHolder.obj
 0001:0006c260       ?IsImportant@CCreditsHolder@@UBEHXZ 1006d260 f i CreditsHolder.obj
 0001:0006c270       ??_ECCreditsHolder@@UAEPAXI@Z 1006d270 f i CreditsHolder.obj
 0001:0006c270       ??_GCCreditsHolder@@UAEPAXI@Z 1006d270 f i CreditsHolder.obj
 0001:0006c2a0       ??1CCreditsHolder@@UAE@XZ  1006d2a0 f i CreditsHolder.obj
 0001:0006c3a0       ??1CCreditEntry@@QAE@XZ    1006d3a0 f i CreditsHolder.obj
 0001:0006c400       ??0?$CStaticStackArray@VCCreditEntry@@@@QAE@XZ 1006d400 f i CreditsHolder.obj
 0001:0006c420       ??1?$CStaticStackArray@VCCreditEntry@@@@QAE@XZ 1006d420 f i CreditsHolder.obj
 0001:0006c460       ?Expand@?$CStaticArray@VCCreditEntry@@@@QAEXJ@Z 1006d460 f i CreditsHolder.obj
 0001:0006c620       ??0CCreditEntry@@QAE@XZ    1006d620 f i CreditsHolder.obj
 0001:0006c690       ??_ECCreditEntry@@QAEPAXI@Z 1006d690 f i CreditsHolder.obj
 0001:0006c950       ?CDamager_New@@YAPAVCEntity@@XZ 1006d950 f   Damager.obj
 0001:0006ca00       ?CDamager_OnInitClass@@YAXXZ 1006da00 f   Damager.obj
 0001:0006ca10       ?CDamager_OnEndClass@@YAXXZ 1006da10 f   Damager.obj
 0001:0006ca20       ?CDamager_OnPrecache@@YAXPAVCDLLEntityClass@@J@Z 1006da20 f   Damager.obj
 0001:0006ca30       ?CDamager_OnWorldEnd@@YAXPAVCWorld@@@Z 1006da30 f   Damager.obj
 0001:0006ca40       ?CDamager_OnWorldInit@@YAXPAVCWorld@@@Z 1006da40 f   Damager.obj
 0001:0006ca50       ?CDamager_OnWorldTick@@YAXPAVCWorld@@@Z 1006da50 f   Damager.obj
 0001:0006ca60       ?CDamager_OnWorldRender@@YAXPAVCWorld@@@Z 1006da60 f   Damager.obj
 0001:0006cb30       ?SetDefaultProperties@CDamager@@UAEXXZ 1006db30 f   Damager.obj
 0001:0006cbf0       ?GetDescription@CDamager@@UBEABVCTString@@XZ 1006dbf0 f   Damager.obj
 0001:0006cc00       ?Main@CDamager@@QAEHABVCEntityEvent@@@Z 1006dc00 f   Damager.obj
 0001:0006ccc0       ?H0x00e50002_Main_03@CDamager@@QAEHABVCEntityEvent@@@Z 1006dcc0 f   Damager.obj
 0001:0006cd30       ?H0x00e50000_Main_01@CDamager@@QAEHABVCEntityEvent@@@Z 1006dd30 f   Damager.obj
 0001:0006ce80       ?H0x00e50001_Main_02@CDamager@@QAEHABVCEntityEvent@@@Z 1006de80 f   Damager.obj
 0001:0006cee0       ?H0x00e50003_Main_04@CDamager@@QAEHABVCEntityEvent@@@Z 1006dee0 f   Damager.obj
 0001:0006cef0       ?GetName@CDamager@@UBEABVCTString@@XZ 1006def0 f i Damager.obj
 0001:0006cf00       ?IsTargetable@CDamager@@UBEHXZ 1006df00 f i Damager.obj
 0001:0006cf10       ??_GCDamager@@UAEPAXI@Z    1006df10 f i Damager.obj
 0001:0006cf10       ??_ECDamager@@UAEPAXI@Z    1006df10 f i Damager.obj
 0001:0006cf40       ??1CDamager@@UAE@XZ        1006df40 f i Damager.obj
 0001:0006d450       ?CDebris_New@@YAPAVCEntity@@XZ 1006e450 f   Debris.obj
 0001:0006d4d0       ?CDebris_OnInitClass@@YAXXZ 1006e4d0 f   Debris.obj
 0001:0006d4e0       ?CDebris_OnEndClass@@YAXXZ 1006e4e0 f   Debris.obj
 0001:0006d4f0       ?CDebris_OnPrecache@@YAXPAVCDLLEntityClass@@J@Z 1006e4f0 f   Debris.obj
 0001:0006d500       ?CDebris_OnWorldEnd@@YAXPAVCWorld@@@Z 1006e500 f   Debris.obj
 0001:0006d510       ?CDebris_OnWorldInit@@YAXPAVCWorld@@@Z 1006e510 f   Debris.obj
 0001:0006d520       ?CDebris_OnWorldTick@@YAXPAVCWorld@@@Z 1006e520 f   Debris.obj
 0001:0006d530       ?CDebris_OnWorldRender@@YAXPAVCWorld@@@Z 1006e530 f   Debris.obj
 0001:0006d600       ?MakeCopy@ESpawnDebris@@UAEPAVCEntityEvent@@XZ 1006e600 f   Debris.obj
 0001:0006d6d0       ??0ESpawnDebris@@QAE@XZ    1006e6d0 f   Debris.obj
 0001:0006d7b0       ?SetDefaultProperties@CDebris@@UAEXXZ 1006e7b0 f   Debris.obj
 0001:0006d880       ?GetEntityInfo@CDebris@@UAEPAXXZ 1006e880 f   Debris.obj
 0001:0006d890       ?ReceiveDamage@CDebris@@UAEXPAVCEntity@@W4DamageType@@MABV?$Vector@M$02@@2@Z 1006e890 f   Debris.obj
 0001:0006d900       ?AdjustShadingParameters@CDebris@@UAEHAAV?$Vector@M$02@@AAK1@Z 1006e900 f   Debris.obj
 0001:0006da00       ?LeaveStain@CDebris@@QAEXXZ 1006ea00 f   Debris.obj
 0001:0006dd30       ?SpawnEffect@CDebris@@QAEXABVCPlacement3D@@ABVESpawnEffect@@@Z 1006ed30 f   Debris.obj
 0001:0006ddb0       ?RenderParticles@CDebris@@UAEXXZ 1006edb0 f   Debris.obj
 0001:0006de50       ?Explode@CDebris@@QAEXXZ   1006ee50 f   Debris.obj
 0001:0006df20       ?Main@CDebris@@QAEHABVCEntityEvent@@@Z 1006ef20 f   Debris.obj
 0001:0006e2e0       ?H0x025a0001_Main_01@CDebris@@QAEHABVCEntityEvent@@@Z 1006f2e0 f   Debris.obj
 0001:0006e6c0       ?H0x025a0002_Main_02@CDebris@@QAEHABVCEntityEvent@@@Z 1006f6c0 f   Debris.obj
 0001:0006e760       ?H0x025a0003_Main_03@CDebris@@QAEHABVCEntityEvent@@@Z 1006f760 f   Debris.obj
 0001:0006e7e0       ?H0x025a0004_Main_04@CDebris@@QAEHABVCEntityEvent@@@Z 1006f7e0 f   Debris.obj
 0001:0006e840       ??_ECDebris@@UAEPAXI@Z     1006f840 f i Debris.obj
 0001:0006e840       ??_GCDebris@@UAEPAXI@Z     1006f840 f i Debris.obj
 0001:0006e870       ??1CDebris@@UAE@XZ         1006f870 f i Debris.obj
 0001:0006e9e0       ?CEntityStateDisplay_New@@YAPAVCEntity@@XZ 1006f9e0 f   DebugEntityStatesDisplay.obj
 0001:0006ea70       ?CEntityStateDisplay_OnInitClass@@YAXXZ 1006fa70 f   DebugEntityStatesDisplay.obj
 0001:0006ea80       ?CEntityStateDisplay_OnEndClass@@YAXXZ 1006fa80 f   DebugEntityStatesDisplay.obj
 0001:0006ea90       ?CEntityStateDisplay_OnPrecache@@YAXPAVCDLLEntityClass@@J@Z 1006fa90 f   DebugEntityStatesDisplay.obj
 0001:0006eaa0       ?CEntityStateDisplay_OnWorldEnd@@YAXPAVCWorld@@@Z 1006faa0 f   DebugEntityStatesDisplay.obj
 0001:0006eab0       ?CEntityStateDisplay_OnWorldInit@@YAXPAVCWorld@@@Z 1006fab0 f   DebugEntityStatesDisplay.obj
 0001:0006eac0       ?CEntityStateDisplay_OnWorldTick@@YAXPAVCWorld@@@Z 1006fac0 f   DebugEntityStatesDisplay.obj
 0001:0006ead0       ?CEntityStateDisplay_OnWorldRender@@YAXPAVCWorld@@@Z 1006fad0 f   DebugEntityStatesDisplay.obj
 0001:0006eba0       ?SetDefaultProperties@CEntityStateDisplay@@UAEXXZ 1006fba0 f   DebugEntityStatesDisplay.obj
 0001:0006ec00       ??1CEntityStateDisplay@@UAE@XZ 1006fc00 f   DebugEntityStatesDisplay.obj
 0001:0006ece0       ?Main@CEntityStateDisplay@@QAEHABVCEntityEvent@@@Z 1006fce0 f   DebugEntityStatesDisplay.obj
 0001:0006ed90       ?H0x00e90002_Main_03@CEntityStateDisplay@@QAEHABVCEntityEvent@@@Z 1006fd90 f   DebugEntityStatesDisplay.obj
 0001:0006ee00       ?H0x00e90000_Main_01@CEntityStateDisplay@@QAEHABVCEntityEvent@@@Z 1006fe00 f   DebugEntityStatesDisplay.obj
 0001:0006eea0       ?H0x00e90001_Main_02@CEntityStateDisplay@@QAEHABVCEntityEvent@@@Z 1006fea0 f   DebugEntityStatesDisplay.obj
 0001:0006ef00       ?H0x00e90003_Main_04@CEntityStateDisplay@@QAEHABVCEntityEvent@@@Z 1006ff00 f   DebugEntityStatesDisplay.obj
 0001:0006ef60       ?GetTarget@CEntityStateDisplay@@UBEPAVCEntity@@XZ 1006ff60 f i DebugEntityStatesDisplay.obj
 0001:0006ef70       ?GetName@CEntityStateDisplay@@UBEABVCTString@@XZ 1006ff70 f i DebugEntityStatesDisplay.obj
 0001:0006ef80       ??_GCEntityStateDisplay@@UAEPAXI@Z 1006ff80 f i DebugEntityStatesDisplay.obj
 0001:0006ef80       ??_ECEntityStateDisplay@@UAEPAXI@Z 1006ff80 f i DebugEntityStatesDisplay.obj
 0001:0006f1a0       ?CDemon_New@@YAPAVCEntity@@XZ 100701a0 f   Demon.obj
 0001:0006f210       ?CDemon_OnInitClass@@YAXXZ 10070210 f   Demon.obj
 0001:0006f220       ?CDemon_OnEndClass@@YAXXZ  10070220 f   Demon.obj
 0001:0006f230       ?CDemon_OnPrecache@@YAXPAVCDLLEntityClass@@J@Z 10070230 f   Demon.obj
 0001:0006f240       ?CDemon_OnWorldEnd@@YAXPAVCWorld@@@Z 10070240 f   Demon.obj
 0001:0006f250       ?CDemon_OnWorldInit@@YAXPAVCWorld@@@Z 10070250 f   Demon.obj
 0001:0006f260       ?CDemon_OnWorldTick@@YAXPAVCWorld@@@Z 10070260 f   Demon.obj
 0001:0006f270       ?CDemon_OnWorldRender@@YAXPAVCWorld@@@Z 10070270 f   Demon.obj
 0001:0006f350       ?SetDefaultProperties@CDemon@@UAEXXZ 10070350 f   Demon.obj
 0001:0006f390       ?HandleEvent@CDemon@@UAEHABVCEntityEvent@@@Z 10070390 f   Demon.obj
 0001:0006f410       ?GetPlayerKillDescription@CDemon@@UAE?AVCTString@@ABV2@ABVEDeath@@@Z 10070410 f   Demon.obj
 0001:0006f4b0       ?GetComputerMessageName@CDemon@@UBEABVCTFileName@@XZ 100704b0 f   Demon.obj
 0001:0006f500       ?Precache@CDemon@@UAEXXZ   10070500 f   Demon.obj
 0001:0006f580       ?GetEntityInfo@CDemon@@UAEPAXXZ 10070580 f   Demon.obj
 0001:0006f590       ?ForcesCannonballToExplode@CDemon@@UAEHXZ 10070590 f   Demon.obj
 0001:0006f5a0       ?ReceiveDamage@CDemon@@UAEXPAVCEntity@@W4DamageType@@MABV?$Vector@M$02@@2@Z 100705a0 f   Demon.obj
 0001:0006f600       ?AnimForDamage@CDemon@@UAEJM@Z 10070600 f   Demon.obj
 0001:0006f620       ?AnimForDeath@CDemon@@UAEJXZ 10070620 f   Demon.obj
 0001:0006f6d0       ?WaitForDust@CDemon@@UAEMAAV?$Vector@M$02@@@Z 100706d0 f   Demon.obj
 0001:0006f740       ?DeathNotify@CDemon@@UAEXXZ 10070740 f   Demon.obj
 0001:0006f760       ?StandingAnim@CDemon@@UAEXXZ 10070760 f   Demon.obj
 0001:0006f770       ?WalkingAnim@CDemon@@UAEXXZ 10070770 f   Demon.obj
 0001:0006f780       ?RunningAnim@CDemon@@UAEXXZ 10070780 f   Demon.obj
 0001:0006f790       ?RotatingAnim@CDemon@@UAEXXZ 10070790 f   Demon.obj
 0001:0006f7a0       ?IdleSound@CDemon@@UAEXXZ  100707a0 f   Demon.obj
 0001:0006f7c0       ?SightSound@CDemon@@UAEXXZ 100707c0 f   Demon.obj
 0001:0006f7e0       ?WoundSound@CDemon@@UAEXXZ 100707e0 f   Demon.obj
 0001:0006f800       ?DeathSound@CDemon@@UAEXXZ 10070800 f   Demon.obj
 0001:0006f820       ?EnemyPostInit@CDemon@@UAEXXZ 10070820 f   Demon.obj
 0001:0006f850       ?Fire@CDemon@@QAEHABVCEntityEvent@@@Z 10070850 f   Demon.obj
 0001:0006f8f0       ?H0x01500001_Fire_01@CDemon@@QAEHABVCEntityEvent@@@Z 100708f0 f   Demon.obj
 0001:0006f990       ?H0x01500002_Fire_02@CDemon@@QAEHABVCEntityEvent@@@Z 10070990 f   Demon.obj
 0001:0006fa60       ?H0x01500003_Fire_03@CDemon@@QAEHABVCEntityEvent@@@Z 10070a60 f   Demon.obj
 0001:0006fae0       ?H0x01500004_Fire_04@CDemon@@QAEHABVCEntityEvent@@@Z 10070ae0 f   Demon.obj
 0001:0006fc90       ?H0x01500005_Fire_05@CDemon@@QAEHABVCEntityEvent@@@Z 10070c90 f   Demon.obj
 0001:0006fd10       ?H0x01500006_Fire_06@CDemon@@QAEHABVCEntityEvent@@@Z 10070d10 f   Demon.obj
 0001:0006fdc0       ?H0x01500007_Fire_07@CDemon@@QAEHABVCEntityEvent@@@Z 10070dc0 f   Demon.obj
 0001:0006fe40       ?H0x01500008_Fire_08@CDemon@@QAEHABVCEntityEvent@@@Z 10070e40 f   Demon.obj
 0001:0006ff40       ?H0x01500009_Fire_09@CDemon@@QAEHABVCEntityEvent@@@Z 10070f40 f   Demon.obj
 0001:0006ffc0       ?H0x0150000a_Fire_10@CDemon@@QAEHABVCEntityEvent@@@Z 10070fc0 f   Demon.obj
 0001:00070020       ?Hit@CDemon@@QAEHABVCEntityEvent@@@Z 10071020 f   Demon.obj
 0001:000700d0       ?H0x0150000c_Hit_01@CDemon@@QAEHABVCEntityEvent@@@Z 100710d0 f   Demon.obj
 0001:00070150       ?H0x0150000d_Hit_02@CDemon@@QAEHABVCEntityEvent@@@Z 10071150 f   Demon.obj
 0001:000702d0       ?H0x0150000e_Hit_03@CDemon@@QAEHABVCEntityEvent@@@Z 100712d0 f   Demon.obj
 0001:00070350       ?H0x0150000f_Hit_04@CDemon@@QAEHABVCEntityEvent@@@Z 10071350 f   Demon.obj
 0001:000703b0       ?H0x01500011_Hit_06@CDemon@@QAEHABVCEntityEvent@@@Z 100713b0 f   Demon.obj
 0001:00070430       ?H0x01500010_Hit_05@CDemon@@QAEHABVCEntityEvent@@@Z 10071430 f   Demon.obj
 0001:00070490       ?Main@CDemon@@QAEHABVCEntityEvent@@@Z 10071490 f   Demon.obj
 0001:000706a0       ??_GCDemon@@UAEPAXI@Z      100716a0 f i Demon.obj
 0001:000706a0       ??_ECDemon@@UAEPAXI@Z      100716a0 f i Demon.obj
 0001:000706d0       ??1CDemon@@UAE@XZ          100716d0 f i Demon.obj
 0001:00070850       ?ClearToDefault@@YAXAAW4EffectorEffectType@@@Z 10071850 f i DestroyableArchitecture.obj
 0001:00070860       ??0ESpawnEffector@@QAE@ABV0@@Z 10071860 f i DestroyableArchitecture.obj
 0001:000708f0       ??4ESpawnEffector@@QAEAAV0@ABV0@@Z 100718f0 f i DestroyableArchitecture.obj
 0001:000709a0       ??1ESpawnEffector@@UAE@XZ  100719a0 f i DestroyableArchitecture.obj
 0001:00070a40       ??_GESpawnEffector@@UAEPAXI@Z 10071a40 f i DestroyableArchitecture.obj
 0001:00070a70       ??_EESpawnEffector@@UAEPAXI@Z 10071a70 f i DestroyableArchitecture.obj
 0001:00070ad0       ?ClearToDefault@@YAXAAVESpawnEffector@@@Z 10071ad0 f i DestroyableArchitecture.obj
 0001:00071120       ?CDestroyableArchitecture_New@@YAPAVCEntity@@XZ 10072120 f   DestroyableArchitecture.obj
 0001:000711b0       ?CDestroyableArchitecture_OnInitClass@@YAXXZ 100721b0 f   DestroyableArchitecture.obj
 0001:000711c0       ?CDestroyableArchitecture_OnEndClass@@YAXXZ 100721c0 f   DestroyableArchitecture.obj
 0001:000711d0       ?CDestroyableArchitecture_OnPrecache@@YAXPAVCDLLEntityClass@@J@Z 100721d0 f   DestroyableArchitecture.obj
 0001:000711e0       ?CDestroyableArchitecture_OnWorldEnd@@YAXPAVCWorld@@@Z 100721e0 f   DestroyableArchitecture.obj
 0001:000711f0       ?CDestroyableArchitecture_OnWorldInit@@YAXPAVCWorld@@@Z 100721f0 f   DestroyableArchitecture.obj
 0001:00071200       ?CDestroyableArchitecture_OnWorldTick@@YAXPAVCWorld@@@Z 10072200 f   DestroyableArchitecture.obj
 0001:00071210       ?CDestroyableArchitecture_OnWorldRender@@YAXPAVCWorld@@@Z 10072210 f   DestroyableArchitecture.obj
 0001:000712e0       ?SetDefaultProperties@CDestroyableArchitecture@@UAEXXZ 100722e0 f   DestroyableArchitecture.obj
 0001:000713c0       ?Precache@CDestroyableArchitecture@@UAEXXZ 100723c0 f   DestroyableArchitecture.obj
 0001:000714d0       ?IsTargetValid@CDestroyableArchitecture@@UAEHJPAVCEntity@@@Z 100724d0 f   DestroyableArchitecture.obj
 0001:00071510       ?GetGradientName@CDestroyableArchitecture@@UAEABVCTString@@J@Z 10072510 f   DestroyableArchitecture.obj
 0001:000715d0       ?UncacheShadowsForGradient@CDestroyableArchitecture@@QAEXPAVCGradientMarker@@@Z 100725d0 f   DestroyableArchitecture.obj
 0001:000715f0       ?GetGradient@CDestroyableArchitecture@@UAEHJAAVCGradientParameters@@@Z 100725f0 f   DestroyableArchitecture.obj
 0001:00071620       ?ReceiveDamage@CDestroyableArchitecture@@UAEXPAVCEntity@@W4DamageType@@MABV?$Vector@M$02@@2@Z 10072620 f   DestroyableArchitecture.obj
 0001:00071690       ?DestroyObelisk@CDestroyableArchitecture@@QAEXXZ 10072690 f   DestroyableArchitecture.obj
 0001:00071bf0       ?DestroyPylon@CDestroyableArchitecture@@QAEXXZ 10072bf0 f   DestroyableArchitecture.obj
 0001:000721b0       ?GetUsedMemory@CDestroyableArchitecture@@UAEJXZ 100731b0 f   DestroyableArchitecture.obj
 0001:000721e0       ?Main@CDestroyableArchitecture@@QAEHABVCEntityEvent@@@Z 100731e0 f   DestroyableArchitecture.obj
 0001:00072280       ?H0x006b0000_Main_01@CDestroyableArchitecture@@QAEHABVCEntityEvent@@@Z 10073280 f   DestroyableArchitecture.obj
 0001:00072610       ?H0x006b0001_Main_02@CDestroyableArchitecture@@QAEHABVCEntityEvent@@@Z 10073610 f   DestroyableArchitecture.obj
 0001:00072670       ?GetName@CDestroyableArchitecture@@UBEABVCTString@@XZ 10073670 f i DestroyableArchitecture.obj
 0001:00072680       ?IsTargetable@CDestroyableArchitecture@@UBEHXZ 10073680 f i DestroyableArchitecture.obj
 0001:00072690       ??_ECDestroyableArchitecture@@UAEPAXI@Z 10073690 f i DestroyableArchitecture.obj
 0001:00072690       ??_GCDestroyableArchitecture@@UAEPAXI@Z 10073690 f i DestroyableArchitecture.obj
 0001:000726c0       ??1CDestroyableArchitecture@@UAE@XZ 100736c0 f i DestroyableArchitecture.obj
 0001:00072740       ?ClearToDefault@@YAXAAW4PSSState@@@Z 10073740 f i Devil.obj
 0001:00072750       ??0EForcePathMarker@@QAE@ABV0@@Z 10073750 f i Devil.obj
 0001:00072780       ??4EForcePathMarker@@QAEAAV0@ABV0@@Z 10073780 f i Devil.obj
 0001:000727c0       ??1EForcePathMarker@@UAE@XZ 100737c0 f i Devil.obj
 0001:00072850       ??_GEForcePathMarker@@UAEPAXI@Z 10073850 f i Devil.obj
 0001:00072880       ??_EEForcePathMarker@@UAEPAXI@Z 10073880 f i Devil.obj
 0001:000728e0       ?ClearToDefault@@YAXAAVEForcePathMarker@@@Z 100738e0 f i Devil.obj
 0001:00073770       ?CDevil_New@@YAPAVCEntity@@XZ 10074770 f   Devil.obj
 0001:00073890       ?CDevil_OnInitClass@@YAXXZ 10074890 f   Devil.obj
 0001:000738a0       ?CDevil_OnEndClass@@YAXXZ  100748a0 f   Devil.obj
 0001:000738b0       ?CDevil_OnPrecache@@YAXPAVCDLLEntityClass@@J@Z 100748b0 f   Devil.obj
 0001:000738c0       ?CDevil_OnWorldEnd@@YAXPAVCWorld@@@Z 100748c0 f   Devil.obj
 0001:000738d0       ?CDevil_OnWorldInit@@YAXPAVCWorld@@@Z 100748d0 f   Devil.obj
 0001:000738e0       ?CDevil_OnWorldTick@@YAXPAVCWorld@@@Z 100748e0 f   Devil.obj
 0001:000738f0       ?CDevil_OnWorldRender@@YAXPAVCWorld@@@Z 100748f0 f   Devil.obj
 0001:00073950       ?MakeCopy@EBrushDestroyedByDevil@@UAEPAVCEntityEvent@@XZ 10074950 f   Devil.obj
 0001:000739a0       ??0EBrushDestroyedByDevil@@QAE@XZ 100749a0 f   Devil.obj
 0001:000739f0       ?MakeCopy@ERegenerationImpuls@@UAEPAVCEntityEvent@@XZ 100749f0 f   Devil.obj
 0001:00073a20       ??0ERegenerationImpuls@@QAE@XZ 10074a20 f   Devil.obj
 0001:00073a30       ?MakeCopy@EDevilCommand@@UAEPAVCEntityEvent@@XZ 10074a30 f   Devil.obj
 0001:00073a90       ??0EDevilCommand@@QAE@XZ   10074a90 f   Devil.obj
 0001:00073b50       ?SetDefaultProperties@CDevil@@UAEXXZ 10074b50 f   Devil.obj
 0001:00073db0       ?GetPlayerKillDescription@CDevil@@UAE?AVCTString@@ABV2@ABVEDeath@@@Z 10074db0 f   Devil.obj
 0001:00073e50       ?Precache@CDevil@@UAEXXZ   10074e50 f   Devil.obj
 0001:00073ff0       ?IsTargetValid@CDevil@@UAEHJPAVCEntity@@@Z 10074ff0 f   Devil.obj
 0001:00074020       ?Read_t@CDevil@@UAEXPAVCTStream@@@Z 10075020 f   Devil.obj
 0001:00074040       ?GetLightSource@CDevil@@UAEPAVCLightSource@@XZ 10075040 f   Devil.obj
 0001:00074060       ?SetupLightSource@CDevil@@QAEXXZ 10075060 f   Devil.obj
 0001:000740f0       ?PlayLightAnim@CDevil@@QAEXJK@Z 100750f0 f   Devil.obj
 0001:00074120       ?GetEntityInfo@CDevil@@UAEPAXXZ 10075120 f   Devil.obj
 0001:00074130       ?ForcesCannonballToExplode@CDevil@@UAEHXZ 10075130 f   Devil.obj
 0001:00074140       ?SetSpeedsToDesiredPosition@CDevil@@UAEXABV?$Vector@M$02@@MH@Z 10075140 f   Devil.obj
 0001:00074260       ?GetCrushHealth@CDevil@@UAEMXZ 10075260 f   Devil.obj
 0001:00074270       ?SelectRandomAnger@CDevil@@QAEXXZ 10075270 f   Devil.obj
 0001:000742b0       ?GetLockRotationSpeed@CDevil@@UAEMXZ 100752b0 f   Devil.obj
 0001:000742c0       ?ShakeItBaby@CDevil@@QAEXMM@Z 100752c0 f   Devil.obj
 0001:00074360       ?ShakeItFarBaby@CDevil@@QAEXMM@Z 10075360 f   Devil.obj
 0001:00074400       ?InflictHoofDamage@CDevil@@QAEXV?$Vector@M$02@@@Z 10075400 f   Devil.obj
 0001:000744c0       ?ApplyFootQuake@CDevil@@QAEXXZ 100754c0 f   Devil.obj
 0001:00074740       ?StopFireBreathParticles@CDevil@@QAEXXZ 10075740 f   Devil.obj
 0001:00074760       ?StopRegenerationParticles@CDevil@@QAEXXZ 10075760 f   Devil.obj
 0001:00074780       ?TurnOnPhysics@CDevil@@QAEXXZ 10075780 f   Devil.obj
 0001:000747a0       ?TurnOffPhysics@CDevil@@QAEXXZ 100757a0 f   Devil.obj
 0001:000747c0       ?RenderParticles@CDevil@@UAEXXZ 100757c0 f   Devil.obj
 0001:00074980       ?GetWeaponPositionRelative@CDevil@@QAE?AV?$Vector@M$02@@XZ 10075980 f   Devil.obj
 0001:00074b40       ?GetWeaponPositionAbsolute@CDevil@@QAE?AV?$Vector@M$02@@XZ 10075b40 f   Devil.obj
 0001:00074bf0       ?GetFireingPositionRelative@CDevil@@QAE?AV?$Vector@M$02@@XZ 10075bf0 f   Devil.obj
 0001:00074fe0       ?GetFireingPositionAbsolute@CDevil@@QAE?AV?$Vector@M$02@@XZ 10075fe0 f   Devil.obj
 0001:00075090       ?ApplyTickRegeneration@CDevil@@QAEXXZ 10076090 f   Devil.obj
 0001:00075230       ?PostMoving@CDevil@@UAEXXZ 10076230 f   Devil.obj
 0001:00075260       ?ReceiveDamage@CDevil@@UAEXPAVCEntity@@W4DamageType@@MABV?$Vector@M$02@@2@Z 10076260 f   Devil.obj
 0001:000752e0       ?AdjustShadingParameters@CDevil@@UAEHAAV?$Vector@M$02@@AAK1@Z 100762e0 f   Devil.obj
 0001:00075ca0       ?AnimForDamage@CDevil@@UAEJM@Z 10076ca0 f   Devil.obj
 0001:00075cc0       ?AnimForDeath@CDevil@@UAEJXZ 10076cc0 f   Devil.obj
 0001:00075cd0       ?DeathNotify@CDevil@@UAEXXZ 10076cd0 f   Devil.obj
 0001:00075cf0       ?StandingAnim@CDevil@@UAEXXZ 10076cf0 f   Devil.obj
 0001:00075d00       ?WalkingAnim@CDevil@@UAEXXZ 10076d00 f   Devil.obj
 0001:00075d40       ?RunningAnim@CDevil@@UAEXXZ 10076d40 f   Devil.obj
 0001:00075d50       ?RotatingAnim@CDevil@@UAEXXZ 10076d50 f   Devil.obj
 0001:00075d60       ?IdleSound@CDevil@@UAEXXZ  10076d60 f   Devil.obj
 0001:00075d80       ?SightSound@CDevil@@UAEXXZ 10076d80 f   Devil.obj
 0001:00075d90       ?WoundSound@CDevil@@UAEXXZ 10076d90 f   Devil.obj
 0001:00075db0       ?DeathSound@CDevil@@UAEXXZ 10076db0 f   Devil.obj
 0001:00075dd0       ?StartFireLaser@CDevil@@QAEXXZ 10076dd0 f   Devil.obj
 0001:00075de0       ?FireOneLaser@CDevil@@QAEXMM@Z 10076de0 f   Devil.obj
 0001:00075f10       ?StopFireLaser@CDevil@@QAEXXZ 10076f10 f   Devil.obj
 0001:00075f30       ?StartFireRocket@CDevil@@QAEXXZ 10076f30 f   Devil.obj
 0001:00075f40       ?PlayWeaponSound@CDevil@@QAEXK@Z 10076f40 f   Devil.obj
 0001:00075f80       ?FireOneRocket@CDevil@@QAEXM@Z 10076f80 f   Devil.obj
 0001:000760c0       ?StopFireRocket@CDevil@@QAEXXZ 100770c0 f   Devil.obj
 0001:000760e0       ?AddLowerWeapons@CDevil@@QAEXXZ 100770e0 f   Devil.obj
 0001:00076150       ?AddUpperWeapons@CDevil@@QAEXXZ 10077150 f   Devil.obj
 0001:000761c0       ?RemoveWeapons@CDevil@@QAEXXZ 100771c0 f   Devil.obj
 0001:00076200       ?GetAction@CDevil@@QAEPAVCDevilMarker@@XZ 10077200 f   Devil.obj
 0001:00076210       ?F_FirePredictedProjectile@CDevil@@QAEXXZ 10077210 f   Devil.obj
 0001:00076440       ?HandleEvent@CDevil@@UAEHABVCEntityEvent@@@Z 10077440 f   Devil.obj
 0001:00076550       ?WalkTo@CDevil@@QAEHABVCEntityEvent@@@Z 10077550 f   Devil.obj
 0001:000765b0       ?H0x014c0004_WalkTo_01@CDevil@@QAEHABVCEntityEvent@@@Z 100775b0 f   Devil.obj
 0001:00076650       ?H0x014c0005_WalkTo_02@CDevil@@QAEHABVCEntityEvent@@@Z 10077650 f   Devil.obj
 0001:00076720       ?H0x014c0008_WalkTo_05@CDevil@@QAEHABVCEntityEvent@@@Z 10077720 f   Devil.obj
 0001:000767e0       ?H0x014c0006_WalkTo_03@CDevil@@QAEHABVCEntityEvent@@@Z 100777e0 f   Devil.obj
 0001:00076880       ?H0x014c0007_WalkTo_04@CDevil@@QAEHABVCEntityEvent@@@Z 10077880 f   Devil.obj
 0001:000768e0       ?H0x014c0009_WalkTo_06@CDevil@@QAEHABVCEntityEvent@@@Z 100778e0 f   Devil.obj
 0001:00076940       ?DestroyCity@CDevil@@QAEHABVCEntityEvent@@@Z 10077940 f   Devil.obj
 0001:000769c0       ?H0x014c0030_DestroyCity_38@CDevil@@QAEHABVCEntityEvent@@@Z 100779c0 f   Devil.obj
 0001:00076a50       ?H0x014c000b_DestroyCity_01@CDevil@@QAEHABVCEntityEvent@@@Z 10077a50 f   Devil.obj
 0001:00076af0       ?H0x014c000c_DestroyCity_02@CDevil@@QAEHABVCEntityEvent@@@Z 10077af0 f   Devil.obj
 0001:00076b50       ?H0x014c002f_DestroyCity_37@CDevil@@QAEHABVCEntityEvent@@@Z 10077b50 f   Devil.obj
 0001:00076be0       ?H0x014c000d_DestroyCity_03@CDevil@@QAEHABVCEntityEvent@@@Z 10077be0 f   Devil.obj
 0001:00076c80       ?H0x014c000e_DestroyCity_04@CDevil@@QAEHABVCEntityEvent@@@Z 10077c80 f   Devil.obj
 0001:00076ce0       ?H0x014c002d_DestroyCity_35@CDevil@@QAEHABVCEntityEvent@@@Z 10077ce0 f   Devil.obj
 0001:00076d70       ?H0x014c000f_DestroyCity_05@CDevil@@QAEHABVCEntityEvent@@@Z 10077d70 f   Devil.obj
 0001:00076e10       ?H0x014c0010_DestroyCity_06@CDevil@@QAEHABVCEntityEvent@@@Z 10077e10 f   Devil.obj
 0001:00076e70       ?H0x014c002b_DestroyCity_33@CDevil@@QAEHABVCEntityEvent@@@Z 10077e70 f   Devil.obj
 0001:00076f00       ?H0x014c0011_DestroyCity_07@CDevil@@QAEHABVCEntityEvent@@@Z 10077f00 f   Devil.obj
 0001:00076fa0       ?H0x014c0012_DestroyCity_08@CDevil@@QAEHABVCEntityEvent@@@Z 10077fa0 f   Devil.obj
 0001:00077000       ?H0x014c0029_DestroyCity_31@CDevil@@QAEHABVCEntityEvent@@@Z 10078000 f   Devil.obj
 0001:00077090       ?H0x014c0013_DestroyCity_09@CDevil@@QAEHABVCEntityEvent@@@Z 10078090 f   Devil.obj
 0001:00077130       ?H0x014c0014_DestroyCity_10@CDevil@@QAEHABVCEntityEvent@@@Z 10078130 f   Devil.obj
 0001:00077190       ?H0x014c0027_DestroyCity_29@CDevil@@QAEHABVCEntityEvent@@@Z 10078190 f   Devil.obj
 0001:00077220       ?H0x014c0025_DestroyCity_27@CDevil@@QAEHABVCEntityEvent@@@Z 10078220 f   Devil.obj
 0001:000772b0       ?H0x014c0015_DestroyCity_11@CDevil@@QAEHABVCEntityEvent@@@Z 100782b0 f   Devil.obj
 0001:00077350       ?H0x014c0016_DestroyCity_12@CDevil@@QAEHABVCEntityEvent@@@Z 10078350 f   Devil.obj
 0001:000773f0       ?H0x014c0017_DestroyCity_13@CDevil@@QAEHABVCEntityEvent@@@Z 100783f0 f   Devil.obj
 0001:00077470       ?H0x014c0018_DestroyCity_14@CDevil@@QAEHABVCEntityEvent@@@Z 10078470 f   Devil.obj
 0001:000774d0       ?H0x014c0023_DestroyCity_25@CDevil@@QAEHABVCEntityEvent@@@Z 100784d0 f   Devil.obj
 0001:00077560       ?H0x014c0019_DestroyCity_15@CDevil@@QAEHABVCEntityEvent@@@Z 10078560 f   Devil.obj
 0001:00077600       ?H0x014c001a_DestroyCity_16@CDevil@@QAEHABVCEntityEvent@@@Z 10078600 f   Devil.obj
 0001:00077660       ?H0x014c0021_DestroyCity_23@CDevil@@QAEHABVCEntityEvent@@@Z 10078660 f   Devil.obj
 0001:000776f0       ?H0x014c001f_DestroyCity_21@CDevil@@QAEHABVCEntityEvent@@@Z 100786f0 f   Devil.obj
 0001:00077770       ?H0x014c001b_DestroyCity_17@CDevil@@QAEHABVCEntityEvent@@@Z 10078770 f   Devil.obj
 0001:000777f0       ?H0x014c001c_DestroyCity_18@CDevil@@QAEHABVCEntityEvent@@@Z 100787f0 f   Devil.obj
 0001:00077850       ?H0x014c001d_DestroyCity_19@CDevil@@QAEHABVCEntityEvent@@@Z 10078850 f   Devil.obj
 0001:000778b0       ?H0x014c001e_DestroyCity_20@CDevil@@QAEHABVCEntityEvent@@@Z 100788b0 f   Devil.obj
 0001:00077910       ?H0x014c0020_DestroyCity_22@CDevil@@QAEHABVCEntityEvent@@@Z 10078910 f   Devil.obj
 0001:00077970       ?H0x014c0022_DestroyCity_24@CDevil@@QAEHABVCEntityEvent@@@Z 10078970 f   Devil.obj
 0001:000779d0       ?H0x014c0024_DestroyCity_26@CDevil@@QAEHABVCEntityEvent@@@Z 100789d0 f   Devil.obj
 0001:00077a30       ?H0x014c0026_DestroyCity_28@CDevil@@QAEHABVCEntityEvent@@@Z 10078a30 f   Devil.obj
 0001:00077a90       ?H0x014c0028_DestroyCity_30@CDevil@@QAEHABVCEntityEvent@@@Z 10078a90 f   Devil.obj
 0001:00077af0       ?H0x014c002a_DestroyCity_32@CDevil@@QAEHABVCEntityEvent@@@Z 10078af0 f   Devil.obj
 0001:00077b50       ?H0x014c002c_DestroyCity_34@CDevil@@QAEHABVCEntityEvent@@@Z 10078b50 f   Devil.obj
 0001:00077bb0       ?H0x014c002e_DestroyCity_36@CDevil@@QAEHABVCEntityEvent@@@Z 10078bb0 f   Devil.obj
 0001:00077cb0       ?H0x014c0031_DestroyCity_39@CDevil@@QAEHABVCEntityEvent@@@Z 10078cb0 f   Devil.obj
 0001:00077cc0       ?WaitCurrentAnimEnd@CDevil@@QAEHABVCEntityEvent@@@Z 10078cc0 f   Devil.obj
 0001:00077d30       ?H0x014c0033_WaitCurrentAnimEnd_01@CDevil@@QAEHABVCEntityEvent@@@Z 10078d30 f   Devil.obj
 0001:00077db0       ?H0x014c0034_WaitCurrentAnimEnd_02@CDevil@@QAEHABVCEntityEvent@@@Z 10078db0 f   Devil.obj
 0001:00077e90       ?H0x014c0035_WaitCurrentAnimEnd_03@CDevil@@QAEHABVCEntityEvent@@@Z 10078e90 f   Devil.obj
 0001:00077f10       ?H0x014c0036_WaitCurrentAnimEnd_04@CDevil@@QAEHABVCEntityEvent@@@Z 10078f10 f   Devil.obj
 0001:00077f70       ?H0x014c0037_WaitCurrentAnimEnd_05@CDevil@@QAEHABVCEntityEvent@@@Z 10078f70 f   Devil.obj
 0001:00077fd0       ?H0x014c0038_WaitCurrentAnimEnd_06@CDevil@@QAEHABVCEntityEvent@@@Z 10078fd0 f   Devil.obj
 0001:00078030       ?WaitWalkToEnd@CDevil@@QAEHABVCEntityEvent@@@Z 10079030 f   Devil.obj
 0001:000780c0       ?H0x014c003a_WaitWalkToEnd_01@CDevil@@QAEHABVCEntityEvent@@@Z 100790c0 f   Devil.obj
 0001:00078160       ?H0x014c003b_WaitWalkToEnd_02@CDevil@@QAEHABVCEntityEvent@@@Z 10079160 f   Devil.obj
 0001:000781e0       ?H0x014c003c_WaitWalkToEnd_03@CDevil@@QAEHABVCEntityEvent@@@Z 100791e0 f   Devil.obj
 0001:00078260       ?H0x014c003d_WaitWalkToEnd_04@CDevil@@QAEHABVCEntityEvent@@@Z 10079260 f   Devil.obj
 0001:000782c0       ?H0x014c003e_WaitWalkToEnd_05@CDevil@@QAEHABVCEntityEvent@@@Z 100792c0 f   Devil.obj
 0001:00078320       ?H0x014c003f_WaitWalkToEnd_06@CDevil@@QAEHABVCEntityEvent@@@Z 10079320 f   Devil.obj
 0001:000783c0       ?H0x014c0040_WaitWalkToEnd_07@CDevil@@QAEHABVCEntityEvent@@@Z 100793c0 f   Devil.obj
 0001:00078420       ?WaitWalkOrIdleToEnd@CDevil@@QAEHABVCEntityEvent@@@Z 10079420 f   Devil.obj
 0001:000784b0       ?H0x014c0042_WaitWalkOrIdleToEnd_01@CDevil@@QAEHABVCEntityEvent@@@Z 100794b0 f   Devil.obj
 0001:00078550       ?H0x014c0043_WaitWalkOrIdleToEnd_02@CDevil@@QAEHABVCEntityEvent@@@Z 10079550 f   Devil.obj
 0001:000785d0       ?H0x014c0044_WaitWalkOrIdleToEnd_03@CDevil@@QAEHABVCEntityEvent@@@Z 100795d0 f   Devil.obj
 0001:00078650       ?H0x014c0045_WaitWalkOrIdleToEnd_04@CDevil@@QAEHABVCEntityEvent@@@Z 10079650 f   Devil.obj
 0001:000786b0       ?H0x014c0050_WaitWalkOrIdleToEnd_15@CDevil@@QAEHABVCEntityEvent@@@Z 100796b0 f   Devil.obj
 0001:00078740       ?H0x014c0046_WaitWalkOrIdleToEnd_05@CDevil@@QAEHABVCEntityEvent@@@Z 10079740 f   Devil.obj
 0001:000787e0       ?H0x014c0047_WaitWalkOrIdleToEnd_06@CDevil@@QAEHABVCEntityEvent@@@Z 100797e0 f   Devil.obj
 0001:00078860       ?H0x014c0048_WaitWalkOrIdleToEnd_07@CDevil@@QAEHABVCEntityEvent@@@Z 10079860 f   Devil.obj
 0001:000788e0       ?H0x014c0049_WaitWalkOrIdleToEnd_08@CDevil@@QAEHABVCEntityEvent@@@Z 100798e0 f   Devil.obj
 0001:00078940       ?H0x014c004e_WaitWalkOrIdleToEnd_13@CDevil@@QAEHABVCEntityEvent@@@Z 10079940 f   Devil.obj
 0001:000789d0       ?H0x014c004a_WaitWalkOrIdleToEnd_09@CDevil@@QAEHABVCEntityEvent@@@Z 100799d0 f   Devil.obj
 0001:00078a70       ?H0x014c004b_WaitWalkOrIdleToEnd_10@CDevil@@QAEHABVCEntityEvent@@@Z 10079a70 f   Devil.obj
 0001:00078ad0       ?H0x014c004c_WaitWalkOrIdleToEnd_11@CDevil@@QAEHABVCEntityEvent@@@Z 10079ad0 f   Devil.obj
 0001:00078b30       ?H0x014c004d_WaitWalkOrIdleToEnd_12@CDevil@@QAEHABVCEntityEvent@@@Z 10079b30 f   Devil.obj
 0001:00078b90       ?H0x014c004f_WaitWalkOrIdleToEnd_14@CDevil@@QAEHABVCEntityEvent@@@Z 10079b90 f   Devil.obj
 0001:00078bf0       ?Rise@CDevil@@QAEHABVCEntityEvent@@@Z 10079bf0 f   Devil.obj
 0001:00078c50       ?H0x014c0052_Rise_01@CDevil@@QAEHABVCEntityEvent@@@Z 10079c50 f   Devil.obj
 0001:00078cf0       ?H0x014c0053_Rise_02@CDevil@@QAEHABVCEntityEvent@@@Z 10079cf0 f   Devil.obj
 0001:00078d70       ?Celebrate@CDevil@@QAEHABVCEntityEvent@@@Z 10079d70 f   Devil.obj
 0001:00078dd0       ?H0x014c0055_Celebrate_01@CDevil@@QAEHABVCEntityEvent@@@Z 10079dd0 f   Devil.obj
 0001:00078e70       ?H0x014c0056_Celebrate_02@CDevil@@QAEHABVCEntityEvent@@@Z 10079e70 f   Devil.obj
 0001:00078f10       ?H0x014c0057_Celebrate_03@CDevil@@QAEHABVCEntityEvent@@@Z 10079f10 f   Devil.obj
 0001:00078f90       ?H0x014c0058_Celebrate_04@CDevil@@QAEHABVCEntityEvent@@@Z 10079f90 f   Devil.obj
 0001:00078ff0       ?Angry@CDevil@@QAEHABVCEntityEvent@@@Z 10079ff0 f   Devil.obj
 0001:00079050       ?H0x014c005a_Angry_01@CDevil@@QAEHABVCEntityEvent@@@Z 1007a050 f   Devil.obj
 0001:000790f0       ?H0x014c005b_Angry_02@CDevil@@QAEHABVCEntityEvent@@@Z 1007a0f0 f   Devil.obj
 0001:00079160       ?H0x014c005c_Angry_03@CDevil@@QAEHABVCEntityEvent@@@Z 1007a160 f   Devil.obj
 0001:00079200       ?H0x014c005d_Angry_04@CDevil@@QAEHABVCEntityEvent@@@Z 1007a200 f   Devil.obj
 0001:000792a0       ?H0x014c005e_Angry_05@CDevil@@QAEHABVCEntityEvent@@@Z 1007a2a0 f   Devil.obj
 0001:00079320       ?H0x014c005f_Angry_06@CDevil@@QAEHABVCEntityEvent@@@Z 1007a320 f   Devil.obj
 0001:00079380       ?SubBeamDamage1@CDevil@@QAEHABVCEntityEvent@@@Z 1007a380 f   Devil.obj
 0001:00079420       ?H0x014c0061_SubBeamDamage1_01@CDevil@@QAEHABVCEntityEvent@@@Z 1007a420 f   Devil.obj
 0001:000794a0       ?H0x014c0062_SubBeamDamage1_02@CDevil@@QAEHABVCEntityEvent@@@Z 1007a4a0 f   Devil.obj
 0001:00079510       ?SubBeamDamage2@CDevil@@QAEHABVCEntityEvent@@@Z 1007a510 f   Devil.obj
 0001:00079570       ?H0x014c0066_SubBeamDamage2_03@CDevil@@QAEHABVCEntityEvent@@@Z 1007a570 f   Devil.obj
 0001:000795e0       ?H0x014c0064_SubBeamDamage2_01@CDevil@@QAEHABVCEntityEvent@@@Z 1007a5e0 f   Devil.obj
 0001:000796a0       ?H0x014c0065_SubBeamDamage2_02@CDevil@@QAEHABVCEntityEvent@@@Z 1007a6a0 f   Devil.obj
 0001:00079700       ?H0x014c0067_SubBeamDamage2_04@CDevil@@QAEHABVCEntityEvent@@@Z 1007a700 f   Devil.obj
 0001:00079710       ?SubBeamDamage3@CDevil@@QAEHABVCEntityEvent@@@Z 1007a710 f   Devil.obj
 0001:000797a0       ?H0x014c0069_SubBeamDamage3_01@CDevil@@QAEHABVCEntityEvent@@@Z 1007a7a0 f   Devil.obj
 0001:00079820       ?H0x014c006a_SubBeamDamage3_02@CDevil@@QAEHABVCEntityEvent@@@Z 1007a820 f   Devil.obj
 0001:00079880       ?BeamDamage@CDevil@@QAEHABVCEntityEvent@@@Z 1007a880 f   Devil.obj
 0001:000798f0       ?H0x014c006c_BeamDamage_01@CDevil@@QAEHABVCEntityEvent@@@Z 1007a8f0 f   Devil.obj
 0001:000799c0       ?H0x014c006d_BeamDamage_02@CDevil@@QAEHABVCEntityEvent@@@Z 1007a9c0 f   Devil.obj
 0001:00079a20       ?Smash@CDevil@@QAEHABVCEntityEvent@@@Z 1007aa20 f   Devil.obj
 0001:00079a90       ?H0x014c006f_Smash_01@CDevil@@QAEHABVCEntityEvent@@@Z 1007aa90 f   Devil.obj
 0001:00079b30       ?H0x014c0070_Smash_02@CDevil@@QAEHABVCEntityEvent@@@Z 1007ab30 f   Devil.obj
 0001:00079ba0       ?H0x014c0071_Smash_03@CDevil@@QAEHABVCEntityEvent@@@Z 1007aba0 f   Devil.obj
 0001:00079c40       ?H0x014c0072_Smash_04@CDevil@@QAEHABVCEntityEvent@@@Z 1007ac40 f   Devil.obj
 0001:00079cb0       ?H0x014c0073_Smash_05@CDevil@@QAEHABVCEntityEvent@@@Z 1007acb0 f   Devil.obj
 0001:00079d30       ?H0x014c0074_Smash_06@CDevil@@QAEHABVCEntityEvent@@@Z 1007ad30 f   Devil.obj
 0001:00079db0       ?H0x014c0075_Smash_07@CDevil@@QAEHABVCEntityEvent@@@Z 1007adb0 f   Devil.obj
 0001:00079e30       ?H0x014c0076_Smash_08@CDevil@@QAEHABVCEntityEvent@@@Z 1007ae30 f   Devil.obj
 0001:00079f00       ?H0x014c0077_Smash_09@CDevil@@QAEHABVCEntityEvent@@@Z 1007af00 f   Devil.obj
 0001:00079f80       ?H0x014c0078_Smash_10@CDevil@@QAEHABVCEntityEvent@@@Z 1007af80 f   Devil.obj
 0001:0007a040       ?Punch@CDevil@@QAEHABVCEntityEvent@@@Z 1007b040 f   Devil.obj
 0001:0007a0b0       ?H0x014c007a_Punch_01@CDevil@@QAEHABVCEntityEvent@@@Z 1007b0b0 f   Devil.obj
 0001:0007a150       ?H0x014c007b_Punch_02@CDevil@@QAEHABVCEntityEvent@@@Z 1007b150 f   Devil.obj
 0001:0007a1c0       ?H0x014c007c_Punch_03@CDevil@@QAEHABVCEntityEvent@@@Z 1007b1c0 f   Devil.obj
 0001:0007a260       ?H0x014c007d_Punch_04@CDevil@@QAEHABVCEntityEvent@@@Z 1007b260 f   Devil.obj
 0001:0007a2d0       ?H0x014c007e_Punch_05@CDevil@@QAEHABVCEntityEvent@@@Z 1007b2d0 f   Devil.obj
 0001:0007a350       ?H0x014c007f_Punch_06@CDevil@@QAEHABVCEntityEvent@@@Z 1007b350 f   Devil.obj
 0001:0007a3d0       ?H0x014c0080_Punch_07@CDevil@@QAEHABVCEntityEvent@@@Z 1007b3d0 f   Devil.obj
 0001:0007a450       ?H0x014c0081_Punch_08@CDevil@@QAEHABVCEntityEvent@@@Z 1007b450 f   Devil.obj
 0001:0007a520       ?H0x014c0082_Punch_09@CDevil@@QAEHABVCEntityEvent@@@Z 1007b520 f   Devil.obj
 0001:0007a5a0       ?H0x014c0083_Punch_10@CDevil@@QAEHABVCEntityEvent@@@Z 1007b5a0 f   Devil.obj
 0001:0007a660       ?HitGround@CDevil@@QAEHABVCEntityEvent@@@Z 1007b660 f   Devil.obj
 0001:0007a6c0       ?H0x014c0085_HitGround_01@CDevil@@QAEHABVCEntityEvent@@@Z 1007b6c0 f   Devil.obj
 0001:0007a760       ?H0x014c0086_HitGround_02@CDevil@@QAEHABVCEntityEvent@@@Z 1007b760 f   Devil.obj
 0001:0007a7f0       ?H0x014c0087_HitGround_03@CDevil@@QAEHABVCEntityEvent@@@Z 1007b7f0 f   Devil.obj
 0001:0007a870       ?H0x014c0088_HitGround_04@CDevil@@QAEHABVCEntityEvent@@@Z 1007b870 f   Devil.obj
 0001:0007a9a0       ?GrabLowerWeapons@CDevil@@QAEHABVCEntityEvent@@@Z 1007b9a0 f   Devil.obj
 0001:0007aa00       ?H0x014c008a_GrabLowerWeapons_01@CDevil@@QAEHABVCEntityEvent@@@Z 1007ba00 f   Devil.obj
 0001:0007aaa0       ?H0x014c008b_GrabLowerWeapons_02@CDevil@@QAEHABVCEntityEvent@@@Z 1007baa0 f   Devil.obj
 0001:0007ab10       ?H0x014c008c_GrabLowerWeapons_03@CDevil@@QAEHABVCEntityEvent@@@Z 1007bb10 f   Devil.obj
 0001:0007abb0       ?H0x014c008d_GrabLowerWeapons_04@CDevil@@QAEHABVCEntityEvent@@@Z 1007bbb0 f   Devil.obj
 0001:0007ac30       ?H0x014c008e_GrabLowerWeapons_05@CDevil@@QAEHABVCEntityEvent@@@Z 1007bc30 f   Devil.obj
 0001:0007acb0       ?H0x014c008f_GrabLowerWeapons_06@CDevil@@QAEHABVCEntityEvent@@@Z 1007bcb0 f   Devil.obj
 0001:0007ad20       ?H0x014c0090_GrabLowerWeapons_07@CDevil@@QAEHABVCEntityEvent@@@Z 1007bd20 f   Devil.obj
 0001:0007adc0       ?H0x014c0091_GrabLowerWeapons_08@CDevil@@QAEHABVCEntityEvent@@@Z 1007bdc0 f   Devil.obj
 0001:0007ae20       ?GrabUpperWeapons@CDevil@@QAEHABVCEntityEvent@@@Z 1007be20 f   Devil.obj
 0001:0007ae80       ?H0x014c0093_GrabUpperWeapons_01@CDevil@@QAEHABVCEntityEvent@@@Z 1007be80 f   Devil.obj
 0001:0007af20       ?H0x014c0094_GrabUpperWeapons_02@CDevil@@QAEHABVCEntityEvent@@@Z 1007bf20 f   Devil.obj
 0001:0007af90       ?H0x014c0095_GrabUpperWeapons_03@CDevil@@QAEHABVCEntityEvent@@@Z 1007bf90 f   Devil.obj
 0001:0007b030       ?H0x014c0096_GrabUpperWeapons_04@CDevil@@QAEHABVCEntityEvent@@@Z 1007c030 f   Devil.obj
 0001:0007b0b0       ?H0x014c0097_GrabUpperWeapons_05@CDevil@@QAEHABVCEntityEvent@@@Z 1007c0b0 f   Devil.obj
 0001:0007b130       ?H0x014c0098_GrabUpperWeapons_06@CDevil@@QAEHABVCEntityEvent@@@Z 1007c130 f   Devil.obj
 0001:0007b1b0       ?H0x014c0099_GrabUpperWeapons_07@CDevil@@QAEHABVCEntityEvent@@@Z 1007c1b0 f   Devil.obj
 0001:0007b250       ?H0x014c009a_GrabUpperWeapons_08@CDevil@@QAEHABVCEntityEvent@@@Z 1007c250 f   Devil.obj
 0001:0007b2b0       ?GrabBothWeapons@CDevil@@QAEHABVCEntityEvent@@@Z 1007c2b0 f   Devil.obj
 0001:0007b310       ?H0x014c009c_GrabBothWeapons_01@CDevil@@QAEHABVCEntityEvent@@@Z 1007c310 f   Devil.obj
 0001:0007b3b0       ?H0x014c009d_GrabBothWeapons_02@CDevil@@QAEHABVCEntityEvent@@@Z 1007c3b0 f   Devil.obj
 0001:0007b420       ?H0x014c009e_GrabBothWeapons_03@CDevil@@QAEHABVCEntityEvent@@@Z 1007c420 f   Devil.obj
 0001:0007b4c0       ?H0x014c009f_GrabBothWeapons_04@CDevil@@QAEHABVCEntityEvent@@@Z 1007c4c0 f   Devil.obj
 0001:0007b540       ?H0x014c00a0_GrabBothWeapons_05@CDevil@@QAEHABVCEntityEvent@@@Z 1007c540 f   Devil.obj
 0001:0007b5c0       ?H0x014c00a1_GrabBothWeapons_06@CDevil@@QAEHABVCEntityEvent@@@Z 1007c5c0 f   Devil.obj
 0001:0007b630       ?H0x014c00a2_GrabBothWeapons_07@CDevil@@QAEHABVCEntityEvent@@@Z 1007c630 f   Devil.obj
 0001:0007b6d0       ?H0x014c00a3_GrabBothWeapons_08@CDevil@@QAEHABVCEntityEvent@@@Z 1007c6d0 f   Devil.obj
 0001:0007b750       ?H0x014c00a4_GrabBothWeapons_09@CDevil@@QAEHABVCEntityEvent@@@Z 1007c750 f   Devil.obj
 0001:0007b7d0       ?H0x014c00a5_GrabBothWeapons_10@CDevil@@QAEHABVCEntityEvent@@@Z 1007c7d0 f   Devil.obj
 0001:0007b850       ?H0x014c00a6_GrabBothWeapons_11@CDevil@@QAEHABVCEntityEvent@@@Z 1007c850 f   Devil.obj
 0001:0007b8f0       ?H0x014c00a7_GrabBothWeapons_12@CDevil@@QAEHABVCEntityEvent@@@Z 1007c8f0 f   Devil.obj
 0001:0007b950       ?PreMainLoop@CDevil@@QAEHABVCEntityEvent@@@Z 1007c950 f   Devil.obj
 0001:0007bb10       ?BeWounded@CDevil@@QAEHABVCEntityEvent@@@Z 1007cb10 f   Devil.obj
 0001:0007bba0       ?H0x014c00aa_BeWounded_01@CDevil@@QAEHABVCEntityEvent@@@Z 1007cba0 f   Devil.obj
 0001:0007bc20       ?H0x014c00ab_BeWounded_02@CDevil@@QAEHABVCEntityEvent@@@Z 1007cc20 f   Devil.obj
 0001:0007bc80       ?Hit@CDevil@@QAEHABVCEntityEvent@@@Z 1007cc80 f   Devil.obj
 0001:0007bce0       ?H0x014c00ad_Hit_01@CDevil@@QAEHABVCEntityEvent@@@Z 1007cce0 f   Devil.obj
 0001:0007bd80       ?H0x014c00ae_Hit_02@CDevil@@QAEHABVCEntityEvent@@@Z 1007cd80 f   Devil.obj
 0001:0007bdf0       ?H0x014c00af_Hit_03@CDevil@@QAEHABVCEntityEvent@@@Z 1007cdf0 f   Devil.obj
 0001:0007be90       ?H0x014c00b0_Hit_04@CDevil@@QAEHABVCEntityEvent@@@Z 1007ce90 f   Devil.obj
 0001:0007bf10       ?H0x014c00b1_Hit_05@CDevil@@QAEHABVCEntityEvent@@@Z 1007cf10 f   Devil.obj
 0001:0007bf90       ?H0x014c00b2_Hit_06@CDevil@@QAEHABVCEntityEvent@@@Z 1007cf90 f   Devil.obj
 0001:0007c0e0       ?H0x014c00b3_Hit_07@CDevil@@QAEHABVCEntityEvent@@@Z 1007d0e0 f   Devil.obj
 0001:0007c160       ?H0x014c00b4_Hit_08@CDevil@@QAEHABVCEntityEvent@@@Z 1007d160 f   Devil.obj
 0001:0007c1c0       ?InitializeAttack@CDevil@@QAEHABVCEntityEvent@@@Z 1007d1c0 f   Devil.obj
 0001:0007c220       ?Fire@CDevil@@QAEHABVCEntityEvent@@@Z 1007d220 f   Devil.obj
 0001:0007c4e0       ?DevilLockOnEnemy@CDevil@@QAEHABVCEntityEvent@@@Z 1007d4e0 f   Devil.obj
 0001:0007c560       ?H0x014c00ba_DevilLockOnEnemy_03@CDevil@@QAEHABVCEntityEvent@@@Z 1007d560 f   Devil.obj
 0001:0007c620       ?H0x014c00b8_DevilLockOnEnemy_01@CDevil@@QAEHABVCEntityEvent@@@Z 1007d620 f   Devil.obj
 0001:0007c720       ?H0x014c00b9_DevilLockOnEnemy_02@CDevil@@QAEHABVCEntityEvent@@@Z 1007d720 f   Devil.obj
 0001:0007c780       ?H0x014c00bb_DevilLockOnEnemy_04@CDevil@@QAEHABVCEntityEvent@@@Z 1007d780 f   Devil.obj
 0001:0007c7e0       ?AdjustWeaponForFire@CDevil@@QAEHABVCEntityEvent@@@Z 1007d7e0 f   Devil.obj
 0001:0007cac0       ?H0x014c00bf_AdjustWeaponForFire_03@CDevil@@QAEHABVCEntityEvent@@@Z 1007dac0 f   Devil.obj
 0001:0007cb60       ?H0x014c00bd_AdjustWeaponForFire_01@CDevil@@QAEHABVCEntityEvent@@@Z 1007db60 f   Devil.obj
 0001:0007cc10       ?H0x014c00be_AdjustWeaponForFire_02@CDevil@@QAEHABVCEntityEvent@@@Z 1007dc10 f   Devil.obj
 0001:0007cc70       ?H0x014c00c0_AdjustWeaponForFire_04@CDevil@@QAEHABVCEntityEvent@@@Z 1007dc70 f   Devil.obj
 0001:0007ccd0       ?StraightenUpWeapon@CDevil@@QAEHABVCEntityEvent@@@Z 1007dcd0 f   Devil.obj
 0001:0007cd80       ?H0x014c00c4_StraightenUpWeapon_03@CDevil@@QAEHABVCEntityEvent@@@Z 1007dd80 f   Devil.obj
 0001:0007ce20       ?H0x014c00c2_StraightenUpWeapon_01@CDevil@@QAEHABVCEntityEvent@@@Z 1007de20 f   Devil.obj
 0001:0007ced0       ?H0x014c00c3_StraightenUpWeapon_02@CDevil@@QAEHABVCEntityEvent@@@Z 1007ded0 f   Devil.obj
 0001:0007cf30       ?H0x014c00c5_StraightenUpWeapon_04@CDevil@@QAEHABVCEntityEvent@@@Z 1007df30 f   Devil.obj
 0001:0007cf90       ?FireLaser@CDevil@@QAEHABVCEntityEvent@@@Z 1007df90 f   Devil.obj
 0001:0007cff0       ?H0x014c00c7_FireLaser_01@CDevil@@QAEHABVCEntityEvent@@@Z 1007dff0 f   Devil.obj
 0001:0007d090       ?H0x014c00c8_FireLaser_02@CDevil@@QAEHABVCEntityEvent@@@Z 1007e090 f   Devil.obj
 0001:0007d110       ?H0x014c00c9_FireLaser_03@CDevil@@QAEHABVCEntityEvent@@@Z 1007e110 f   Devil.obj
 0001:0007d190       ?H0x014c00ca_FireLaser_04@CDevil@@QAEHABVCEntityEvent@@@Z 1007e190 f   Devil.obj
 0001:0007d210       ?H0x014c00cb_FireLaser_05@CDevil@@QAEHABVCEntityEvent@@@Z 1007e210 f   Devil.obj
 0001:0007d2b0       ?H0x014c00cc_FireLaser_06@CDevil@@QAEHABVCEntityEvent@@@Z 1007e2b0 f   Devil.obj
 0001:0007d320       ?H0x014c00d1_FireLaser_11@CDevil@@QAEHABVCEntityEvent@@@Z 1007e320 f   Devil.obj
 0001:0007d3b0       ?H0x014c00cd_FireLaser_07@CDevil@@QAEHABVCEntityEvent@@@Z 1007e3b0 f   Devil.obj
 0001:0007d450       ?H0x014c00ce_FireLaser_08@CDevil@@QAEHABVCEntityEvent@@@Z 1007e450 f   Devil.obj
 0001:0007d4d0       ?H0x014c00cf_FireLaser_09@CDevil@@QAEHABVCEntityEvent@@@Z 1007e4d0 f   Devil.obj
 0001:0007d550       ?H0x014c00d0_FireLaser_10@CDevil@@QAEHABVCEntityEvent@@@Z 1007e550 f   Devil.obj
 0001:0007d640       ?H0x014c00d2_FireLaser_12@CDevil@@QAEHABVCEntityEvent@@@Z 1007e640 f   Devil.obj
 0001:0007d6a0       ?H0x014c00d3_FireLaser_13@CDevil@@QAEHABVCEntityEvent@@@Z 1007e6a0 f   Devil.obj
 0001:0007d740       ?H0x014c00d4_FireLaser_14@CDevil@@QAEHABVCEntityEvent@@@Z 1007e740 f   Devil.obj
 0001:0007d7a0       ?FireRocketLauncher@CDevil@@QAEHABVCEntityEvent@@@Z 1007e7a0 f   Devil.obj
 0001:0007d800       ?H0x014c00d6_FireRocketLauncher_01@CDevil@@QAEHABVCEntityEvent@@@Z 1007e800 f   Devil.obj
 0001:0007d8a0       ?H0x014c00d7_FireRocketLauncher_02@CDevil@@QAEHABVCEntityEvent@@@Z 1007e8a0 f   Devil.obj
 0001:0007d920       ?H0x014c00d8_FireRocketLauncher_03@CDevil@@QAEHABVCEntityEvent@@@Z 1007e920 f   Devil.obj
 0001:0007d9a0       ?H0x014c00d9_FireRocketLauncher_04@CDevil@@QAEHABVCEntityEvent@@@Z 1007e9a0 f   Devil.obj
 0001:0007da20       ?H0x014c00da_FireRocketLauncher_05@CDevil@@QAEHABVCEntityEvent@@@Z 1007ea20 f   Devil.obj
 0001:0007dac0       ?H0x014c00db_FireRocketLauncher_06@CDevil@@QAEHABVCEntityEvent@@@Z 1007eac0 f   Devil.obj
 0001:0007db30       ?H0x014c00e0_FireRocketLauncher_11@CDevil@@QAEHABVCEntityEvent@@@Z 1007eb30 f   Devil.obj
 0001:0007dbc0       ?H0x014c00dc_FireRocketLauncher_07@CDevil@@QAEHABVCEntityEvent@@@Z 1007ebc0 f   Devil.obj
 0001:0007dc60       ?H0x014c00dd_FireRocketLauncher_08@CDevil@@QAEHABVCEntityEvent@@@Z 1007ec60 f   Devil.obj
 0001:0007dce0       ?H0x014c00de_FireRocketLauncher_09@CDevil@@QAEHABVCEntityEvent@@@Z 1007ece0 f   Devil.obj
 0001:0007dd60       ?H0x014c00df_FireRocketLauncher_10@CDevil@@QAEHABVCEntityEvent@@@Z 1007ed60 f   Devil.obj
 0001:0007de10       ?H0x014c00e1_FireRocketLauncher_12@CDevil@@QAEHABVCEntityEvent@@@Z 1007ee10 f   Devil.obj
 0001:0007de70       ?H0x014c00e2_FireRocketLauncher_13@CDevil@@QAEHABVCEntityEvent@@@Z 1007ee70 f   Devil.obj
 0001:0007df10       ?H0x014c00e3_FireRocketLauncher_14@CDevil@@QAEHABVCEntityEvent@@@Z 1007ef10 f   Devil.obj
 0001:0007df70       ?FirePredictedProjectile@CDevil@@QAEHABVCEntityEvent@@@Z 1007ef70 f   Devil.obj
 0001:0007dfd0       ?H0x014c00e5_FirePredictedProjectile_01@CDevil@@QAEHABVCEntityEvent@@@Z 1007efd0 f   Devil.obj
 0001:0007e070       ?H0x014c00e6_FirePredictedProjectile_02@CDevil@@QAEHABVCEntityEvent@@@Z 1007f070 f   Devil.obj
 0001:0007e0f0       ?H0x014c00e7_FirePredictedProjectile_03@CDevil@@QAEHABVCEntityEvent@@@Z 1007f0f0 f   Devil.obj
 0001:0007e170       ?H0x014c00e8_FirePredictedProjectile_04@CDevil@@QAEHABVCEntityEvent@@@Z 1007f170 f   Devil.obj
 0001:0007e1f0       ?H0x014c00e9_FirePredictedProjectile_05@CDevil@@QAEHABVCEntityEvent@@@Z 1007f1f0 f   Devil.obj
 0001:0007e290       ?H0x014c00ea_FirePredictedProjectile_06@CDevil@@QAEHABVCEntityEvent@@@Z 1007f290 f   Devil.obj
 0001:0007e300       ?H0x014c00ef_FirePredictedProjectile_11@CDevil@@QAEHABVCEntityEvent@@@Z 1007f300 f   Devil.obj
 0001:0007e390       ?H0x014c00eb_FirePredictedProjectile_07@CDevil@@QAEHABVCEntityEvent@@@Z 1007f390 f   Devil.obj
 0001:0007e430       ?H0x014c00ec_FirePredictedProjectile_08@CDevil@@QAEHABVCEntityEvent@@@Z 1007f430 f   Devil.obj
 0001:0007e4b0       ?H0x014c00ed_FirePredictedProjectile_09@CDevil@@QAEHABVCEntityEvent@@@Z 1007f4b0 f   Devil.obj
 0001:0007e530       ?H0x014c00ee_FirePredictedProjectile_10@CDevil@@QAEHABVCEntityEvent@@@Z 1007f530 f   Devil.obj
 0001:0007e5d0       ?H0x014c00f0_FirePredictedProjectile_12@CDevil@@QAEHABVCEntityEvent@@@Z 1007f5d0 f   Devil.obj
 0001:0007e630       ?H0x014c00f1_FirePredictedProjectile_13@CDevil@@QAEHABVCEntityEvent@@@Z 1007f630 f   Devil.obj
 0001:0007e6d0       ?H0x014c00f2_FirePredictedProjectile_14@CDevil@@QAEHABVCEntityEvent@@@Z 1007f6d0 f   Devil.obj
 0001:0007e740       ?FireElectricityGun@CDevil@@QAEHABVCEntityEvent@@@Z 1007f740 f   Devil.obj
 0001:0007e7a0       ?H0x014c00f4_FireElectricityGun_01@CDevil@@QAEHABVCEntityEvent@@@Z 1007f7a0 f   Devil.obj
 0001:0007e840       ?H0x014c00f5_FireElectricityGun_02@CDevil@@QAEHABVCEntityEvent@@@Z 1007f840 f   Devil.obj
 0001:0007e8c0       ?H0x014c00f6_FireElectricityGun_03@CDevil@@QAEHABVCEntityEvent@@@Z 1007f8c0 f   Devil.obj
 0001:0007e940       ?H0x014c00f7_FireElectricityGun_04@CDevil@@QAEHABVCEntityEvent@@@Z 1007f940 f   Devil.obj
 0001:0007e9d0       ?H0x014c0102_FireElectricityGun_15@CDevil@@QAEHABVCEntityEvent@@@Z 1007f9d0 f   Devil.obj
 0001:0007ea60       ?H0x014c00f8_FireElectricityGun_05@CDevil@@QAEHABVCEntityEvent@@@Z 1007fa60 f   Devil.obj
 0001:0007eb00       ?H0x014c00f9_FireElectricityGun_06@CDevil@@QAEHABVCEntityEvent@@@Z 1007fb00 f   Devil.obj
 0001:0007ebc0       ?H0x014c00fa_FireElectricityGun_07@CDevil@@QAEHABVCEntityEvent@@@Z 1007fbc0 f   Devil.obj
 0001:0007ec40       ?H0x014c00fb_FireElectricityGun_08@CDevil@@QAEHABVCEntityEvent@@@Z 1007fc40 f   Devil.obj
 0001:0007ecd0       ?H0x014c00fe_FireElectricityGun_11@CDevil@@QAEHABVCEntityEvent@@@Z 1007fcd0 f   Devil.obj
 0001:0007ed80       ?H0x014c00fc_FireElectricityGun_09@CDevil@@QAEHABVCEntityEvent@@@Z 1007fd80 f   Devil.obj
 0001:0007f200       ?H0x014c00fd_FireElectricityGun_10@CDevil@@QAEHABVCEntityEvent@@@Z 10080200 f   Devil.obj
 0001:0007f260       ?H0x014c00ff_FireElectricityGun_12@CDevil@@QAEHABVCEntityEvent@@@Z 10080260 f   Devil.obj
 0001:0007f2f0       ?H0x014c0100_FireElectricityGun_13@CDevil@@QAEHABVCEntityEvent@@@Z 100802f0 f   Devil.obj
 0001:0007f370       ?H0x014c0101_FireElectricityGun_14@CDevil@@QAEHABVCEntityEvent@@@Z 10080370 f   Devil.obj
 0001:0007f410       ?H0x014c0103_FireElectricityGun_16@CDevil@@QAEHABVCEntityEvent@@@Z 10080410 f   Devil.obj
 0001:0007f470       ?H0x014c0104_FireElectricityGun_17@CDevil@@QAEHABVCEntityEvent@@@Z 10080470 f   Devil.obj
 0001:0007f510       ?H0x014c0105_FireElectricityGun_18@CDevil@@QAEHABVCEntityEvent@@@Z 10080510 f   Devil.obj
 0001:0007f580       ?FireGuidedProjectile@CDevil@@QAEHABVCEntityEvent@@@Z 10080580 f   Devil.obj
 0001:0007f5e0       ?H0x014c0107_FireGuidedProjectile_01@CDevil@@QAEHABVCEntityEvent@@@Z 100805e0 f   Devil.obj
 0001:0007f680       ?H0x014c0108_FireGuidedProjectile_02@CDevil@@QAEHABVCEntityEvent@@@Z 10080680 f   Devil.obj
 0001:0007f6f0       ?H0x014c0109_FireGuidedProjectile_03@CDevil@@QAEHABVCEntityEvent@@@Z 100806f0 f   Devil.obj
 0001:0007f790       ?H0x014c010a_FireGuidedProjectile_04@CDevil@@QAEHABVCEntityEvent@@@Z 10080790 f   Devil.obj
 0001:0007f810       ?H0x014c010b_FireGuidedProjectile_05@CDevil@@QAEHABVCEntityEvent@@@Z 10080810 f   Devil.obj
 0001:0007f8b0       ?H0x014c010c_FireGuidedProjectile_06@CDevil@@QAEHABVCEntityEvent@@@Z 100808b0 f   Devil.obj
 0001:0007fa60       ?H0x014c0111_FireGuidedProjectile_11@CDevil@@QAEHABVCEntityEvent@@@Z 10080a60 f   Devil.obj
 0001:0007fb00       ?H0x014c010d_FireGuidedProjectile_07@CDevil@@QAEHABVCEntityEvent@@@Z 10080b00 f   Devil.obj
 0001:0007fb80       ?H0x014c010e_FireGuidedProjectile_08@CDevil@@QAEHABVCEntityEvent@@@Z 10080b80 f   Devil.obj
 0001:0007fcc0       ?H0x014c010f_FireGuidedProjectile_09@CDevil@@QAEHABVCEntityEvent@@@Z 10080cc0 f   Devil.obj
 0001:0007fd40       ?H0x014c0110_FireGuidedProjectile_10@CDevil@@QAEHABVCEntityEvent@@@Z 10080d40 f   Devil.obj
 0001:0007fda0       ?H0x014c0112_FireGuidedProjectile_12@CDevil@@QAEHABVCEntityEvent@@@Z 10080da0 f   Devil.obj
 0001:0007fe00       ?H0x014c0113_FireGuidedProjectile_13@CDevil@@QAEHABVCEntityEvent@@@Z 10080e00 f   Devil.obj
 0001:0007fea0       ?H0x014c0114_FireGuidedProjectile_14@CDevil@@QAEHABVCEntityEvent@@@Z 10080ea0 f   Devil.obj
 0001:0007ff30       ?JumpIntoPyramid@CDevil@@QAEHABVCEntityEvent@@@Z 10080f30 f   Devil.obj
 0001:0007fff0       ?H0x014c0116_JumpIntoPyramid_01@CDevil@@QAEHABVCEntityEvent@@@Z 10080ff0 f   Devil.obj
 0001:00080070       ?H0x014c0117_JumpIntoPyramid_02@CDevil@@QAEHABVCEntityEvent@@@Z 10081070 f   Devil.obj
 0001:000800e0       ?H0x014c011a_JumpIntoPyramid_05@CDevil@@QAEHABVCEntityEvent@@@Z 100810e0 f   Devil.obj
 0001:00080190       ?H0x014c0118_JumpIntoPyramid_03@CDevil@@QAEHABVCEntityEvent@@@Z 10081190 f   Devil.obj
 0001:00080200       ?H0x014c0119_JumpIntoPyramid_04@CDevil@@QAEHABVCEntityEvent@@@Z 10081200 f   Devil.obj
 0001:000802a0       ?H0x014c011b_JumpIntoPyramid_06@CDevil@@QAEHABVCEntityEvent@@@Z 100812a0 f   Devil.obj
 0001:00080340       ?H0x014c011c_JumpIntoPyramid_07@CDevil@@QAEHABVCEntityEvent@@@Z 10081340 f   Devil.obj
 0001:000803c0       ?H0x014c011d_JumpIntoPyramid_08@CDevil@@QAEHABVCEntityEvent@@@Z 100813c0 f   Devil.obj
 0001:00080470       ?H0x014c011e_JumpIntoPyramid_09@CDevil@@QAEHABVCEntityEvent@@@Z 10081470 f   Devil.obj
 0001:000804f0       ?H0x014c011f_JumpIntoPyramid_10@CDevil@@QAEHABVCEntityEvent@@@Z 100814f0 f   Devil.obj
 0001:00080560       ?H0x014c0120_JumpIntoPyramid_11@CDevil@@QAEHABVCEntityEvent@@@Z 10081560 f   Devil.obj
 0001:00080600       ?H0x014c0121_JumpIntoPyramid_12@CDevil@@QAEHABVCEntityEvent@@@Z 10081600 f   Devil.obj
 0001:00080680       ?TeleportIntoPyramid@CDevil@@QAEHABVCEntityEvent@@@Z 10081680 f   Devil.obj
 0001:00080760       ?H0x014c0123_TeleportIntoPyramid_01@CDevil@@QAEHABVCEntityEvent@@@Z 10081760 f   Devil.obj
 0001:000807e0       ?H0x014c0124_TeleportIntoPyramid_02@CDevil@@QAEHABVCEntityEvent@@@Z 100817e0 f   Devil.obj
 0001:00080840       ?H0x014c0125_TeleportIntoPyramid_03@CDevil@@QAEHABVCEntityEvent@@@Z 10081840 f   Devil.obj
 0001:000808e0       ?H0x014c0126_TeleportIntoPyramid_04@CDevil@@QAEHABVCEntityEvent@@@Z 100818e0 f   Devil.obj
 0001:00080960       ?RegenerationImpulse@CDevil@@QAEHABVCEntityEvent@@@Z 10081960 f   Devil.obj
 0001:00080a40       ?H0x014c012a_RegenerationImpulse_03@CDevil@@QAEHABVCEntityEvent@@@Z 10081a40 f   Devil.obj
 0001:00080af0       ?H0x014c0128_RegenerationImpulse_01@CDevil@@QAEHABVCEntityEvent@@@Z 10081af0 f   Devil.obj
 0001:00080b60       ?H0x014c0129_RegenerationImpulse_02@CDevil@@QAEHABVCEntityEvent@@@Z 10081b60 f   Devil.obj
 0001:00080be0       ?H0x014c012b_RegenerationImpulse_04@CDevil@@QAEHABVCEntityEvent@@@Z 10081be0 f   Devil.obj
 0001:00080c40       ?StopAttack@CDevil@@QAEHABVCEntityEvent@@@Z 10081c40 f   Devil.obj
 0001:00080cc0       ?H0x014c012d_StopAttack_01@CDevil@@QAEHABVCEntityEvent@@@Z 10081cc0 f   Devil.obj
 0001:00080d60       ?H0x014c012e_StopAttack_02@CDevil@@QAEHABVCEntityEvent@@@Z 10081d60 f   Devil.obj
 0001:00080dc0       ?H0x014c012f_StopAttack_03@CDevil@@QAEHABVCEntityEvent@@@Z 10081dc0 f   Devil.obj
 0001:00080e20       ?ContinueInMainLoop@CDevil@@QAEHABVCEntityEvent@@@Z 10081e20 f   Devil.obj
 0001:00080ee0       ?MPIntro@CDevil@@QAEHABVCEntityEvent@@@Z 10081ee0 f   Devil.obj
 0001:00080f50       ?Death@CDevil@@QAEHABVCEntityEvent@@@Z 10081f50 f   Devil.obj
 0001:00081000       ?H0x014c0133_Death_01@CDevil@@QAEHABVCEntityEvent@@@Z 10082000 f   Devil.obj
 0001:00081080       ?H0x014c0134_Death_02@CDevil@@QAEHABVCEntityEvent@@@Z 10082080 f   Devil.obj
 0001:00081120       ?H0x014c0135_Death_03@CDevil@@QAEHABVCEntityEvent@@@Z 10082120 f   Devil.obj
 0001:000811a0       ?H0x014c0136_Death_04@CDevil@@QAEHABVCEntityEvent@@@Z 100821a0 f   Devil.obj
 0001:00081270       ?H0x014c0137_Death_05@CDevil@@QAEHABVCEntityEvent@@@Z 10082270 f   Devil.obj
 0001:000812f0       ?H0x014c0138_Death_06@CDevil@@QAEHABVCEntityEvent@@@Z 100822f0 f   Devil.obj
 0001:00081370       ?H0x014c0139_Death_07@CDevil@@QAEHABVCEntityEvent@@@Z 10082370 f   Devil.obj
 0001:000813f0       ?H0x014c013a_Death_08@CDevil@@QAEHABVCEntityEvent@@@Z 100823f0 f   Devil.obj
 0001:00081460       ?Main@CDevil@@QAEHABVCEntityEvent@@@Z 10082460 f   Devil.obj
 0001:000816e0       ?H0x014c013b_Main_01@CDevil@@QAEHABVCEntityEvent@@@Z 100826e0 f   Devil.obj
 0001:00081760       ?H0x014c013c_Main_02@CDevil@@QAEHABVCEntityEvent@@@Z 10082760 f   Devil.obj
 0001:00081800       ?H0x014c013d_Main_03@CDevil@@QAEHABVCEntityEvent@@@Z 10082800 f   Devil.obj
 0001:00081890       ?H0x014c013e_Main_04@CDevil@@QAEHABVCEntityEvent@@@Z 10082890 f   Devil.obj
 0001:000818f0       ?H0x014c0140_Main_06@CDevil@@QAEHABVCEntityEvent@@@Z 100828f0 f   Devil.obj
 0001:00081960       ?H0x014c013f_Main_05@CDevil@@QAEHABVCEntityEvent@@@Z 10082960 f   Devil.obj
 0001:000819e0       ?H0x014c0141_Main_07@CDevil@@QAEHABVCEntityEvent@@@Z 100829e0 f   Devil.obj
 0001:00081e70       ?H0x014c0142_Main_08@CDevil@@QAEHABVCEntityEvent@@@Z 10082e70 f   Devil.obj
 0001:00081e80       ??_GCDevil@@UAEPAXI@Z      10082e80 f i Devil.obj
 0001:00081e80       ??_ECDevil@@UAEPAXI@Z      10082e80 f i Devil.obj
 0001:00081eb0       ??1CDevil@@UAE@XZ          10082eb0 f i Devil.obj
 0001:00082300       ?CDevilMarker_New@@YAPAVCEntity@@XZ 10083300 f   DevilMarker.obj
 0001:000823c0       ?CDevilMarker_OnInitClass@@YAXXZ 100833c0 f   DevilMarker.obj
 0001:000823d0       ?CDevilMarker_OnEndClass@@YAXXZ 100833d0 f   DevilMarker.obj
 0001:000823e0       ?CDevilMarker_OnPrecache@@YAXPAVCDLLEntityClass@@J@Z 100833e0 f   DevilMarker.obj
 0001:000823f0       ?CDevilMarker_OnWorldEnd@@YAXPAVCWorld@@@Z 100833f0 f   DevilMarker.obj
 0001:00082400       ?CDevilMarker_OnWorldInit@@YAXPAVCWorld@@@Z 10083400 f   DevilMarker.obj
 0001:00082410       ?CDevilMarker_OnWorldTick@@YAXPAVCWorld@@@Z 10083410 f   DevilMarker.obj
 0001:00082420       ?CDevilMarker_OnWorldRender@@YAXPAVCWorld@@@Z 10083420 f   DevilMarker.obj
 0001:00082480       ?SetDefaultProperties@CDevilMarker@@UAEXXZ 10083480 f   DevilMarker.obj
 0001:00082530       ?SetDefaultName@CDevilMarker@@QAEXXZ 10083530 f   DevilMarker.obj
 0001:00082570       ?GetDescription@CDevilMarker@@UBEABVCTString@@XZ 10083570 f   DevilMarker.obj
 0001:00082630       ?MovesByTargetedRoute@CDevilMarker@@UBEHAAVCTString@@@Z 10083630 f   DevilMarker.obj
 0001:00082660       ?DropsMarker@CDevilMarker@@UBEHAAVCTFileName@@AAVCTString@@@Z 10083660 f   DevilMarker.obj
 0001:00082700       ?HandleEvent@CDevilMarker@@UAEHABVCEntityEvent@@@Z 10083700 f   DevilMarker.obj
 0001:00082a90       ?Main@CDevilMarker@@QAEHABVCEntityEvent@@@Z 10083a90 f   DevilMarker.obj
 0001:00082af0       ??_ECDevilMarker@@UAEPAXI@Z 10083af0 f i DevilMarker.obj
 0001:00082af0       ??_GCDevilMarker@@UAEPAXI@Z 10083af0 f i DevilMarker.obj
 0001:00082b20       ??1CDevilMarker@@UAE@XZ    10083b20 f i DevilMarker.obj
 0001:00082c20       ??0EDevilProjectile@@QAE@ABV0@@Z 10083c20 f i DevilProjectile.obj
 0001:00082c60       ??4EDevilProjectile@@QAEAAV0@ABV0@@Z 10083c60 f i DevilProjectile.obj
 0001:00082cd0       ??1EDevilProjectile@@UAE@XZ 10083cd0 f i DevilProjectile.obj
 0001:00082d70       ??_GEDevilProjectile@@UAEPAXI@Z 10083d70 f i DevilProjectile.obj
 0001:00082da0       ??_EEDevilProjectile@@UAEPAXI@Z 10083da0 f i DevilProjectile.obj
 0001:00082e00       ?ClearToDefault@@YAXAAVEDevilProjectile@@@Z 10083e00 f i DevilProjectile.obj
 0001:00083120       ?CDevilProjectile_New@@YAPAVCEntity@@XZ 10084120 f   DevilProjectile.obj
 0001:000831d0       ?CDevilProjectile_OnInitClass@@YAXXZ 100841d0 f   DevilProjectile.obj
 0001:000831e0       ?CDevilProjectile_OnEndClass@@YAXXZ 100841e0 f   DevilProjectile.obj
 0001:000831f0       ?CDevilProjectile_OnPrecache@@YAXPAVCDLLEntityClass@@J@Z 100841f0 f   DevilProjectile.obj
 0001:00083200       ?CDevilProjectile_OnWorldEnd@@YAXPAVCWorld@@@Z 10084200 f   DevilProjectile.obj
 0001:00083210       ?CDevilProjectile_OnWorldInit@@YAXPAVCWorld@@@Z 10084210 f   DevilProjectile.obj
 0001:00083220       ?CDevilProjectile_OnWorldTick@@YAXPAVCWorld@@@Z 10084220 f   DevilProjectile.obj
 0001:00083230       ?CDevilProjectile_OnWorldRender@@YAXPAVCWorld@@@Z 10084230 f   DevilProjectile.obj
 0001:00083300       ?MakeCopy@EDevilProjectile@@UAEPAVCEntityEvent@@XZ 10084300 f   DevilProjectile.obj
 0001:00083350       ??0EDevilProjectile@@QAE@XZ 10084350 f   DevilProjectile.obj
 0001:000833e0       ?SetDefaultProperties@CDevilProjectile@@UAEXXZ 100843e0 f   DevilProjectile.obj
 0001:00083490       ?Read_t@CDevilProjectile@@UAEXPAVCTStream@@@Z 10084490 f   DevilProjectile.obj
 0001:000834b0       ?GetLightSource@CDevilProjectile@@UAEPAVCLightSource@@XZ 100844b0 f   DevilProjectile.obj
 0001:000834d0       ?SetupLightSource@CDevilProjectile@@QAEXXZ 100844d0 f   DevilProjectile.obj
 0001:00083560       ?CalcHeadingRotation@CDevilProjectile@@QAEXMAAM@Z 10084560 f   DevilProjectile.obj
 0001:000835e0       ?CalcAngleFromPosition@CDevilProjectile@@QAEXXZ 100845e0 f   DevilProjectile.obj
 0001:000836f0       ?RotateToAngle@CDevilProjectile@@QAEXXZ 100846f0 f   DevilProjectile.obj
 0001:00083740       ?FlyInDirection@CDevilProjectile@@QAEXXZ 10084740 f   DevilProjectile.obj
 0001:000838d0       ?FlyToPosition@CDevilProjectile@@QAEXXZ 100848d0 f   DevilProjectile.obj
 0001:000838f0       ?RotateToPosition@CDevilProjectile@@QAEXXZ 100848f0 f   DevilProjectile.obj
 0001:00083910       ?StopMoving@CDevilProjectile@@QAEXXZ 10084910 f   DevilProjectile.obj
 0001:00083930       ?StopRotating@CDevilProjectile@@QAEXXZ 10084930 f   DevilProjectile.obj
 0001:00083960       ?StopTranslating@CDevilProjectile@@QAEXXZ 10084960 f   DevilProjectile.obj
 0001:00083990       ?ProjectileTouch@CDevilProjectile@@QAEXVCEntityPointer@@@Z 10084990 f   DevilProjectile.obj
 0001:00083a20       ?Fly@CDevilProjectile@@QAEHABVCEntityEvent@@@Z 10084a20 f   DevilProjectile.obj
 0001:00083a90       ?H0x01ff0004_Fly_03@CDevilProjectile@@QAEHABVCEntityEvent@@@Z 10084a90 f   DevilProjectile.obj
 0001:00083b40       ?H0x01ff0002_Fly_01@CDevilProjectile@@QAEHABVCEntityEvent@@@Z 10084b40 f   DevilProjectile.obj
 0001:00083cb0       ?H0x01ff0003_Fly_02@CDevilProjectile@@QAEHABVCEntityEvent@@@Z 10084cb0 f   DevilProjectile.obj
 0001:00083d10       ?H0x01ff0005_Fly_04@CDevilProjectile@@QAEHABVCEntityEvent@@@Z 10084d10 f   DevilProjectile.obj
 0001:00083d70       ?Main@CDevilProjectile@@QAEHABVCEntityEvent@@@Z 10084d70 f   DevilProjectile.obj
 0001:00083ea0       ?H0x01ff0006_Main_01@CDevilProjectile@@QAEHABVCEntityEvent@@@Z 10084ea0 f   DevilProjectile.obj
 0001:00083f40       ?H0x01ff0007_Main_02@CDevilProjectile@@QAEHABVCEntityEvent@@@Z 10084f40 f   DevilProjectile.obj
 0001:00083fa0       ??_ECDevilProjectile@@UAEPAXI@Z 10084fa0 f i DevilProjectile.obj
 0001:00083fa0       ??_GCDevilProjectile@@UAEPAXI@Z 10084fa0 f i DevilProjectile.obj
 0001:00083fd0       ??1CDevilProjectile@@UAE@XZ 10084fd0 f i DevilProjectile.obj
 0001:00084070       ?ClearToDefault@@YAXAAW4KeyItemType@@@Z 10085070 f i DoorController.obj
 0001:00084080       ??0EKey@@QAE@ABV0@@Z       10085080 f i DoorController.obj
 0001:000840b0       ??4EKey@@QAEAAV0@ABV0@@Z   100850b0 f i DoorController.obj
 0001:000840d0       ??1EKey@@UAE@XZ            100850d0 f i DoorController.obj
 0001:000840e0       ??_GEKey@@UAEPAXI@Z        100850e0 f i DoorController.obj
 0001:00084110       ??_EEKey@@UAEPAXI@Z        10085110 f i DoorController.obj
 0001:00084170       ?ClearToDefault@@YAXAAVEKey@@@Z 10085170 f i DoorController.obj
 0001:000841a0       ?ClearToDefault@@YAXAAW4DoorType@@@Z 100851a0 f i DoorController.obj
 0001:00084570       ?CDoorController_New@@YAPAVCEntity@@XZ 10085570 f   DoorController.obj
 0001:00084630       ?CDoorController_OnInitClass@@YAXXZ 10085630 f   DoorController.obj
 0001:00084640       ?CDoorController_OnEndClass@@YAXXZ 10085640 f   DoorController.obj
 0001:00084650       ?CDoorController_OnPrecache@@YAXPAVCDLLEntityClass@@J@Z 10085650 f   DoorController.obj
 0001:00084660       ?CDoorController_OnWorldEnd@@YAXPAVCWorld@@@Z 10085660 f   DoorController.obj
 0001:00084670       ?CDoorController_OnWorldInit@@YAXPAVCWorld@@@Z 10085670 f   DoorController.obj
 0001:00084680       ?CDoorController_OnWorldTick@@YAXPAVCWorld@@@Z 10085680 f   DoorController.obj
 0001:00084690       ?CDoorController_OnWorldRender@@YAXPAVCWorld@@@Z 10085690 f   DoorController.obj
 0001:00084760       ?SetDefaultProperties@CDoorController@@UAEXXZ 10085760 f   DoorController.obj
 0001:000848b0       ?GetTarget@CDoorController@@UBEPAVCEntity@@XZ 100858b0 f   DoorController.obj
 0001:000848c0       ?GetDescription@CDoorController@@UBEABVCTString@@XZ 100858c0 f   DoorController.obj
 0001:00084950       ?CanReactOnEntity@CDoorController@@QAEHPAVCEntity@@@Z 10085950 f   DoorController.obj
 0001:000849a0       ?CanTriggerOnEntity@CDoorController@@QAEHPAVCEntity@@@Z 100859a0 f   DoorController.obj
 0001:000849d0       ?TriggerDoor@CDoorController@@QAEXXZ 100859d0 f   DoorController.obj
 0001:00084a10       ?MirrorAndStretch@CDoorController@@UAEXMH@Z 10085a10 f   DoorController.obj
 0001:00084a40       ?GetUsedMemory@CDoorController@@UAEJXZ 10085a40 f   DoorController.obj
 0001:00084aa0       ?DoorAuto@CDoorController@@QAEHABVCEntityEvent@@@Z 10085aa0 f   DoorController.obj
 0001:00084b20       ?DoorAutoActive@CDoorController@@QAEHABVCEntityEvent@@@Z 10085b20 f   DoorController.obj
 0001:00084b80       ?H0x00dd0006_DoorAutoActive_05@CDoorController@@QAEHABVCEntityEvent@@@Z 10085b80 f   DoorController.obj
 0001:00084bf0       ?H0x00dd0002_DoorAutoActive_01@CDoorController@@QAEHABVCEntityEvent@@@Z 10085bf0 f   DoorController.obj
 0001:00084cb0       ?H0x00dd0003_DoorAutoActive_02@CDoorController@@QAEHABVCEntityEvent@@@Z 10085cb0 f   DoorController.obj
 0001:00084d20       ?H0x00dd0004_DoorAutoActive_03@CDoorController@@QAEHABVCEntityEvent@@@Z 10085d20 f   DoorController.obj
 0001:00084da0       ?H0x00dd0005_DoorAutoActive_04@CDoorController@@QAEHABVCEntityEvent@@@Z 10085da0 f   DoorController.obj
 0001:00084e00       ?H0x00dd0007_DoorAutoActive_06@CDoorController@@QAEHABVCEntityEvent@@@Z 10085e00 f   DoorController.obj
 0001:00084e10       ?DoorAutoInactive@CDoorController@@QAEHABVCEntityEvent@@@Z 10085e10 f   DoorController.obj
 0001:00084e70       ?H0x00dd000d_DoorAutoInactive_05@CDoorController@@QAEHABVCEntityEvent@@@Z 10085e70 f   DoorController.obj
 0001:00084ee0       ?H0x00dd0009_DoorAutoInactive_01@CDoorController@@QAEHABVCEntityEvent@@@Z 10085ee0 f   DoorController.obj
 0001:00084f50       ?H0x00dd000a_DoorAutoInactive_02@CDoorController@@QAEHABVCEntityEvent@@@Z 10085f50 f   DoorController.obj
 0001:00084fc0       ?H0x00dd000b_DoorAutoInactive_03@CDoorController@@QAEHABVCEntityEvent@@@Z 10085fc0 f   DoorController.obj
 0001:00085040       ?H0x00dd000c_DoorAutoInactive_04@CDoorController@@QAEHABVCEntityEvent@@@Z 10086040 f   DoorController.obj
 0001:000850a0       ?H0x00dd000e_DoorAutoInactive_06@CDoorController@@QAEHABVCEntityEvent@@@Z 100860a0 f   DoorController.obj
 0001:000850b0       ?DoorDummy@CDoorController@@QAEHABVCEntityEvent@@@Z 100860b0 f   DoorController.obj
 0001:00085120       ?H0x00dd0010_DoorDummy_01@CDoorController@@QAEHABVCEntityEvent@@@Z 10086120 f   DoorController.obj
 0001:00085130       ?H0x00dd0011_DoorDummy_02@CDoorController@@QAEHABVCEntityEvent@@@Z 10086130 f   DoorController.obj
 0001:00085140       ?DoorTriggered@CDoorController@@QAEHABVCEntityEvent@@@Z 10086140 f   DoorController.obj
 0001:000851a0       ?H0x00dd0017_DoorTriggered_05@CDoorController@@QAEHABVCEntityEvent@@@Z 100861a0 f   DoorController.obj
 0001:00085210       ?H0x00dd0013_DoorTriggered_01@CDoorController@@QAEHABVCEntityEvent@@@Z 10086210 f   DoorController.obj
 0001:00085350       ?H0x00dd0014_DoorTriggered_02@CDoorController@@QAEHABVCEntityEvent@@@Z 10086350 f   DoorController.obj
 0001:000853c0       ?H0x00dd0015_DoorTriggered_03@CDoorController@@QAEHABVCEntityEvent@@@Z 100863c0 f   DoorController.obj
 0001:00085440       ?H0x00dd0016_DoorTriggered_04@CDoorController@@QAEHABVCEntityEvent@@@Z 10086440 f   DoorController.obj
 0001:000854a0       ?H0x00dd0018_DoorTriggered_06@CDoorController@@QAEHABVCEntityEvent@@@Z 100864a0 f   DoorController.obj
 0001:000854b0       ?DoorLocked@CDoorController@@QAEHABVCEntityEvent@@@Z 100864b0 f   DoorController.obj
 0001:00085510       ?H0x00dd001e_DoorLocked_05@CDoorController@@QAEHABVCEntityEvent@@@Z 10086510 f   DoorController.obj
 0001:00085580       ?H0x00dd001a_DoorLocked_01@CDoorController@@QAEHABVCEntityEvent@@@Z 10086580 f   DoorController.obj
 0001:00085640       ?H0x00dd001b_DoorLocked_02@CDoorController@@QAEHABVCEntityEvent@@@Z 10086640 f   DoorController.obj
 0001:000856b0       ?H0x00dd001c_DoorLocked_03@CDoorController@@QAEHABVCEntityEvent@@@Z 100866b0 f   DoorController.obj
 0001:00085730       ?H0x00dd001d_DoorLocked_04@CDoorController@@QAEHABVCEntityEvent@@@Z 10086730 f   DoorController.obj
 0001:00085790       ?H0x00dd001f_DoorLocked_06@CDoorController@@QAEHABVCEntityEvent@@@Z 10086790 f   DoorController.obj
 0001:000857a0       ?DoorTriggeredAuto@CDoorController@@QAEHABVCEntityEvent@@@Z 100867a0 f   DoorController.obj
 0001:00085800       ?H0x00dd0025_DoorTriggeredAuto_05@CDoorController@@QAEHABVCEntityEvent@@@Z 10086800 f   DoorController.obj
 0001:00085870       ?H0x00dd0021_DoorTriggeredAuto_01@CDoorController@@QAEHABVCEntityEvent@@@Z 10086870 f   DoorController.obj
 0001:00085970       ?H0x00dd0022_DoorTriggeredAuto_02@CDoorController@@QAEHABVCEntityEvent@@@Z 10086970 f   DoorController.obj
 0001:000859e0       ?H0x00dd0023_DoorTriggeredAuto_03@CDoorController@@QAEHABVCEntityEvent@@@Z 100869e0 f   DoorController.obj
 0001:00085a60       ?H0x00dd0024_DoorTriggeredAuto_04@CDoorController@@QAEHABVCEntityEvent@@@Z 10086a60 f   DoorController.obj
 0001:00085ac0       ?H0x00dd0026_DoorTriggeredAuto_06@CDoorController@@QAEHABVCEntityEvent@@@Z 10086ac0 f   DoorController.obj
 0001:00085ad0       ?Main@CDoorController@@QAEHABVCEntityEvent@@@Z 10086ad0 f   DoorController.obj
 0001:00085ba0       ?H0x00dd0027_Main_01@CDoorController@@QAEHABVCEntityEvent@@@Z 10086ba0 f   DoorController.obj
 0001:00085c20       ?H0x00dd0028_Main_02@CDoorController@@QAEHABVCEntityEvent@@@Z 10086c20 f   DoorController.obj
 0001:00085cf0       ?GetName@CDoorController@@UBEABVCTString@@XZ 10086cf0 f i DoorController.obj
 0001:00085d00       ?IsTargetable@CDoorController@@UBEHXZ 10086d00 f i DoorController.obj
 0001:00085d10       ??_ECDoorController@@UAEPAXI@Z 10086d10 f i DoorController.obj
 0001:00085d10       ??_GCDoorController@@UAEPAXI@Z 10086d10 f i DoorController.obj
 0001:00085d40       ??1CDoorController@@UAE@XZ 10086d40 f i DoorController.obj
 0001:00085e80       ?ClearToDefault@@YAXAAW4EffectMarkerType@@@Z 10086e80 f i EffectMarker.obj
 0001:000862a0       ?CEffectMarker_New@@YAPAVCEntity@@XZ 100872a0 f   EffectMarker.obj
 0001:00086350       ?CEffectMarker_OnInitClass@@YAXXZ 10087350 f   EffectMarker.obj
 0001:00086360       ?CEffectMarker_OnEndClass@@YAXXZ 10087360 f   EffectMarker.obj
 0001:00086370       ?CEffectMarker_OnPrecache@@YAXPAVCDLLEntityClass@@J@Z 10087370 f   EffectMarker.obj
 0001:00086380       ?CEffectMarker_OnWorldEnd@@YAXPAVCWorld@@@Z 10087380 f   EffectMarker.obj
 0001:00086390       ?CEffectMarker_OnWorldInit@@YAXPAVCWorld@@@Z 10087390 f   EffectMarker.obj
 0001:000863a0       ?CEffectMarker_OnWorldTick@@YAXPAVCWorld@@@Z 100873a0 f   EffectMarker.obj
 0001:000863b0       ?CEffectMarker_OnWorldRender@@YAXPAVCWorld@@@Z 100873b0 f   EffectMarker.obj
 0001:00086410       ?SetDefaultProperties@CEffectMarker@@UAEXXZ 10087410 f   EffectMarker.obj
 0001:00086500       ?Precache@CEffectMarker@@UAEXXZ 10087500 f   EffectMarker.obj
 0001:00086520       ?IsTargetValid@CEffectMarker@@UAEHJPAVCEntity@@@Z 10087520 f   EffectMarker.obj
 0001:00086560       ?HandleEvent@CEffectMarker@@UAEHABVCEntityEvent@@@Z 10087560 f   EffectMarker.obj
 0001:00087070       ?Main@CEffectMarker@@QAEHABVCEntityEvent@@@Z 10088070 f   EffectMarker.obj
 0001:000870f0       ??_GCEffectMarker@@UAEPAXI@Z 100880f0 f i EffectMarker.obj
 0001:000870f0       ??_ECEffectMarker@@UAEPAXI@Z 100880f0 f i EffectMarker.obj
 0001:00087120       ??1CEffectMarker@@UAE@XZ   10088120 f i EffectMarker.obj
 0001:00087590       ?CEffector_New@@YAPAVCEntity@@XZ 10088590 f   Effector.obj
 0001:00087640       ?CEffector_OnInitClass@@YAXXZ 10088640 f   Effector.obj
 0001:00087650       ?CEffector_OnEndClass@@YAXXZ 10088650 f   Effector.obj
 0001:00087660       ?CEffector_OnWorldEnd@@YAXPAVCWorld@@@Z 10088660 f   Effector.obj
 0001:00087670       ?CEffector_OnWorldInit@@YAXPAVCWorld@@@Z 10088670 f   Effector.obj
 0001:00087680       ?CEffector_OnWorldTick@@YAXPAVCWorld@@@Z 10088680 f   Effector.obj
 0001:00087690       ?CEffector_OnWorldRender@@YAXPAVCWorld@@@Z 10088690 f   Effector.obj
 0001:00087760       ?MakeCopy@ESpawnEffector@@UAEPAVCEntityEvent@@XZ 10088760 f   Effector.obj
 0001:000877f0       ??0ESpawnEffector@@QAE@XZ  100887f0 f   Effector.obj
 0001:000878c0       ?CEffector_OnPrecache@@YAXPAVCDLLEntityClass@@J@Z 100888c0 f   Effector.obj
 0001:00087930       ?SetDefaultProperties@CEffector@@UAEXXZ 10088930 f   Effector.obj
 0001:00087a20       ?CalculateLifeRatio@CEffector@@QAEMMM@Z 10088a20 f   Effector.obj
 0001:00087ad0       ?AdjustMipFactor@CEffector@@UAEXAAM@Z 10088ad0 f   Effector.obj
 0001:00087cc0       ?AdjustShadingParameters@CEffector@@UAEHAAV?$Vector@M$02@@AAK1@Z 10088cc0 f   Effector.obj
 0001:00087d30       ?RenderMovingLightnings@CEffector@@QAEXXZ 10088d30 f   Effector.obj
 0001:00088410       ?RenderParticles@CEffector@@UAEXXZ 10089410 f   Effector.obj
 0001:00088560       ?Read_t@CEffector@@UAEXPAVCTStream@@@Z 10089560 f   Effector.obj
 0001:00088590       ?GetLightSource@CEffector@@UAEPAVCLightSource@@XZ 10089590 f   Effector.obj
 0001:000885b0       ?SetupLightSource@CEffector@@QAEXXZ 100895b0 f   Effector.obj
 0001:00088730       ?Main@CEffector@@QAEHABVCEntityEvent@@@Z 10089730 f   Effector.obj
 0001:000888c0       ?H0x02600001_Main_01@CEffector@@QAEHABVCEntityEvent@@@Z 100898c0 f   Effector.obj
 0001:00088940       ?H0x02600002_Main_02@CEffector@@QAEHABVCEntityEvent@@@Z 10089940 f   Effector.obj
 0001:00088ad0       ?H0x02600005_Main_05@CEffector@@QAEHABVCEntityEvent@@@Z 10089ad0 f   Effector.obj
 0001:00088b90       ?H0x02600003_Main_03@CEffector@@QAEHABVCEntityEvent@@@Z 10089b90 f   Effector.obj
 0001:00088c60       ?H0x02600004_Main_04@CEffector@@QAEHABVCEntityEvent@@@Z 10089c60 f   Effector.obj
 0001:00088ce0       ?H0x02600006_Main_06@CEffector@@QAEHABVCEntityEvent@@@Z 10089ce0 f   Effector.obj
 0001:00088d40       ??_GCEffector@@UAEPAXI@Z   10089d40 f i Effector.obj
 0001:00088d40       ??_ECEffector@@UAEPAXI@Z   10089d40 f i Effector.obj
 0001:00088d70       ??1CEffector@@UAE@XZ       10089d70 f i Effector.obj
 0001:00089580       ?CElemental_New@@YAPAVCEntity@@XZ 1008a580 f   Elemental.obj
 0001:00089640       ?CElemental_OnInitClass@@YAXXZ 1008a640 f   Elemental.obj
 0001:00089650       ?CElemental_OnEndClass@@YAXXZ 1008a650 f   Elemental.obj
 0001:00089660       ?CElemental_OnPrecache@@YAXPAVCDLLEntityClass@@J@Z 1008a660 f   Elemental.obj
 0001:00089670       ?CElemental_OnWorldEnd@@YAXPAVCWorld@@@Z 1008a670 f   Elemental.obj
 0001:00089680       ?CElemental_OnWorldInit@@YAXPAVCWorld@@@Z 1008a680 f   Elemental.obj
 0001:00089690       ?CElemental_OnWorldTick@@YAXPAVCWorld@@@Z 1008a690 f   Elemental.obj
 0001:000896a0       ?CElemental_OnWorldRender@@YAXPAVCWorld@@@Z 1008a6a0 f   Elemental.obj
 0001:00089700       ?SetDefaultProperties@CElemental@@UAEXXZ 1008a700 f   Elemental.obj
 0001:00089880       ?GetPlayerKillDescription@CElemental@@UAE?AVCTString@@ABV2@ABVEDeath@@@Z 1008a880 f   Elemental.obj
 0001:00089920       ?GetComputerMessageName@CElemental@@UBEABVCTFileName@@XZ 1008a920 f   Elemental.obj
 0001:00089970       ?RenderParticles@CElemental@@UAEXXZ 1008a970 f   Elemental.obj
 0001:00089a00       ?Precache@CElemental@@UAEXXZ 1008aa00 f   Elemental.obj
 0001:00089af0       ?GetEntityInfo@CElemental@@UAEPAXXZ 1008aaf0 f   Elemental.obj
 0001:00089bb0       ?FillEntityStatistics@CElemental@@UAEHPAUEntityStats@@@Z 1008abb0 f   Elemental.obj
 0001:00089da0       ?ReceiveDamage@CElemental@@UAEXPAVCEntity@@W4DamageType@@MABV?$Vector@M$02@@2@Z 1008ada0 f   Elemental.obj
 0001:00089f00       ?LeaveStain@CElemental@@UAEXH@Z 1008af00 f   Elemental.obj
 0001:00089f10       ?AnimForDamage@CElemental@@UAEJM@Z 1008af10 f   Elemental.obj
 0001:00089f70       ?StandingAnimFight@CElemental@@UAEXXZ 1008af70 f   Elemental.obj
 0001:00089f80       ?StandingAnim@CElemental@@UAEXXZ 1008af80 f   Elemental.obj
 0001:00089fc0       ?WalkingAnim@CElemental@@UAEXXZ 1008afc0 f   Elemental.obj
 0001:0008a000       ?RunningAnim@CElemental@@UAEXXZ 1008b000 f   Elemental.obj
 0001:0008a020       ?RotatingAnim@CElemental@@UAEXXZ 1008b020 f   Elemental.obj
 0001:0008a040       ?AnimForDeath@CElemental@@UAEJXZ 1008b040 f   Elemental.obj
 0001:0008a070       ?IdleSound@CElemental@@UAEXXZ 1008b070 f   Elemental.obj
 0001:0008a090       ?SightSound@CElemental@@UAEXXZ 1008b090 f   Elemental.obj
 0001:0008a0a0       ?WoundSound@CElemental@@UAEXXZ 1008b0a0 f   Elemental.obj
 0001:0008a0c0       ?DeathSound@CElemental@@UAEXXZ 1008b0c0 f   Elemental.obj
 0001:0008a0e0       ?CountAsKill@CElemental@@UAEHXZ 1008b0e0 f   Elemental.obj
 0001:0008a0f0       ?SpawnNewElemental@CElemental@@QAEXXZ 1008b0f0 f   Elemental.obj
 0001:0008a560       ?ThrowRocks@CElemental@@QAEXW4ProjectileType@@@Z 1008b560 f   Elemental.obj
 0001:0008a8b0       ?BossFirePredictedLavaRock@CElemental@@QAEXV?$Vector@M$02@@@Z 1008b8b0 f   Elemental.obj
 0001:0008ab70       ?ShakeItBaby@CElemental@@QAEXMM@Z 1008bb70 f   Elemental.obj
 0001:0008ac10       ?SpawnShockwave@CElemental@@QAEXM@Z 1008bc10 f   Elemental.obj
 0001:0008ace0       ?HitGround@CElemental@@QAEXXZ 1008bce0 f   Elemental.obj
 0001:0008ae40       ?AddAttachments@CElemental@@QAEXXZ 1008be40 f   Elemental.obj
 0001:0008aed0       ?RemoveAttachments@CElemental@@QAEXXZ 1008bed0 f   Elemental.obj
 0001:0008af10       ?BlowUp@CElemental@@UAEXXZ 1008bf10 f   Elemental.obj
 0001:0008b060       ?EnemyPostInit@CElemental@@UAEXXZ 1008c060 f   Elemental.obj
 0001:0008b170       ?FallOnFloor@CElemental@@QAEHABVCEntityEvent@@@Z 1008c170 f   Elemental.obj
 0001:0008b1f0       ?H0x01420001_FallOnFloor_01@CElemental@@QAEHABVCEntityEvent@@@Z 1008c1f0 f   Elemental.obj
 0001:0008b290       ?H0x01420002_FallOnFloor_02@CElemental@@QAEHABVCEntityEvent@@@Z 1008c290 f   Elemental.obj
 0001:0008b2f0       ?LavamanFire@CElemental@@QAEHABVCEntityEvent@@@Z 1008c2f0 f   Elemental.obj
 0001:0008b3e0       ?H0x01420004_LavamanFire_01@CElemental@@QAEHABVCEntityEvent@@@Z 1008c3e0 f   Elemental.obj
 0001:0008b460       ?H0x01420005_LavamanFire_02@CElemental@@QAEHABVCEntityEvent@@@Z 1008c460 f   Elemental.obj
 0001:0008b540       ?H0x01420006_LavamanFire_03@CElemental@@QAEHABVCEntityEvent@@@Z 1008c540 f   Elemental.obj
 0001:0008b5c0       ?H0x01420007_LavamanFire_04@CElemental@@QAEHABVCEntityEvent@@@Z 1008c5c0 f   Elemental.obj
 0001:0008b6a0       ?H0x01420008_LavamanFire_05@CElemental@@QAEHABVCEntityEvent@@@Z 1008c6a0 f   Elemental.obj
 0001:0008b740       ?H0x01420009_LavamanFire_06@CElemental@@QAEHABVCEntityEvent@@@Z 1008c740 f   Elemental.obj
 0001:0008b7d0       ?H0x01420012_LavamanFire_15@CElemental@@QAEHABVCEntityEvent@@@Z 1008c7d0 f   Elemental.obj
 0001:0008b8b0       ?H0x0142000a_LavamanFire_07@CElemental@@QAEHABVCEntityEvent@@@Z 1008c8b0 f   Elemental.obj
 0001:0008b930       ?H0x0142000b_LavamanFire_08@CElemental@@QAEHABVCEntityEvent@@@Z 1008c930 f   Elemental.obj
 0001:0008bbd0       ?H0x01420010_LavamanFire_13@CElemental@@QAEHABVCEntityEvent@@@Z 1008cbd0 f   Elemental.obj
 0001:0008bc70       ?H0x0142000c_LavamanFire_09@CElemental@@QAEHABVCEntityEvent@@@Z 1008cc70 f   Elemental.obj
 0001:0008bcf0       ?H0x0142000d_LavamanFire_10@CElemental@@QAEHABVCEntityEvent@@@Z 1008ccf0 f   Elemental.obj
 0001:0008bde0       ?H0x0142000e_LavamanFire_11@CElemental@@QAEHABVCEntityEvent@@@Z 1008cde0 f   Elemental.obj
 0001:0008be40       ?H0x0142000f_LavamanFire_12@CElemental@@QAEHABVCEntityEvent@@@Z 1008ce40 f   Elemental.obj
 0001:0008bea0       ?H0x01420011_LavamanFire_14@CElemental@@QAEHABVCEntityEvent@@@Z 1008cea0 f   Elemental.obj
 0001:0008bf20       ?H0x01420013_LavamanFire_16@CElemental@@QAEHABVCEntityEvent@@@Z 1008cf20 f   Elemental.obj
 0001:0008bfa0       ?H0x01420014_LavamanFire_17@CElemental@@QAEHABVCEntityEvent@@@Z 1008cfa0 f   Elemental.obj
 0001:0008c020       ?H0x01420015_LavamanFire_18@CElemental@@QAEHABVCEntityEvent@@@Z 1008d020 f   Elemental.obj
 0001:0008c0a0       ?H0x01420016_LavamanFire_19@CElemental@@QAEHABVCEntityEvent@@@Z 1008d0a0 f   Elemental.obj
 0001:0008c140       ?LavamanStones@CElemental@@QAEHABVCEntityEvent@@@Z 1008d140 f   Elemental.obj
 0001:0008c1b0       ?H0x01420018_LavamanStones_01@CElemental@@QAEHABVCEntityEvent@@@Z 1008d1b0 f   Elemental.obj
 0001:0008c230       ?H0x01420019_LavamanStones_02@CElemental@@QAEHABVCEntityEvent@@@Z 1008d230 f   Elemental.obj
 0001:0008c2c0       ?H0x0142001a_LavamanStones_03@CElemental@@QAEHABVCEntityEvent@@@Z 1008d2c0 f   Elemental.obj
 0001:0008c340       ?H0x0142001b_LavamanStones_04@CElemental@@QAEHABVCEntityEvent@@@Z 1008d340 f   Elemental.obj
 0001:0008c3d0       ?H0x0142001c_LavamanStones_05@CElemental@@QAEHABVCEntityEvent@@@Z 1008d3d0 f   Elemental.obj
 0001:0008c450       ?H0x0142001d_LavamanStones_06@CElemental@@QAEHABVCEntityEvent@@@Z 1008d450 f   Elemental.obj
 0001:0008c4b0       ?LavamanHit@CElemental@@QAEHABVCEntityEvent@@@Z 1008d4b0 f   Elemental.obj
 0001:0008c520       ?H0x0142001f_LavamanHit_01@CElemental@@QAEHABVCEntityEvent@@@Z 1008d520 f   Elemental.obj
 0001:0008c5a0       ?H0x01420020_LavamanHit_02@CElemental@@QAEHABVCEntityEvent@@@Z 1008d5a0 f   Elemental.obj
 0001:0008c620       ?H0x01420021_LavamanHit_03@CElemental@@QAEHABVCEntityEvent@@@Z 1008d620 f   Elemental.obj
 0001:0008c6c0       ?H0x01420022_LavamanHit_04@CElemental@@QAEHABVCEntityEvent@@@Z 1008d6c0 f   Elemental.obj
 0001:0008c720       ?BeWounded@CElemental@@QAEHABVCEntityEvent@@@Z 1008d720 f   Elemental.obj
 0001:0008c760       ?BoxToNormal@CElemental@@QAEHABVCEntityEvent@@@Z 1008d760 f   Elemental.obj
 0001:0008c820       ?H0x01420025_BoxToNormal_01@CElemental@@QAEHABVCEntityEvent@@@Z 1008d820 f   Elemental.obj
 0001:0008c8a0       ?H0x01420026_BoxToNormal_02@CElemental@@QAEHABVCEntityEvent@@@Z 1008d8a0 f   Elemental.obj
 0001:0008c900       ?PlaneToNormal@CElemental@@QAEHABVCEntityEvent@@@Z 1008d900 f   Elemental.obj
 0001:0008c9e0       ?H0x01420028_PlaneToNormal_01@CElemental@@QAEHABVCEntityEvent@@@Z 1008d9e0 f   Elemental.obj
 0001:0008ca60       ?H0x01420029_PlaneToNormal_02@CElemental@@QAEHABVCEntityEvent@@@Z 1008da60 f   Elemental.obj
 0001:0008cac0       ?InitializeAttack@CElemental@@QAEHABVCEntityEvent@@@Z 1008dac0 f   Elemental.obj
 0001:0008cb40       ?H0x0142002b_InitializeAttack_01@CElemental@@QAEHABVCEntityEvent@@@Z 1008db40 f   Elemental.obj
 0001:0008cbe0       ?H0x0142002c_InitializeAttack_02@CElemental@@QAEHABVCEntityEvent@@@Z 1008dbe0 f   Elemental.obj
 0001:0008cc40       ?H0x01420031_InitializeAttack_07@CElemental@@QAEHABVCEntityEvent@@@Z 1008dc40 f   Elemental.obj
 0001:0008ccc0       ?H0x0142002d_InitializeAttack_03@CElemental@@QAEHABVCEntityEvent@@@Z 1008dcc0 f   Elemental.obj
 0001:0008cd60       ?H0x0142002e_InitializeAttack_04@CElemental@@QAEHABVCEntityEvent@@@Z 1008dd60 f   Elemental.obj
 0001:0008cdc0       ?H0x0142002f_InitializeAttack_05@CElemental@@QAEHABVCEntityEvent@@@Z 1008ddc0 f   Elemental.obj
 0001:0008ce20       ?H0x01420030_InitializeAttack_06@CElemental@@QAEHABVCEntityEvent@@@Z 1008de20 f   Elemental.obj
 0001:0008ce80       ?Fire@CElemental@@QAEHABVCEntityEvent@@@Z 1008de80 f   Elemental.obj
 0001:0008cf10       ?Hit@CElemental@@QAEHABVCEntityEvent@@@Z 1008df10 f   Elemental.obj
 0001:0008cfa0       ?Death@CElemental@@QAEHABVCEntityEvent@@@Z 1008dfa0 f   Elemental.obj
 0001:0008d080       ?H0x01420035_Death_01@CElemental@@QAEHABVCEntityEvent@@@Z 1008e080 f   Elemental.obj
 0001:0008d100       ?H0x01420036_Death_02@CElemental@@QAEHABVCEntityEvent@@@Z 1008e100 f   Elemental.obj
 0001:0008d160       ?H0x01420037_Death_03@CElemental@@QAEHABVCEntityEvent@@@Z 1008e160 f   Elemental.obj
 0001:0008d1c0       ?H0x01420038_Death_04@CElemental@@QAEHABVCEntityEvent@@@Z 1008e1c0 f   Elemental.obj
 0001:0008d260       ?H0x01420039_Death_05@CElemental@@QAEHABVCEntityEvent@@@Z 1008e260 f   Elemental.obj
 0001:0008d2c0       ?BossAppear@CElemental@@QAEHABVCEntityEvent@@@Z 1008e2c0 f   Elemental.obj
 0001:0008d330       ?H0x0142003b_BossAppear_01@CElemental@@QAEHABVCEntityEvent@@@Z 1008e330 f   Elemental.obj
 0001:0008d3b0       ?H0x0142003c_BossAppear_02@CElemental@@QAEHABVCEntityEvent@@@Z 1008e3b0 f   Elemental.obj
 0001:0008d460       ?H0x0142003d_BossAppear_03@CElemental@@QAEHABVCEntityEvent@@@Z 1008e460 f   Elemental.obj
 0001:0008d4e0       ?H0x0142003e_BossAppear_04@CElemental@@QAEHABVCEntityEvent@@@Z 1008e4e0 f   Elemental.obj
 0001:0008d550       ?H0x0142003f_BossAppear_05@CElemental@@QAEHABVCEntityEvent@@@Z 1008e550 f   Elemental.obj
 0001:0008d5d0       ?H0x01420040_BossAppear_06@CElemental@@QAEHABVCEntityEvent@@@Z 1008e5d0 f   Elemental.obj
 0001:0008d670       ?H0x01420041_BossAppear_07@CElemental@@QAEHABVCEntityEvent@@@Z 1008e670 f   Elemental.obj
 0001:0008d6f0       ?H0x01420042_BossAppear_08@CElemental@@QAEHABVCEntityEvent@@@Z 1008e6f0 f   Elemental.obj
 0001:0008d760       ?H0x01420043_BossAppear_09@CElemental@@QAEHABVCEntityEvent@@@Z 1008e760 f   Elemental.obj
 0001:0008d7e0       ?H0x01420044_BossAppear_10@CElemental@@QAEHABVCEntityEvent@@@Z 1008e7e0 f   Elemental.obj
 0001:0008d880       ?H0x01420045_BossAppear_11@CElemental@@QAEHABVCEntityEvent@@@Z 1008e880 f   Elemental.obj
 0001:0008d900       ?H0x01420046_BossAppear_12@CElemental@@QAEHABVCEntityEvent@@@Z 1008e900 f   Elemental.obj
 0001:0008d960       ?PreMainLoop@CElemental@@QAEHABVCEntityEvent@@@Z 1008e960 f   Elemental.obj
 0001:0008da00       ?H0x01420048_PreMainLoop_01@CElemental@@QAEHABVCEntityEvent@@@Z 1008ea00 f   Elemental.obj
 0001:0008daa0       ?H0x01420049_PreMainLoop_02@CElemental@@QAEHABVCEntityEvent@@@Z 1008eaa0 f   Elemental.obj
 0001:0008db00       ?H0x0142004a_PreMainLoop_03@CElemental@@QAEHABVCEntityEvent@@@Z 1008eb00 f   Elemental.obj
 0001:0008dbb0       ?H0x0142004b_PreMainLoop_04@CElemental@@QAEHABVCEntityEvent@@@Z 1008ebb0 f   Elemental.obj
 0001:0008dc50       ?H0x0142004c_PreMainLoop_05@CElemental@@QAEHABVCEntityEvent@@@Z 1008ec50 f   Elemental.obj
 0001:0008dcb0       ?H0x0142004d_PreMainLoop_06@CElemental@@QAEHABVCEntityEvent@@@Z 1008ecb0 f   Elemental.obj
 0001:0008dd10       ?Main@CElemental@@QAEHABVCEntityEvent@@@Z 1008ed10 f   Elemental.obj
 0001:0008e250       ??_ECElemental@@UAEPAXI@Z  1008f250 f i Elemental.obj
 0001:0008e250       ??_GCElemental@@UAEPAXI@Z  1008f250 f i Elemental.obj
 0001:0008e280       ??1CElemental@@UAE@XZ      1008f280 f i Elemental.obj
 0001:0008e490       ?ClearToDefault@@YAXAAW4TacticType@@@Z 1008f490 f i EnemyBase.obj
 0001:0008f950       ?CEnemyBase_New@@YAPAVCEntity@@XZ 10090950 f   EnemyBase.obj
 0001:0008f9b0       ?CEnemyBase_OnInitClass@@YAXXZ 100909b0 f   EnemyBase.obj
 0001:0008f9c0       ?CEnemyBase_OnEndClass@@YAXXZ 100909c0 f   EnemyBase.obj
 0001:0008f9d0       ?CEnemyBase_OnPrecache@@YAXPAVCDLLEntityClass@@J@Z 100909d0 f   EnemyBase.obj
 0001:0008f9e0       ?CEnemyBase_OnWorldEnd@@YAXPAVCWorld@@@Z 100909e0 f   EnemyBase.obj
 0001:0008f9f0       ?CEnemyBase_OnWorldInit@@YAXPAVCWorld@@@Z 100909f0 f   EnemyBase.obj
 0001:0008fa00       ?CEnemyBase_OnWorldTick@@YAXPAVCWorld@@@Z 10090a00 f   EnemyBase.obj
 0001:0008fa10       ?CEnemyBase_OnWorldRender@@YAXPAVCWorld@@@Z 10090a10 f   EnemyBase.obj
 0001:0008fae0       ?MakeCopy@ERestartAttack@@UAEPAVCEntityEvent@@XZ 10090ae0 f   EnemyBase.obj
 0001:0008fb10       ??0ERestartAttack@@QAE@XZ  10090b10 f   EnemyBase.obj
 0001:0008fb20       ?MakeCopy@EReconsiderBehavior@@UAEPAVCEntityEvent@@XZ 10090b20 f   EnemyBase.obj
 0001:0008fb50       ??0EReconsiderBehavior@@QAE@XZ 10090b50 f   EnemyBase.obj
 0001:0008fb60       ?MakeCopy@EForceWound@@UAEPAVCEntityEvent@@XZ 10090b60 f   EnemyBase.obj
 0001:0008fb90       ??0EForceWound@@QAE@XZ     10090b90 f   EnemyBase.obj
 0001:0008fba0       ?SetDefaultProperties@CEnemyBase@@UAEXXZ 10090ba0 f   EnemyBase.obj
 0001:00090080       ??0CEnemyBase@@QAE@XZ      10091080 f   EnemyBase.obj
 0001:00090150       ?SetPredictionTime@CEnemyBase@@UAEXM@Z 10091150 f   EnemyBase.obj
 0001:00090180       ?GetPredictionTime@CEnemyBase@@UAEMXZ 10091180 f   EnemyBase.obj
 0001:00090190       ?GetPlayerKillDescription@CEnemyBase@@UAE?AVCTString@@ABV2@ABVEDeath@@@Z 10091190 f   EnemyBase.obj
 0001:00090240       ?GetCrushHealth@CEnemyBase@@UAEMXZ 10091240 f   EnemyBase.obj
 0001:00090250       ?CountAsKill@CEnemyBase@@UAEHXZ 10091250 f   EnemyBase.obj
 0001:00090260       ?ForcesCannonballToExplode@CEnemyBase@@UAEHXZ 10091260 f   EnemyBase.obj
 0001:00090270       ?GetPropA@CEnemyBase@@UAEAAMAAM@Z 10091270 f   EnemyBase.obj
 0001:00090280       ?GetThreatDistance@CEnemyBase@@UAEMXZ 10091280 f   EnemyBase.obj
 0001:000902d0       ?MaybeSwitchToAnotherPlayer@CEnemyBase@@QAEXXZ 100912d0 f   EnemyBase.obj
 0001:000903a0       ?GetWatcher@CEnemyBase@@QAEPAVCWatcher@@XZ 100913a0 f   EnemyBase.obj
 0001:000903b0       ?Copy@CEnemyBase@@UAEXAAVCEntity@@K@Z 100913b0 f   EnemyBase.obj
 0001:000903d0       ?Precache@CEnemyBase@@UAEXXZ 100913d0 f   EnemyBase.obj
 0001:000904b0       ?PlayerDestinationPos@CEnemyBase@@UAE?AV?$Vector@M$02@@XZ 100914b0 f   EnemyBase.obj
 0001:000904e0       ?CalcDelta@CEnemyBase@@QAE?AV?$Vector@M$02@@PAVCEntity@@@Z 100914e0 f   EnemyBase.obj
 0001:00090540       ?CalcDist@CEnemyBase@@QAEMPAVCEntity@@@Z 10091540 f   EnemyBase.obj
 0001:00090580       ?IfTargetCrushed@CEnemyBase@@QAEHPAVCEntity@@ABV?$Vector@M$02@@@Z 10091580 f   EnemyBase.obj
 0001:000905f0       ?CalcPlaneDelta@CEnemyBase@@QAE?AV?$Vector@M$02@@PAVCEntity@@@Z 100915f0 f   EnemyBase.obj
 0001:000906c0       ?CalcPlaneDist@CEnemyBase@@QAEMPAVCEntity@@@Z 100916c0 f   EnemyBase.obj
 0001:00090700       ?GetFrustumAngle@CEnemyBase@@QAEMABV?$Vector@M$02@@@Z 10091700 f   EnemyBase.obj
 0001:000907c0       ?GetPlaneFrustumAngle@CEnemyBase@@QAEMABV?$Vector@M$02@@@Z 100917c0 f   EnemyBase.obj
 0001:00090a00       ?IsInFrustum@CEnemyBase@@QAEHPAVCEntity@@M@Z 10091a00 f   EnemyBase.obj
 0001:00090af0       ?IsInPlaneFrustum@CEnemyBase@@QAEHPAVCEntity@@M@Z 10091af0 f   EnemyBase.obj
 0001:00090cf0       ?IsVisible@CEnemyBase@@QAEHPAVCEntity@@@Z 10091cf0 f   EnemyBase.obj
 0001:00090da0       ?IsVisibleCheckAll@CEnemyBase@@QAEHPAVCEntity@@@Z 10091da0 f   EnemyBase.obj
 0001:00090e50       ?CalculateAngularLaunchParams@CEnemyBase@@QAEXV?$Vector@M$02@@M00MAAM1@Z 10091e50 f   EnemyBase.obj
 0001:000911f0       ?CalculatePredictedPosition@CEnemyBase@@QAE?AV?$Vector@M$02@@V2@0M0M@Z 100921f0 f   EnemyBase.obj
 0001:00091410       ?MovesByTargetedRoute@CEnemyBase@@UBEHAAVCTString@@@Z 10092410 f   EnemyBase.obj
 0001:00091440       ?DropsMarker@CEnemyBase@@UBEHAAVCTFileName@@AAVCTString@@@Z 10092440 f   EnemyBase.obj
 0001:000914e0       ?GetDescription@CEnemyBase@@UBEABVCTString@@XZ 100924e0 f   EnemyBase.obj
 0001:00091520       ?GetComputerMessageName@CEnemyBase@@UBEABVCTFileName@@XZ 10092520 f   EnemyBase.obj
 0001:000915d0       ?AddDependentsToPrediction@CEnemyBase@@UAEXXZ 100925d0 f   EnemyBase.obj
 0001:00091600       ?ChecksumForSync@CEnemyBase@@UAEXAAKJ@Z 10092600 f   EnemyBase.obj
 0001:00091620       ?DumpSync_t@CEnemyBase@@UAEXAAVCTStream@@J@Z 10092620 f   EnemyBase.obj
 0001:00091680       ?Read_t@CEnemyBase@@UAEXPAVCTStream@@@Z 10092680 f   EnemyBase.obj
 0001:00091760       ?FillEntityStatistics@CEnemyBase@@UAEHPAUEntityStats@@@Z 10092760 f   EnemyBase.obj
 0001:000917d0       ?ReceiveDamage@CEnemyBase@@UAEXPAVCEntity@@W4DamageType@@MABV?$Vector@M$02@@2@Z 100927d0 f   EnemyBase.obj
 0001:000920f0       ?AdjustShadingParameters@CEnemyBase@@UAEHAAV?$Vector@M$02@@AAK1@Z 100930f0 f   EnemyBase.obj
 0001:000923a0       ?AddToFuss@CEnemyBase@@QAEXXZ 100933a0 f   EnemyBase.obj
 0001:00092510       ?RemoveFromFuss@CEnemyBase@@QAEXXZ 10093510 f   EnemyBase.obj
 0001:00092600       ?ShouldCeaseAttack@CEnemyBase@@QAEHXZ 10093600 f   EnemyBase.obj
 0001:00092650       ?SizeModel@CEnemyBase@@UAEXXZ 10093650 f   EnemyBase.obj
 0001:00092750       ?IsValidForEnemy@CEnemyBase@@QAEHPAVCEntity@@@Z 10093750 f   EnemyBase.obj
 0001:00092790       ?SetTargetNone@CEnemyBase@@QAEXXZ 10093790 f   EnemyBase.obj
 0001:000927d0       ?SetTargetSoft@CEnemyBase@@QAEHPAVCEntity@@@Z 100937d0 f   EnemyBase.obj
 0001:00092850       ?SetTargetHard@CEnemyBase@@QAEHPAVCEntity@@@Z 10093850 f   EnemyBase.obj
 0001:000928d0       ?SetTargetHardForce@CEnemyBase@@QAEHPAVCEntity@@@Z 100938d0 f   EnemyBase.obj
 0001:00092940       ?GetAttackMoveFrequency@CEnemyBase@@UAEMM@Z 10093940 f   EnemyBase.obj
 0001:00092980       ?SetSpeedsToDesiredPosition@CEnemyBase@@UAEXABV?$Vector@M$02@@MH@Z 10093980 f   EnemyBase.obj
 0001:00092af0       ?MovementAnimation@CEnemyBase@@UAEXK@Z 10093af0 f   EnemyBase.obj
 0001:00092bc0       ?SetDesiredMovement@CEnemyBase@@UAEKXZ 10093bc0 f   EnemyBase.obj
 0001:00092e00       ?StopMoving@CEnemyBase@@QAEXXZ 10093e00 f   EnemyBase.obj
 0001:00092e20       ?StopRotating@CEnemyBase@@QAEXXZ 10093e20 f   EnemyBase.obj
 0001:00092e50       ?StopTranslating@CEnemyBase@@QAEXXZ 10093e50 f   EnemyBase.obj
 0001:00092e80       ?CalcDistanceInPlaneToDestination@CEnemyBase@@QAEMXZ 10093e80 f   EnemyBase.obj
 0001:00092f40       ?StartPathFinding@CEnemyBase@@UAEXXZ 10093f40 f   EnemyBase.obj
 0001:00093000       ?FindNextPathMarker@CEnemyBase@@UAEXXZ 10094000 f   EnemyBase.obj
 0001:000930d0       ?CheckTouchForPathFinding@CEnemyBase@@QAEHABVETouch@@@Z 100940d0 f   EnemyBase.obj
 0001:00093230       ?CheckFallForPathFinding@CEnemyBase@@QAEHABVEWouldFall@@@Z 10094230 f   EnemyBase.obj
 0001:00093290       ?InitializeTactics@CEnemyBase@@QAEXXZ 10094290 f   EnemyBase.obj
 0001:000936a0       ?ApplyTactics@CEnemyBase@@UAEXAAV?$Vector@M$02@@@Z 100946a0 f   EnemyBase.obj
 0001:00094110       ?StartTacticsNow@CEnemyBase@@QAEXXZ 10095110 f   EnemyBase.obj
 0001:00094120       ?CanAttackEnemy@CEnemyBase@@QAEHPAVCEntity@@M@Z 10095120 f   EnemyBase.obj
 0001:00094160       ?CanHitEnemy@CEnemyBase@@UAEHPAVCEntity@@M@Z 10095160 f   EnemyBase.obj
 0001:00094190       ?SeeEntity@CEnemyBase@@QAEHPAVCEntity@@M@Z 10095190 f   EnemyBase.obj
 0001:000941c0       ?SeeEntityInPlane@CEnemyBase@@QAEHPAVCEntity@@M@Z 100951c0 f   EnemyBase.obj
 0001:00094200       ?PreparePropelledProjectile@CEnemyBase@@QAEXAAVCPlacement3D@@V?$Vector@M$02@@AAV3@2@Z 10095200 f   EnemyBase.obj
 0001:00094680       ?PrepareFreeFlyingProjectile@CEnemyBase@@QAEXAAVCPlacement3D@@V?$Vector@M$02@@AAV3@2@Z 10095680 f   EnemyBase.obj
 0001:00094b00       ?ShootProjectile@CEnemyBase@@QAEPAVCEntity@@W4ProjectileType@@AAV?$Vector@M$02@@1@Z 10095b00 f   EnemyBase.obj
 0001:00094c40       ?ShootProjectileAt@CEnemyBase@@QAEPAVCEntity@@V?$Vector@M$02@@W4ProjectileType@@AAV3@2@Z 10095c40 f   EnemyBase.obj
 0001:00094d50       ?ShootPredictedProjectile@CEnemyBase@@QAEPAVCEntity@@W4ProjectileType@@V?$Vector@M$02@@AAV4@2@Z 10095d50 f   EnemyBase.obj
 0001:00094f30       ?WouldNotLeaveAttackRadius@CEnemyBase@@QAEHXZ 10095f30 f   EnemyBase.obj
 0001:00095060       ?MayMoveToAttack@CEnemyBase@@UAEHXZ 10096060 f   EnemyBase.obj
 0001:000950a0       ?ShouldBlowUp@CEnemyBase@@UAEHXZ 100960a0 f   EnemyBase.obj
 0001:00095140       ?BlowUpBase@CEnemyBase@@QAEXXZ 10096140 f   EnemyBase.obj
 0001:00095150       ?BlowUp@CEnemyBase@@UAEXXZ 10096150 f   EnemyBase.obj
 0001:000956a0       ?LeaveStain@CEnemyBase@@UAEXH@Z 100966a0 f   EnemyBase.obj
 0001:000959e0       ?AdjustDifficulty@CEnemyBase@@UAEXXZ 100969e0 f   EnemyBase.obj
 0001:00095a70       ?WoundedNotify@CEnemyBase@@QAEXABVEDamage@@@Z 10096a70 f   EnemyBase.obj
 0001:00095b80       ?SeeNotify@CEnemyBase@@QAEXXZ 10096b80 f   EnemyBase.obj
 0001:00095c70       ?StandingAnim@CEnemyBase@@UAEXXZ 10096c70 f   EnemyBase.obj
 0001:00095c80       ?StandingAnimFight@CEnemyBase@@UAEXXZ 10096c80 f   EnemyBase.obj
 0001:00095c90       ?WalkingAnim@CEnemyBase@@UAEXXZ 10096c90 f   EnemyBase.obj
 0001:00095ca0       ?RunningAnim@CEnemyBase@@UAEXXZ 10096ca0 f   EnemyBase.obj
 0001:00095cb0       ?RotatingAnim@CEnemyBase@@UAEXXZ 10096cb0 f   EnemyBase.obj
 0001:00095cc0       ?ChargeAnim@CEnemyBase@@UAEXXZ 10096cc0 f   EnemyBase.obj
 0001:00095cd0       ?AnimForDamage@CEnemyBase@@UAEJM@Z 10096cd0 f   EnemyBase.obj
 0001:00095ce0       ?BlowUpNotify@CEnemyBase@@UAEXXZ 10096ce0 f   EnemyBase.obj
 0001:00095cf0       ?AnimForDeath@CEnemyBase@@UAEJXZ 10096cf0 f   EnemyBase.obj
 0001:00095d00       ?WaitForDust@CEnemyBase@@UAEMAAV?$Vector@M$02@@@Z 10096d00 f   EnemyBase.obj
 0001:00095d10       ?DeathNotify@CEnemyBase@@UAEXXZ 10096d10 f   EnemyBase.obj
 0001:00095d20       ?IdleSound@CEnemyBase@@UAEXXZ 10096d20 f   EnemyBase.obj
 0001:00095d30       ?SightSound@CEnemyBase@@UAEXXZ 10096d30 f   EnemyBase.obj
 0001:00095d40       ?WoundSound@CEnemyBase@@UAEXXZ 10096d40 f   EnemyBase.obj
 0001:00095d50       ?DeathSound@CEnemyBase@@UAEXXZ 10096d50 f   EnemyBase.obj
 0001:00095d60       ?GetLockRotationSpeed@CEnemyBase@@UAEMXZ 10096d60 f   EnemyBase.obj
 0001:00095d70       ?RenderParticles@CEnemyBase@@UAEXXZ 10096d70 f   EnemyBase.obj
 0001:00095db0       ?EnemyPostInit@CEnemyBase@@UAEXXZ 10096db0 f   EnemyBase.obj
 0001:00095dc0       ?HandleEvent@CEnemyBase@@UAEHABVCEntityEvent@@@Z 10096dc0 f   EnemyBase.obj
 0001:00095f30       ?GetAnimLength@CEnemyBase@@QAEMH@Z 10096f30 f   EnemyBase.obj
 0001:00095f60       ?GetCurrentAnimLength@CEnemyBase@@QAEMXZ 10096f60 f   EnemyBase.obj
 0001:00095f80       ?IsAnimFinished@CEnemyBase@@QAEHXZ 10096f80 f   EnemyBase.obj
 0001:00095fa0       ?GetPassedTime@CEnemyBase@@QAEMXZ 10096fa0 f   EnemyBase.obj
 0001:00095fc0       ?GetModelStretch@CEnemyBase@@QAEAAV?$Vector@M$02@@XZ 10096fc0 f   EnemyBase.obj
 0001:00095fe0       ?StretchModel@CEnemyBase@@QAEXV?$Vector@M$02@@@Z 10096fe0 f   EnemyBase.obj
 0001:00096010       ?StretchSingleModel@CEnemyBase@@QAEXV?$Vector@M$02@@@Z 10097010 f   EnemyBase.obj
 0001:00096040       ?GetUsedMemory@CEnemyBase@@UAEJXZ 10097040 f   EnemyBase.obj
 0001:00096080       ?MoveToDestination@CEnemyBase@@QAEHABVCEntityEvent@@@Z 10097080 f   EnemyBase.obj
 0001:00096100       ?H0x01360006_MoveToDestination_03@CEnemyBase@@QAEHABVCEntityEvent@@@Z 10097100 f   EnemyBase.obj
 0001:000961c0       ?H0x01360004_MoveToDestination_01@CEnemyBase@@QAEHABVCEntityEvent@@@Z 100971c0 f   EnemyBase.obj
 0001:00096260       ?H0x01360005_MoveToDestination_02@CEnemyBase@@QAEHABVCEntityEvent@@@Z 10097260 f   EnemyBase.obj
 0001:000962c0       ?H0x01360007_MoveToDestination_04@CEnemyBase@@QAEHABVCEntityEvent@@@Z 100972c0 f   EnemyBase.obj
 0001:00096320       ?MoveToRandomPatrolPosition@CEnemyBase@@QAEHABVCEntityEvent@@@Z 10097320 f   EnemyBase.obj
 0001:00096510       ?H0x01360009_MoveToRandomPatrolPosition_01@CEnemyBase@@QAEHABVCEntityEvent@@@Z 10097510 f   EnemyBase.obj
 0001:000965b0       ?H0x0136000a_MoveToRandomPatrolPosition_02@CEnemyBase@@QAEHABVCEntityEvent@@@Z 100975b0 f   EnemyBase.obj
 0001:00096610       ?DoPatrolling@CEnemyBase@@QAEHABVCEntityEvent@@@Z 10097610 f   EnemyBase.obj
 0001:00096670       ?H0x01360010_DoPatrolling_05@CEnemyBase@@QAEHABVCEntityEvent@@@Z 10097670 f   EnemyBase.obj
 0001:00096700       ?H0x0136000c_DoPatrolling_01@CEnemyBase@@QAEHABVCEntityEvent@@@Z 10097700 f   EnemyBase.obj
 0001:00096780       ?H0x0136000d_DoPatrolling_02@CEnemyBase@@QAEHABVCEntityEvent@@@Z 10097780 f   EnemyBase.obj
 0001:000967e0       ?H0x0136000e_DoPatrolling_03@CEnemyBase@@QAEHABVCEntityEvent@@@Z 100977e0 f   EnemyBase.obj
 0001:00096880       ?H0x0136000f_DoPatrolling_04@CEnemyBase@@QAEHABVCEntityEvent@@@Z 10097880 f   EnemyBase.obj
 0001:000968e0       ?H0x01360011_DoPatrolling_06@CEnemyBase@@QAEHABVCEntityEvent@@@Z 100978e0 f   EnemyBase.obj
 0001:000968f0       ?BeIdle@CEnemyBase@@QAEHABVCEntityEvent@@@Z 100978f0 f   EnemyBase.obj
 0001:000969a0       ?H0x01360015_BeIdle_03@CEnemyBase@@QAEHABVCEntityEvent@@@Z 100979a0 f   EnemyBase.obj
 0001:00096a50       ?H0x01360013_BeIdle_01@CEnemyBase@@QAEHABVCEntityEvent@@@Z 10097a50 f   EnemyBase.obj
 0001:00096ad0       ?H0x01360014_BeIdle_02@CEnemyBase@@QAEHABVCEntityEvent@@@Z 10097ad0 f   EnemyBase.obj
 0001:00096b40       ?H0x01360016_BeIdle_04@CEnemyBase@@QAEHABVCEntityEvent@@@Z 10097b40 f   EnemyBase.obj
 0001:00096b50       ?ReturnToStartPosition@CEnemyBase@@QAEHABVCEntityEvent@@@Z 10097b50 f   EnemyBase.obj
 0001:00096bb0       ?MoveThroughMarkers@CEnemyBase@@QAEHABVCEntityEvent@@@Z 10097bb0 f   EnemyBase.obj
 0001:00096c60       ?H0x01360023_MoveThroughMarkers_11@CEnemyBase@@QAEHABVCEntityEvent@@@Z 10097c60 f   EnemyBase.obj
 0001:00096e20       ?H0x01360019_MoveThroughMarkers_01@CEnemyBase@@QAEHABVCEntityEvent@@@Z 10097e20 f   EnemyBase.obj
 0001:00096ec0       ?H0x0136001a_MoveThroughMarkers_02@CEnemyBase@@QAEHABVCEntityEvent@@@Z 10097ec0 f   EnemyBase.obj
 0001:00096fe0       ?H0x0136001b_MoveThroughMarkers_03@CEnemyBase@@QAEHABVCEntityEvent@@@Z 10097fe0 f   EnemyBase.obj
 0001:00097090       ?H0x0136001c_MoveThroughMarkers_04@CEnemyBase@@QAEHABVCEntityEvent@@@Z 10098090 f   EnemyBase.obj
 0001:000970f0       ?H0x0136001d_MoveThroughMarkers_05@CEnemyBase@@QAEHABVCEntityEvent@@@Z 100980f0 f   EnemyBase.obj
 0001:000971a0       ?H0x0136001e_MoveThroughMarkers_06@CEnemyBase@@QAEHABVCEntityEvent@@@Z 100981a0 f   EnemyBase.obj
 0001:00097220       ?H0x0136001f_MoveThroughMarkers_07@CEnemyBase@@QAEHABVCEntityEvent@@@Z 10098220 f   EnemyBase.obj
 0001:00097280       ?H0x01360020_MoveThroughMarkers_08@CEnemyBase@@QAEHABVCEntityEvent@@@Z 10098280 f   EnemyBase.obj
 0001:000972f0       ?H0x01360021_MoveThroughMarkers_09@CEnemyBase@@QAEHABVCEntityEvent@@@Z 100982f0 f   EnemyBase.obj
 0001:00097370       ?H0x01360022_MoveThroughMarkers_10@CEnemyBase@@QAEHABVCEntityEvent@@@Z 10098370 f   EnemyBase.obj
 0001:00097410       ?H0x01360024_MoveThroughMarkers_12@CEnemyBase@@QAEHABVCEntityEvent@@@Z 10098410 f   EnemyBase.obj
 0001:00097480       ?NewEnemySpotted@CEnemyBase@@QAEHABVCEntityEvent@@@Z 10098480 f   EnemyBase.obj
 0001:00097590       ?H0x01360026_NewEnemySpotted_01@CEnemyBase@@QAEHABVCEntityEvent@@@Z 10098590 f   EnemyBase.obj
 0001:00097640       ?H0x01360027_NewEnemySpotted_02@CEnemyBase@@QAEHABVCEntityEvent@@@Z 10098640 f   EnemyBase.obj
 0001:000976a0       ?H0x01360028_NewEnemySpotted_03@CEnemyBase@@QAEHABVCEntityEvent@@@Z 100986a0 f   EnemyBase.obj
 0001:00097700       ?StopAttack@CEnemyBase@@QAEHABVCEntityEvent@@@Z 10098700 f   EnemyBase.obj
 0001:000977c0       ?InitializeAttack@CEnemyBase@@QAEHABVCEntityEvent@@@Z 100987c0 f   EnemyBase.obj
 0001:000978e0       ?AttackEnemy@CEnemyBase@@QAEHABVCEntityEvent@@@Z 100988e0 f   EnemyBase.obj
 0001:00097940       ?H0x0136002c_AttackEnemy_01@CEnemyBase@@QAEHABVCEntityEvent@@@Z 10098940 f   EnemyBase.obj
 0001:000979e0       ?H0x0136002d_AttackEnemy_02@CEnemyBase@@QAEHABVCEntityEvent@@@Z 100989e0 f   EnemyBase.obj
 0001:00097a40       ?H0x01360030_AttackEnemy_05@CEnemyBase@@QAEHABVCEntityEvent@@@Z 10098a40 f   EnemyBase.obj
 0001:00097ac0       ?H0x0136002e_AttackEnemy_03@CEnemyBase@@QAEHABVCEntityEvent@@@Z 10098ac0 f   EnemyBase.obj
 0001:00097b60       ?H0x0136002f_AttackEnemy_04@CEnemyBase@@QAEHABVCEntityEvent@@@Z 10098b60 f   EnemyBase.obj
 0001:00097bc0       ?H0x01360031_AttackEnemy_06@CEnemyBase@@QAEHABVCEntityEvent@@@Z 10098bc0 f   EnemyBase.obj
 0001:00097c20       ?H0x01360032_AttackEnemy_07@CEnemyBase@@QAEHABVCEntityEvent@@@Z 10098c20 f   EnemyBase.obj
 0001:00097cc0       ?H0x01360033_AttackEnemy_08@CEnemyBase@@QAEHABVCEntityEvent@@@Z 10098cc0 f   EnemyBase.obj
 0001:00097d20       ?PerformAttack@CEnemyBase@@QAEHABVCEntityEvent@@@Z 10098d20 f   EnemyBase.obj
 0001:00097dc0       ?H0x01360037_PerformAttack_03@CEnemyBase@@QAEHABVCEntityEvent@@@Z 10098dc0 f   EnemyBase.obj
 0001:00097ef0       ?H0x01360035_PerformAttack_01@CEnemyBase@@QAEHABVCEntityEvent@@@Z 10098ef0 f   EnemyBase.obj
 0001:000984c0       ?H0x01360036_PerformAttack_02@CEnemyBase@@QAEHABVCEntityEvent@@@Z 100994c0 f   EnemyBase.obj
 0001:00098520       ?H0x01360038_PerformAttack_04@CEnemyBase@@QAEHABVCEntityEvent@@@Z 10099520 f   EnemyBase.obj
 0001:00098530       ?FireOrHit@CEnemyBase@@QAEHABVCEntityEvent@@@Z 10099530 f   EnemyBase.obj
 0001:00098650       ?H0x0136003a_FireOrHit_01@CEnemyBase@@QAEHABVCEntityEvent@@@Z 10099650 f   EnemyBase.obj
 0001:000986f0       ?H0x0136003b_FireOrHit_02@CEnemyBase@@QAEHABVCEntityEvent@@@Z 100996f0 f   EnemyBase.obj
 0001:00098750       ?H0x01360041_FireOrHit_08@CEnemyBase@@QAEHABVCEntityEvent@@@Z 10099750 f   EnemyBase.obj
 0001:000988e0       ?H0x0136003c_FireOrHit_03@CEnemyBase@@QAEHABVCEntityEvent@@@Z 100998e0 f   EnemyBase.obj
 0001:00098980       ?H0x0136003d_FireOrHit_04@CEnemyBase@@QAEHABVCEntityEvent@@@Z 10099980 f   EnemyBase.obj
 0001:000989e0       ?H0x0136003f_FireOrHit_06@CEnemyBase@@QAEHABVCEntityEvent@@@Z 100999e0 f   EnemyBase.obj
 0001:00098a60       ?H0x0136003e_FireOrHit_05@CEnemyBase@@QAEHABVCEntityEvent@@@Z 10099a60 f   EnemyBase.obj
 0001:00098ac0       ?H0x01360040_FireOrHit_07@CEnemyBase@@QAEHABVCEntityEvent@@@Z 10099ac0 f   EnemyBase.obj
 0001:00098b20       ?Hit@CEnemyBase@@QAEHABVCEntityEvent@@@Z 10099b20 f   EnemyBase.obj
 0001:00098b80       ?Fire@CEnemyBase@@QAEHABVCEntityEvent@@@Z 10099b80 f   EnemyBase.obj
 0001:00098be0       ?LockOnEnemy@CEnemyBase@@QAEHABVCEntityEvent@@@Z 10099be0 f   EnemyBase.obj
 0001:00098c60       ?H0x01360047_LockOnEnemy_03@CEnemyBase@@QAEHABVCEntityEvent@@@Z 10099c60 f   EnemyBase.obj
 0001:00098d20       ?H0x01360045_LockOnEnemy_01@CEnemyBase@@QAEHABVCEntityEvent@@@Z 10099d20 f   EnemyBase.obj
 0001:00098e30       ?H0x01360046_LockOnEnemy_02@CEnemyBase@@QAEHABVCEntityEvent@@@Z 10099e30 f   EnemyBase.obj
 0001:00098e90       ?H0x01360048_LockOnEnemy_04@CEnemyBase@@QAEHABVCEntityEvent@@@Z 10099e90 f   EnemyBase.obj
 0001:00098ef0       ?ChargeHitEnemy@CEnemyBase@@QAEHABVCEntityEvent@@@Z 10099ef0 f   EnemyBase.obj
 0001:00098f70       ?H0x0136004a_ChargeHitEnemy_01@CEnemyBase@@QAEHABVCEntityEvent@@@Z 10099f70 f   EnemyBase.obj
 0001:00099160       ?H0x0136004b_ChargeHitEnemy_02@CEnemyBase@@QAEHABVCEntityEvent@@@Z 1009a160 f   EnemyBase.obj
 0001:00099200       ?H0x0136004c_ChargeHitEnemy_03@CEnemyBase@@QAEHABVCEntityEvent@@@Z 1009a200 f   EnemyBase.obj
 0001:000992a0       ?H0x0136004d_ChargeHitEnemy_04@CEnemyBase@@QAEHABVCEntityEvent@@@Z 1009a2a0 f   EnemyBase.obj
 0001:00099300       ?H0x0136004e_ChargeHitEnemy_05@CEnemyBase@@QAEHABVCEntityEvent@@@Z 1009a300 f   EnemyBase.obj
 0001:00099360       ?BeWounded@CEnemyBase@@QAEHABVCEntityEvent@@@Z 1009a360 f   EnemyBase.obj
 0001:000993f0       ?H0x01360050_BeWounded_01@CEnemyBase@@QAEHABVCEntityEvent@@@Z 1009a3f0 f   EnemyBase.obj
 0001:00099470       ?H0x01360051_BeWounded_02@CEnemyBase@@QAEHABVCEntityEvent@@@Z 1009a470 f   EnemyBase.obj
 0001:000994d0       ?Die@CEnemyBase@@QAEHABVCEntityEvent@@@Z 1009a4d0 f   EnemyBase.obj
 0001:00099730       ?H0x01360053_Die_01@CEnemyBase@@QAEHABVCEntityEvent@@@Z 1009a730 f   EnemyBase.obj
 0001:00099850       ?H0x01360054_Die_02@CEnemyBase@@QAEHABVCEntityEvent@@@Z 1009a850 f   EnemyBase.obj
 0001:000998b0       ?Death@CEnemyBase@@QAEHABVCEntityEvent@@@Z 1009a8b0 f   EnemyBase.obj
 0001:00099a10       ?H0x01360056_Death_01@CEnemyBase@@QAEHABVCEntityEvent@@@Z 1009aa10 f   EnemyBase.obj
 0001:00099a90       ?H0x01360057_Death_02@CEnemyBase@@QAEHABVCEntityEvent@@@Z 1009aa90 f   EnemyBase.obj
 0001:00099af0       ?H0x0136005e_Death_09@CEnemyBase@@QAEHABVCEntityEvent@@@Z 1009aaf0 f   EnemyBase.obj
 0001:00099b50       ?H0x0136005a_Death_05@CEnemyBase@@QAEHABVCEntityEvent@@@Z 1009ab50 f   EnemyBase.obj
 0001:00099c00       ?H0x01360058_Death_03@CEnemyBase@@QAEHABVCEntityEvent@@@Z 1009ac00 f   EnemyBase.obj
 0001:00099c80       ?H0x01360059_Death_04@CEnemyBase@@QAEHABVCEntityEvent@@@Z 1009ac80 f   EnemyBase.obj
 0001:00099e20       ?H0x0136005b_Death_06@CEnemyBase@@QAEHABVCEntityEvent@@@Z 1009ae20 f   EnemyBase.obj
 0001:00099e80       ?H0x0136005c_Death_07@CEnemyBase@@QAEHABVCEntityEvent@@@Z 1009ae80 f   EnemyBase.obj
 0001:00099ee0       ?H0x0136005d_Death_08@CEnemyBase@@QAEHABVCEntityEvent@@@Z 1009aee0 f   EnemyBase.obj
 0001:00099f40       ?DeathSequence@CEnemyBase@@QAEHABVCEntityEvent@@@Z 1009af40 f   EnemyBase.obj
 0001:00099fa0       ?H0x01360060_DeathSequence_01@CEnemyBase@@QAEHABVCEntityEvent@@@Z 1009afa0 f   EnemyBase.obj
 0001:0009a040       ?H0x01360061_DeathSequence_02@CEnemyBase@@QAEHABVCEntityEvent@@@Z 1009b040 f   EnemyBase.obj
 0001:0009a120       ?H0x01360062_DeathSequence_03@CEnemyBase@@QAEHABVCEntityEvent@@@Z 1009b120 f   EnemyBase.obj
 0001:0009a1a0       ?H0x01360063_DeathSequence_04@CEnemyBase@@QAEHABVCEntityEvent@@@Z 1009b1a0 f   EnemyBase.obj
 0001:0009a250       ?H0x01360064_DeathSequence_05@CEnemyBase@@QAEHABVCEntityEvent@@@Z 1009b250 f   EnemyBase.obj
 0001:0009a2d0       ?H0x01360065_DeathSequence_06@CEnemyBase@@QAEHABVCEntityEvent@@@Z 1009b2d0 f   EnemyBase.obj
 0001:0009a340       ?H0x01360066_DeathSequence_07@CEnemyBase@@QAEHABVCEntityEvent@@@Z 1009b340 f   EnemyBase.obj
 0001:0009a3c0       ?H0x01360067_DeathSequence_08@CEnemyBase@@QAEHABVCEntityEvent@@@Z 1009b3c0 f   EnemyBase.obj
 0001:0009a420       ?Active@CEnemyBase@@QAEHABVCEntityEvent@@@Z 1009b420 f   EnemyBase.obj
 0001:0009a490       ?H0x01360069_Active_01@CEnemyBase@@QAEHABVCEntityEvent@@@Z 1009b490 f   EnemyBase.obj
 0001:0009a8a0       ?H0x0136006a_Active_02@CEnemyBase@@QAEHABVCEntityEvent@@@Z 1009b8a0 f   EnemyBase.obj
 0001:0009a8b0       ?Inactive@CEnemyBase@@QAEHABVCEntityEvent@@@Z 1009b8b0 f   EnemyBase.obj
 0001:0009a970       ?H0x0136006c_Inactive_01@CEnemyBase@@QAEHABVCEntityEvent@@@Z 1009b970 f   EnemyBase.obj
 0001:0009aaa0       ?H0x0136006d_Inactive_02@CEnemyBase@@QAEHABVCEntityEvent@@@Z 1009baa0 f   EnemyBase.obj
 0001:0009aab0       ?PreMainLoop@CEnemyBase@@QAEHABVCEntityEvent@@@Z 1009bab0 f   EnemyBase.obj
 0001:0009ab10       ?MainLoop@CEnemyBase@@QAEHABVCEntityEvent@@@Z 1009bb10 f   EnemyBase.obj
 0001:0009ac00       ?H0x01360070_MainLoop_01@CEnemyBase@@QAEHABVCEntityEvent@@@Z 1009bc00 f   EnemyBase.obj
 0001:0009ac80       ?H0x01360071_MainLoop_02@CEnemyBase@@QAEHABVCEntityEvent@@@Z 1009bc80 f   EnemyBase.obj
 0001:0009ae60       ?H0x01360072_MainLoop_03@CEnemyBase@@QAEHABVCEntityEvent@@@Z 1009be60 f   EnemyBase.obj
 0001:0009af00       ?H0x01360073_MainLoop_04@CEnemyBase@@QAEHABVCEntityEvent@@@Z 1009bf00 f   EnemyBase.obj
 0001:0009af60       ?StandardBehavior@CEnemyBase@@QAEHABVCEntityEvent@@@Z 1009bf60 f   EnemyBase.obj
 0001:0009afd0       ?H0x01360075_StandardBehavior_01@CEnemyBase@@QAEHABVCEntityEvent@@@Z 1009bfd0 f   EnemyBase.obj
 0001:0009b130       ?H0x01360076_StandardBehavior_02@CEnemyBase@@QAEHABVCEntityEvent@@@Z 1009c130 f   EnemyBase.obj
 0001:0009b140       ?Main@CEnemyBase@@QAEHABVCEntityEvent@@@Z 1009c140 f   EnemyBase.obj
 0001:0009b190       ?Expand@?$CStaticArray@PAVCEntity@@@@QAEXJ@Z 1009c190 f i EnemyBase.obj
 0001:0009b3b0       ?CEnemyCounter_New@@YAPAVCEntity@@XZ 1009c3b0 f   EnemyCounter.obj
 0001:0009b440       ?CEnemyCounter_OnInitClass@@YAXXZ 1009c440 f   EnemyCounter.obj
 0001:0009b450       ?CEnemyCounter_OnEndClass@@YAXXZ 1009c450 f   EnemyCounter.obj
 0001:0009b460       ?CEnemyCounter_OnPrecache@@YAXPAVCDLLEntityClass@@J@Z 1009c460 f   EnemyCounter.obj
 0001:0009b470       ?CEnemyCounter_OnWorldEnd@@YAXPAVCWorld@@@Z 1009c470 f   EnemyCounter.obj
 0001:0009b480       ?CEnemyCounter_OnWorldInit@@YAXPAVCWorld@@@Z 1009c480 f   EnemyCounter.obj
 0001:0009b490       ?CEnemyCounter_OnWorldTick@@YAXPAVCWorld@@@Z 1009c490 f   EnemyCounter.obj
 0001:0009b4a0       ?CEnemyCounter_OnWorldRender@@YAXPAVCWorld@@@Z 1009c4a0 f   EnemyCounter.obj
 0001:0009b570       ?SetDefaultProperties@CEnemyCounter@@UAEXXZ 1009c570 f   EnemyCounter.obj
 0001:0009b5e0       ?GetMusicHolder@CEnemyCounter@@QAEPAVCMusicHolder@@XZ 1009c5e0 f   EnemyCounter.obj
 0001:0009b6a0       ?StartCounting@CEnemyCounter@@QAEXXZ 1009c6a0 f   EnemyCounter.obj
 0001:0009b6f0       ?CountOne@CEnemyCounter@@QAEXXZ 1009c6f0 f   EnemyCounter.obj
 0001:0009b710       ?StopCounting@CEnemyCounter@@QAEXXZ 1009c710 f   EnemyCounter.obj
 0001:0009b750       ?Main@CEnemyCounter@@QAEHABVCEntityEvent@@@Z 1009c750 f   EnemyCounter.obj
 0001:0009b7f0       ?H0x01530000_Main_01@CEnemyCounter@@QAEHABVCEntityEvent@@@Z 1009c7f0 f   EnemyCounter.obj
 0001:0009b870       ?H0x01530001_Main_02@CEnemyCounter@@QAEHABVCEntityEvent@@@Z 1009c870 f   EnemyCounter.obj
 0001:0009b8e0       ?H0x01530002_Main_03@CEnemyCounter@@QAEHABVCEntityEvent@@@Z 1009c8e0 f   EnemyCounter.obj
 0001:0009b950       ?H0x01530003_Main_04@CEnemyCounter@@QAEHABVCEntityEvent@@@Z 1009c950 f   EnemyCounter.obj
 0001:0009b9b0       ?GetName@CEnemyCounter@@UBEABVCTString@@XZ 1009c9b0 f i EnemyCounter.obj
 0001:0009b9c0       ?IsTargetable@CEnemyCounter@@UBEHXZ 1009c9c0 f i EnemyCounter.obj
 0001:0009b9d0       ??_ECEnemyCounter@@UAEPAXI@Z 1009c9d0 f i EnemyCounter.obj
 0001:0009b9d0       ??_GCEnemyCounter@@UAEPAXI@Z 1009c9d0 f i EnemyCounter.obj
 0001:0009ba00       ??1CEnemyCounter@@UAE@XZ   1009ca00 f i EnemyCounter.obj
 0001:0009bad0       ?ClearToDefault@@YAXAAW4EnemyDiveType@@@Z 1009cad0 f i EnemyDive.obj
 0001:0009bae0       ??0CEnemyDive@@QAE@XZ      1009cae0 f i EnemyDive.obj
 0001:0009bb00       ??0CEnemyDive@@QAE@ABV0@@Z 1009cb00 f i EnemyDive.obj
 0001:0009bbe0       ??4CEnemyDive@@QAEAAV0@AAV0@@Z 1009cbe0 f i EnemyDive.obj
 0001:0009bcb0       ??1CEnemyDive@@UAE@XZ      1009ccb0 f i EnemyDive.obj
 0001:0009be20       ??_GCEnemyDive@@UAEPAXI@Z  1009ce20 f i EnemyDive.obj
 0001:0009be50       ??_ECEnemyDive@@UAEPAXI@Z  1009ce50 f i EnemyDive.obj
 0001:0009c230       ?CEnemyDive_New@@YAPAVCEntity@@XZ 1009d230 f   EnemyDive.obj
 0001:0009c290       ?CEnemyDive_OnInitClass@@YAXXZ 1009d290 f   EnemyDive.obj
 0001:0009c2a0       ?CEnemyDive_OnEndClass@@YAXXZ 1009d2a0 f   EnemyDive.obj
 0001:0009c2b0       ?CEnemyDive_OnPrecache@@YAXPAVCDLLEntityClass@@J@Z 1009d2b0 f   EnemyDive.obj
 0001:0009c2c0       ?CEnemyDive_OnWorldEnd@@YAXPAVCWorld@@@Z 1009d2c0 f   EnemyDive.obj
 0001:0009c2d0       ?CEnemyDive_OnWorldInit@@YAXPAVCWorld@@@Z 1009d2d0 f   EnemyDive.obj
 0001:0009c2e0       ?CEnemyDive_OnWorldTick@@YAXPAVCWorld@@@Z 1009d2e0 f   EnemyDive.obj
 0001:0009c2f0       ?CEnemyDive_OnWorldRender@@YAXPAVCWorld@@@Z 1009d2f0 f   EnemyDive.obj
 0001:0009c350       ?SetDefaultProperties@CEnemyDive@@UAEXXZ 1009d350 f   EnemyDive.obj
 0001:0009c3d0       ?GetPropA@CEnemyDive@@UAEAAMAAM@Z 1009d3d0 f   EnemyDive.obj
 0001:0009c3f0       ?StartPathFinding@CEnemyDive@@UAEXXZ 1009d3f0 f   EnemyDive.obj
 0001:0009c430       ?AdjustDifficulty@CEnemyDive@@UAEXXZ 1009d430 f   EnemyDive.obj
 0001:0009c4e0       ?CanHitEnemy@CEnemyDive@@UAEHPAVCEntity@@M@Z 1009d4e0 f   EnemyDive.obj
 0001:0009c510       ?PostMoving@CEnemyDive@@UAEXXZ 1009d510 f   EnemyDive.obj
 0001:0009c650       ?SetDesiredMovement@CEnemyDive@@UAEKXZ 1009d650 f   EnemyDive.obj
 0001:0009c7d0       ?MayMoveToAttack@CEnemyDive@@UAEHXZ 1009d7d0 f   EnemyDive.obj
 0001:0009c7e0       ?SetEntityPosition@CEnemyDive@@QAEXXZ 1009d7e0 f   EnemyDive.obj
 0001:0009c840       ?ChangeCollisionToLiquid@CEnemyDive@@UAEXXZ 1009d840 f   EnemyDive.obj
 0001:0009c850       ?ChangeCollisionToGround@CEnemyDive@@UAEXXZ 1009d850 f   EnemyDive.obj
 0001:0009c860       ?Hit@CEnemyDive@@QAEHABVCEntityEvent@@@Z 1009d860 f   EnemyDive.obj
 0001:0009c8e0       ?Fire@CEnemyDive@@QAEHABVCEntityEvent@@@Z 1009d8e0 f   EnemyDive.obj
 0001:0009c960       ?MainLoop@CEnemyDive@@QAEHABVCEntityEvent@@@Z 1009d960 f   EnemyDive.obj
 0001:0009c9c0       ?Main@CEnemyDive@@QAEHABVCEntityEvent@@@Z 1009d9c0 f   EnemyDive.obj
 0001:0009ca10       ?GroundHit@CEnemyDive@@QAEHABVCEntityEvent@@@Z 1009da10 f   EnemyDive.obj
 0001:0009ca70       ?GroundFire@CEnemyDive@@QAEHABVCEntityEvent@@@Z 1009da70 f   EnemyDive.obj
 0001:0009cad0       ?DiveHit@CEnemyDive@@QAEHABVCEntityEvent@@@Z 1009dad0 f   EnemyDive.obj
 0001:0009cb30       ?DiveFire@CEnemyDive@@QAEHABVCEntityEvent@@@Z 1009db30 f   EnemyDive.obj
 0001:0009cb90       ?ClearToDefault@@YAXAAW4EnemyFlyType@@@Z 1009db90 f i EnemyFly.obj
 0001:0009cba0       ??0CEnemyFly@@QAE@XZ       1009dba0 f i EnemyFly.obj
 0001:0009cbc0       ??0CEnemyFly@@QAE@ABV0@@Z  1009dbc0 f i EnemyFly.obj
 0001:0009cd00       ??4CEnemyFly@@QAEAAV0@AAV0@@Z 1009dd00 f i EnemyFly.obj
 0001:0009ce30       ??1CEnemyFly@@UAE@XZ       1009de30 f i EnemyFly.obj
 0001:0009cfa0       ??_GCEnemyFly@@UAEPAXI@Z   1009dfa0 f i EnemyFly.obj
 0001:0009cfd0       ??_ECEnemyFly@@UAEPAXI@Z   1009dfd0 f i EnemyFly.obj
 0001:0009d530       ?CEnemyFly_New@@YAPAVCEntity@@XZ 1009e530 f   EnemyFly.obj
 0001:0009d590       ?CEnemyFly_OnInitClass@@YAXXZ 1009e590 f   EnemyFly.obj
 0001:0009d5a0       ?CEnemyFly_OnEndClass@@YAXXZ 1009e5a0 f   EnemyFly.obj
 0001:0009d5b0       ?CEnemyFly_OnPrecache@@YAXPAVCDLLEntityClass@@J@Z 1009e5b0 f   EnemyFly.obj
 0001:0009d5c0       ?CEnemyFly_OnWorldEnd@@YAXPAVCWorld@@@Z 1009e5c0 f   EnemyFly.obj
 0001:0009d5d0       ?CEnemyFly_OnWorldInit@@YAXPAVCWorld@@@Z 1009e5d0 f   EnemyFly.obj
 0001:0009d5e0       ?CEnemyFly_OnWorldTick@@YAXPAVCWorld@@@Z 1009e5e0 f   EnemyFly.obj
 0001:0009d5f0       ?CEnemyFly_OnWorldRender@@YAXPAVCWorld@@@Z 1009e5f0 f   EnemyFly.obj
 0001:0009d650       ?SetDefaultProperties@CEnemyFly@@UAEXXZ 1009e650 f   EnemyFly.obj
 0001:0009d710       ?GetPropA@CEnemyFly@@UAEAAMAAM@Z 1009e710 f   EnemyFly.obj
 0001:0009d730       ?PlayerDestinationPos@CEnemyFly@@UAE?AV?$Vector@M$02@@XZ 1009e730 f   EnemyFly.obj
 0001:0009d830       ?StartPathFinding@CEnemyFly@@UAEXXZ 1009e830 f   EnemyFly.obj
 0001:0009d890       ?AdjustDifficulty@CEnemyFly@@UAEXXZ 1009e890 f   EnemyFly.obj
 0001:0009d950       ?CanHitEnemy@CEnemyFly@@UAEHPAVCEntity@@M@Z 1009e950 f   EnemyFly.obj
 0001:0009d980       ?SetDesiredMovement@CEnemyFly@@UAEKXZ 1009e980 f   EnemyFly.obj
 0001:0009db00       ?SetEntityPosition@CEnemyFly@@QAEXXZ 1009eb00 f   EnemyFly.obj
 0001:0009dbe0       ?AirToGroundAnim@CEnemyFly@@UAEMXZ 1009ebe0 f   EnemyFly.obj
 0001:0009dbf0       ?GroundToAirAnim@CEnemyFly@@UAEMXZ 1009ebf0 f   EnemyFly.obj
 0001:0009dc00       ?ChangeCollisionToAir@CEnemyFly@@UAEXXZ 1009ec00 f   EnemyFly.obj
 0001:0009dc10       ?ChangeCollisionToGround@CEnemyFly@@UAEXXZ 1009ec10 f   EnemyFly.obj
 0001:0009dc20       ?ReturnToStartPosition@CEnemyFly@@QAEHABVCEntityEvent@@@Z 1009ec20 f   EnemyFly.obj
 0001:0009dc80       ?BeWounded@CEnemyFly@@QAEHABVCEntityEvent@@@Z 1009ec80 f   EnemyFly.obj
 0001:0009dd10       ?H0x01370006_BeWounded_05@CEnemyFly@@QAEHABVCEntityEvent@@@Z 1009ed10 f   EnemyFly.obj
 0001:0009dd80       ?H0x01370002_BeWounded_01@CEnemyFly@@QAEHABVCEntityEvent@@@Z 1009ed80 f   EnemyFly.obj
 0001:0009de20       ?H0x01370003_BeWounded_02@CEnemyFly@@QAEHABVCEntityEvent@@@Z 1009ee20 f   EnemyFly.obj
 0001:0009de80       ?H0x01370004_BeWounded_03@CEnemyFly@@QAEHABVCEntityEvent@@@Z 1009ee80 f   EnemyFly.obj
 0001:0009dee0       ?H0x01370005_BeWounded_04@CEnemyFly@@QAEHABVCEntityEvent@@@Z 1009eee0 f   EnemyFly.obj
 0001:0009df40       ?AirToGround@CEnemyFly@@QAEHABVCEntityEvent@@@Z 1009ef40 f   EnemyFly.obj
 0001:0009e000       ?H0x01370008_AirToGround_01@CEnemyFly@@QAEHABVCEntityEvent@@@Z 1009f000 f   EnemyFly.obj
 0001:0009e0c0       ?H0x01370009_AirToGround_02@CEnemyFly@@QAEHABVCEntityEvent@@@Z 1009f0c0 f   EnemyFly.obj
 0001:0009e160       ?H0x0137000a_AirToGround_03@CEnemyFly@@QAEHABVCEntityEvent@@@Z 1009f160 f   EnemyFly.obj
 0001:0009e1f0       ?H0x0137000b_AirToGround_04@CEnemyFly@@QAEHABVCEntityEvent@@@Z 1009f1f0 f   EnemyFly.obj
 0001:0009e250       ?GroundToAir@CEnemyFly@@QAEHABVCEntityEvent@@@Z 1009f250 f   EnemyFly.obj
 0001:0009e330       ?H0x0137000d_GroundToAir_01@CEnemyFly@@QAEHABVCEntityEvent@@@Z 1009f330 f   EnemyFly.obj
 0001:0009e3c0       ?H0x0137000e_GroundToAir_02@CEnemyFly@@QAEHABVCEntityEvent@@@Z 1009f3c0 f   EnemyFly.obj
 0001:0009e480       ?H0x0137000f_GroundToAir_03@CEnemyFly@@QAEHABVCEntityEvent@@@Z 1009f480 f   EnemyFly.obj
 0001:0009e510       ?H0x01370010_GroundToAir_04@CEnemyFly@@QAEHABVCEntityEvent@@@Z 1009f510 f   EnemyFly.obj
 0001:0009e590       ?AttackEnemy@CEnemyFly@@QAEHABVCEntityEvent@@@Z 1009f590 f   EnemyFly.obj
 0001:0009e640       ?H0x01370012_AttackEnemy_01@CEnemyFly@@QAEHABVCEntityEvent@@@Z 1009f640 f   EnemyFly.obj
 0001:0009e6e0       ?H0x01370013_AttackEnemy_02@CEnemyFly@@QAEHABVCEntityEvent@@@Z 1009f6e0 f   EnemyFly.obj
 0001:0009e740       ?H0x01370014_AttackEnemy_03@CEnemyFly@@QAEHABVCEntityEvent@@@Z 1009f740 f   EnemyFly.obj
 0001:0009e7a0       ?H0x0137001a_AttackEnemy_09@CEnemyFly@@QAEHABVCEntityEvent@@@Z 1009f7a0 f   EnemyFly.obj
 0001:0009e820       ?H0x01370015_AttackEnemy_04@CEnemyFly@@QAEHABVCEntityEvent@@@Z 1009f820 f   EnemyFly.obj
 0001:0009e8c0       ?H0x01370016_AttackEnemy_05@CEnemyFly@@QAEHABVCEntityEvent@@@Z 1009f8c0 f   EnemyFly.obj
 0001:0009e920       ?H0x01370017_AttackEnemy_06@CEnemyFly@@QAEHABVCEntityEvent@@@Z 1009f920 f   EnemyFly.obj
 0001:0009e980       ?H0x01370018_AttackEnemy_07@CEnemyFly@@QAEHABVCEntityEvent@@@Z 1009f980 f   EnemyFly.obj
 0001:0009e9e0       ?H0x01370019_AttackEnemy_08@CEnemyFly@@QAEHABVCEntityEvent@@@Z 1009f9e0 f   EnemyFly.obj
 0001:0009ea40       ?Hit@CEnemyFly@@QAEHABVCEntityEvent@@@Z 1009fa40 f   EnemyFly.obj
 0001:0009eac0       ?Fire@CEnemyFly@@QAEHABVCEntityEvent@@@Z 1009fac0 f   EnemyFly.obj
 0001:0009eb40       ?Death@CEnemyFly@@QAEHABVCEntityEvent@@@Z 1009fb40 f   EnemyFly.obj
 0001:0009ebc0       ?MainLoop@CEnemyFly@@QAEHABVCEntityEvent@@@Z 1009fbc0 f   EnemyFly.obj
 0001:0009ec20       ?Main@CEnemyFly@@QAEHABVCEntityEvent@@@Z 1009fc20 f   EnemyFly.obj
 0001:0009ec70       ?GroundHit@CEnemyFly@@QAEHABVCEntityEvent@@@Z 1009fc70 f   EnemyFly.obj
 0001:0009ecd0       ?GroundFire@CEnemyFly@@QAEHABVCEntityEvent@@@Z 1009fcd0 f   EnemyFly.obj
 0001:0009ed30       ?FlyHit@CEnemyFly@@QAEHABVCEntityEvent@@@Z 1009fd30 f   EnemyFly.obj
 0001:0009ed90       ?FlyFire@CEnemyFly@@QAEHABVCEntityEvent@@@Z 1009fd90 f   EnemyFly.obj
 0001:0009f0c0       ?CEnemyMarker_New@@YAPAVCEntity@@XZ 100a00c0 f   EnemyMarker.obj
 0001:0009f160       ?CEnemyMarker_OnInitClass@@YAXXZ 100a0160 f   EnemyMarker.obj
 0001:0009f170       ?CEnemyMarker_OnEndClass@@YAXXZ 100a0170 f   EnemyMarker.obj
 0001:0009f180       ?CEnemyMarker_OnPrecache@@YAXPAVCDLLEntityClass@@J@Z 100a0180 f   EnemyMarker.obj
 0001:0009f190       ?CEnemyMarker_OnWorldEnd@@YAXPAVCWorld@@@Z 100a0190 f   EnemyMarker.obj
 0001:0009f1a0       ?CEnemyMarker_OnWorldInit@@YAXPAVCWorld@@@Z 100a01a0 f   EnemyMarker.obj
 0001:0009f1b0       ?CEnemyMarker_OnWorldTick@@YAXPAVCWorld@@@Z 100a01b0 f   EnemyMarker.obj
 0001:0009f1c0       ?CEnemyMarker_OnWorldRender@@YAXPAVCWorld@@@Z 100a01c0 f   EnemyMarker.obj
 0001:0009f220       ?SetDefaultProperties@CEnemyMarker@@UAEXXZ 100a0220 f   EnemyMarker.obj
 0001:0009f270       ?MovesByTargetedRoute@CEnemyMarker@@UBEHAAVCTString@@@Z 100a0270 f   EnemyMarker.obj
 0001:0009f2a0       ?DropsMarker@CEnemyMarker@@UBEHAAVCTFileName@@AAVCTString@@@Z 100a02a0 f   EnemyMarker.obj
 0001:0009f340       ?IsTargetValid@CEnemyMarker@@UAEHJPAVCEntity@@@Z 100a0340 f   EnemyMarker.obj
 0001:0009f380       ?Main@CEnemyMarker@@QAEHABVCEntityEvent@@@Z 100a0380 f   EnemyMarker.obj
 0001:0009f410       ??_GCEnemyMarker@@UAEPAXI@Z 100a0410 f i EnemyMarker.obj
 0001:0009f410       ??_ECEnemyMarker@@UAEPAXI@Z 100a0410 f i EnemyMarker.obj
 0001:0009f440       ??1CEnemyMarker@@UAE@XZ    100a0440 f i EnemyMarker.obj
 0001:0009f730       ?CEnemyRunInto_New@@YAPAVCEntity@@XZ 100a0730 f   EnemyRunInto.obj
 0001:0009f7a0       ?CEnemyRunInto_OnInitClass@@YAXXZ 100a07a0 f   EnemyRunInto.obj
 0001:0009f7b0       ?CEnemyRunInto_OnEndClass@@YAXXZ 100a07b0 f   EnemyRunInto.obj
 0001:0009f7c0       ?CEnemyRunInto_OnPrecache@@YAXPAVCDLLEntityClass@@J@Z 100a07c0 f   EnemyRunInto.obj
 0001:0009f7d0       ?CEnemyRunInto_OnWorldEnd@@YAXPAVCWorld@@@Z 100a07d0 f   EnemyRunInto.obj
 0001:0009f7e0       ?CEnemyRunInto_OnWorldInit@@YAXPAVCWorld@@@Z 100a07e0 f   EnemyRunInto.obj
 0001:0009f7f0       ?CEnemyRunInto_OnWorldTick@@YAXPAVCWorld@@@Z 100a07f0 f   EnemyRunInto.obj
 0001:0009f800       ?CEnemyRunInto_OnWorldRender@@YAXPAVCWorld@@@Z 100a0800 f   EnemyRunInto.obj
 0001:0009f860       ?SetDefaultProperties@CEnemyRunInto@@UAEXXZ 100a0860 f   EnemyRunInto.obj
 0001:0009f8d0       ?AdjustDifficulty@CEnemyRunInto@@UAEXXZ 100a08d0 f   EnemyRunInto.obj
 0001:0009f900       ?IncreaseKickedMass@CEnemyRunInto@@QAEXPAVCEntity@@@Z 100a0900 f   EnemyRunInto.obj
 0001:0009f930       ?LiveEntityTouched@CEnemyRunInto@@UAEXVETouch@@@Z 100a0930 f   EnemyRunInto.obj
 0001:0009f980       ?HigherMass@CEnemyRunInto@@UAEHXZ 100a0980 f   EnemyRunInto.obj
 0001:0009f990       ?ChargeAnim@CEnemyRunInto@@UAEXXZ 100a0990 f   EnemyRunInto.obj
 0001:0009f9a0       ?Fire@CEnemyRunInto@@QAEHABVCEntityEvent@@@Z 100a09a0 f   EnemyRunInto.obj
 0001:0009fa30       ?RotateToEnemy@CEnemyRunInto@@QAEHABVCEntityEvent@@@Z 100a0a30 f   EnemyRunInto.obj
 0001:0009fad0       ?H0x01380004_RotateToEnemy_03@CEnemyRunInto@@QAEHABVCEntityEvent@@@Z 100a0ad0 f   EnemyRunInto.obj
 0001:0009fb70       ?H0x01380002_RotateToEnemy_01@CEnemyRunInto@@QAEHABVCEntityEvent@@@Z 100a0b70 f   EnemyRunInto.obj
 0001:0009fca0       ?H0x01380003_RotateToEnemy_02@CEnemyRunInto@@QAEHABVCEntityEvent@@@Z 100a0ca0 f   EnemyRunInto.obj
 0001:0009fd00       ?H0x01380005_RotateToEnemy_04@CEnemyRunInto@@QAEHABVCEntityEvent@@@Z 100a0d00 f   EnemyRunInto.obj
 0001:0009fd60       ?RunIntoEnemy@CEnemyRunInto@@QAEHABVCEntityEvent@@@Z 100a0d60 f   EnemyRunInto.obj
 0001:0009fe00       ?H0x01380009_RunIntoEnemy_03@CEnemyRunInto@@QAEHABVCEntityEvent@@@Z 100a0e00 f   EnemyRunInto.obj
 0001:0009fea0       ?H0x01380007_RunIntoEnemy_01@CEnemyRunInto@@QAEHABVCEntityEvent@@@Z 100a0ea0 f   EnemyRunInto.obj
 0001:000a0210       ?H0x01380008_RunIntoEnemy_02@CEnemyRunInto@@QAEHABVCEntityEvent@@@Z 100a1210 f   EnemyRunInto.obj
 0001:000a0270       ?H0x0138000a_RunIntoEnemy_04@CEnemyRunInto@@QAEHABVCEntityEvent@@@Z 100a1270 f   EnemyRunInto.obj
 0001:000a02d0       ?RunAwayFromEnemy@CEnemyRunInto@@QAEHABVCEntityEvent@@@Z 100a12d0 f   EnemyRunInto.obj
 0001:000a0380       ?H0x0138000c_RunAwayFromEnemy_01@CEnemyRunInto@@QAEHABVCEntityEvent@@@Z 100a1380 f   EnemyRunInto.obj
 0001:000a05c0       ?H0x0138000d_RunAwayFromEnemy_02@CEnemyRunInto@@QAEHABVCEntityEvent@@@Z 100a15c0 f   EnemyRunInto.obj
 0001:000a0640       ?H0x0138000e_RunAwayFromEnemy_03@CEnemyRunInto@@QAEHABVCEntityEvent@@@Z 100a1640 f   EnemyRunInto.obj
 0001:000a06e0       ?H0x0138000f_RunAwayFromEnemy_04@CEnemyRunInto@@QAEHABVCEntityEvent@@@Z 100a16e0 f   EnemyRunInto.obj
 0001:000a0740       ?PostRunAwayFromEnemy@CEnemyRunInto@@QAEHABVCEntityEvent@@@Z 100a1740 f   EnemyRunInto.obj
 0001:000a07a0       ?MainLoop@CEnemyRunInto@@QAEHABVCEntityEvent@@@Z 100a17a0 f   EnemyRunInto.obj
 0001:000a0800       ?Main@CEnemyRunInto@@QAEHABVCEntityEvent@@@Z 100a1800 f   EnemyRunInto.obj
 0001:000a0850       ??0CEntityPointer@@QAE@ABV0@@Z 100a1850 f i EnemyRunInto.obj
 0001:000a0870       ?ClearToDefault@@YAXAAW4EnemySpawnerType@@@Z 100a1870 f i EnemySpawner.obj
 0001:000a0db0       ?CEnemySpawner_New@@YAPAVCEntity@@XZ 100a1db0 f   EnemySpawner.obj
 0001:000a0e70       ?CEnemySpawner_OnInitClass@@YAXXZ 100a1e70 f   EnemySpawner.obj
 0001:000a0e80       ?CEnemySpawner_OnEndClass@@YAXXZ 100a1e80 f   EnemySpawner.obj
 0001:000a0e90       ?CEnemySpawner_OnPrecache@@YAXPAVCDLLEntityClass@@J@Z 100a1e90 f   EnemySpawner.obj
 0001:000a0ea0       ?CEnemySpawner_OnWorldEnd@@YAXPAVCWorld@@@Z 100a1ea0 f   EnemySpawner.obj
 0001:000a0eb0       ?CEnemySpawner_OnWorldInit@@YAXPAVCWorld@@@Z 100a1eb0 f   EnemySpawner.obj
 0001:000a0ec0       ?CEnemySpawner_OnWorldTick@@YAXPAVCWorld@@@Z 100a1ec0 f   EnemySpawner.obj
 0001:000a0ed0       ?CEnemySpawner_OnWorldRender@@YAXPAVCWorld@@@Z 100a1ed0 f   EnemySpawner.obj
 0001:000a0fa0       ?SetDefaultProperties@CEnemySpawner@@UAEXXZ 100a1fa0 f   EnemySpawner.obj
 0001:000a1100       ?Precache@CEnemySpawner@@UAEXXZ 100a2100 f   EnemySpawner.obj
 0001:000a1110       ?GetDescription@CEnemySpawner@@UBEABVCTString@@XZ 100a2110 f   EnemySpawner.obj
 0001:000a1200       ?CheckTemplateValid@CEnemySpawner@@QAEHPAVCEntity@@@Z 100a2200 f   EnemySpawner.obj
 0001:000a1260       ?IsTargetValid@CEnemySpawner@@UAEHJPAVCEntity@@@Z 100a2260 f   EnemySpawner.obj
 0001:000a12f0       ?FillEntityStatistics@CEnemySpawner@@UAEHPAUEntityStats@@@Z 100a22f0 f   EnemySpawner.obj
 0001:000a13d0       ?SpawnEntity@CEnemySpawner@@QAEXH@Z 100a23d0 f   EnemySpawner.obj
 0001:000a1800       ?HandleEvent@CEnemySpawner@@UAEHABVCEntityEvent@@@Z 100a2800 f   EnemySpawner.obj
 0001:000a18c0       ?GetUsedMemory@CEnemySpawner@@UAEJXZ 100a28c0 f   EnemySpawner.obj
 0001:000a1910       ?SpawnGroup@CEnemySpawner@@QAEHABVCEntityEvent@@@Z 100a2910 f   EnemySpawner.obj
 0001:000a1980       ?H0x01300003_SpawnGroup_03@CEnemySpawner@@QAEHABVCEntityEvent@@@Z 100a2980 f   EnemySpawner.obj
 0001:000a1aa0       ?H0x01300001_SpawnGroup_01@CEnemySpawner@@QAEHABVCEntityEvent@@@Z 100a2aa0 f   EnemySpawner.obj
 0001:000a1b30       ?H0x01300002_SpawnGroup_02@CEnemySpawner@@QAEHABVCEntityEvent@@@Z 100a2b30 f   EnemySpawner.obj
 0001:000a1b90       ?H0x01300004_SpawnGroup_04@CEnemySpawner@@QAEHABVCEntityEvent@@@Z 100a2b90 f   EnemySpawner.obj
 0001:000a1ba0       ?Simple@CEnemySpawner@@QAEHABVCEntityEvent@@@Z 100a2ba0 f   EnemySpawner.obj
 0001:000a1c10       ?H0x01300006_Simple_01@CEnemySpawner@@QAEHABVCEntityEvent@@@Z 100a2c10 f   EnemySpawner.obj
 0001:000a1cc0       ?H0x01300007_Simple_02@CEnemySpawner@@QAEHABVCEntityEvent@@@Z 100a2cc0 f   EnemySpawner.obj
 0001:000a1d60       ?H0x01300008_Simple_03@CEnemySpawner@@QAEHABVCEntityEvent@@@Z 100a2d60 f   EnemySpawner.obj
 0001:000a1de0       ?H0x01300009_Simple_04@CEnemySpawner@@QAEHABVCEntityEvent@@@Z 100a2de0 f   EnemySpawner.obj
 0001:000a1e40       ?H0x0130000a_Simple_05@CEnemySpawner@@QAEHABVCEntityEvent@@@Z 100a2e40 f   EnemySpawner.obj
 0001:000a1ea0       ?H0x0130000f_Simple_10@CEnemySpawner@@QAEHABVCEntityEvent@@@Z 100a2ea0 f   EnemySpawner.obj
 0001:000a1f00       ?H0x0130000b_Simple_06@CEnemySpawner@@QAEHABVCEntityEvent@@@Z 100a2f00 f   EnemySpawner.obj
 0001:000a1fa0       ?H0x0130000c_Simple_07@CEnemySpawner@@QAEHABVCEntityEvent@@@Z 100a2fa0 f   EnemySpawner.obj
 0001:000a2010       ?H0x0130000d_Simple_08@CEnemySpawner@@QAEHABVCEntityEvent@@@Z 100a3010 f   EnemySpawner.obj
 0001:000a2090       ?H0x0130000e_Simple_09@CEnemySpawner@@QAEHABVCEntityEvent@@@Z 100a3090 f   EnemySpawner.obj
 0001:000a20f0       ?H0x01300010_Simple_11@CEnemySpawner@@QAEHABVCEntityEvent@@@Z 100a30f0 f   EnemySpawner.obj
 0001:000a2100       ?Teleporter@CEnemySpawner@@QAEHABVCEntityEvent@@@Z 100a3100 f   EnemySpawner.obj
 0001:000a2170       ?H0x01300012_Teleporter_01@CEnemySpawner@@QAEHABVCEntityEvent@@@Z 100a3170 f   EnemySpawner.obj
 0001:000a2220       ?H0x01300013_Teleporter_02@CEnemySpawner@@QAEHABVCEntityEvent@@@Z 100a3220 f   EnemySpawner.obj
 0001:000a22c0       ?H0x01300014_Teleporter_03@CEnemySpawner@@QAEHABVCEntityEvent@@@Z 100a32c0 f   EnemySpawner.obj
 0001:000a2340       ?H0x01300015_Teleporter_04@CEnemySpawner@@QAEHABVCEntityEvent@@@Z 100a3340 f   EnemySpawner.obj
 0001:000a23a0       ?H0x01300016_Teleporter_05@CEnemySpawner@@QAEHABVCEntityEvent@@@Z 100a33a0 f   EnemySpawner.obj
 0001:000a2400       ?Respawner@CEnemySpawner@@QAEHABVCEntityEvent@@@Z 100a3400 f   EnemySpawner.obj
 0001:000a2460       ?H0x01300031_Respawner_26@CEnemySpawner@@QAEHABVCEntityEvent@@@Z 100a3460 f   EnemySpawner.obj
 0001:000a24d0       ?H0x01300018_Respawner_01@CEnemySpawner@@QAEHABVCEntityEvent@@@Z 100a34d0 f   EnemySpawner.obj
 0001:000a25b0       ?H0x01300019_Respawner_02@CEnemySpawner@@QAEHABVCEntityEvent@@@Z 100a35b0 f   EnemySpawner.obj
 0001:000a2650       ?H0x0130001a_Respawner_03@CEnemySpawner@@QAEHABVCEntityEvent@@@Z 100a3650 f   EnemySpawner.obj
 0001:000a26d0       ?H0x0130001b_Respawner_04@CEnemySpawner@@QAEHABVCEntityEvent@@@Z 100a36d0 f   EnemySpawner.obj
 0001:000a2730       ?H0x0130001c_Respawner_05@CEnemySpawner@@QAEHABVCEntityEvent@@@Z 100a3730 f   EnemySpawner.obj
 0001:000a27d0       ?H0x0130001d_Respawner_06@CEnemySpawner@@QAEHABVCEntityEvent@@@Z 100a37d0 f   EnemySpawner.obj
 0001:000a2870       ?H0x0130001e_Respawner_07@CEnemySpawner@@QAEHABVCEntityEvent@@@Z 100a3870 f   EnemySpawner.obj
 0001:000a28d0       ?H0x01300026_Respawner_15@CEnemySpawner@@QAEHABVCEntityEvent@@@Z 100a38d0 f   EnemySpawner.obj
 0001:000a2990       ?H0x0130001f_Respawner_08@CEnemySpawner@@QAEHABVCEntityEvent@@@Z 100a3990 f   EnemySpawner.obj
 0001:000a2a10       ?H0x01300020_Respawner_09@CEnemySpawner@@QAEHABVCEntityEvent@@@Z 100a3a10 f   EnemySpawner.obj
 0001:000a2a70       ?H0x01300021_Respawner_10@CEnemySpawner@@QAEHABVCEntityEvent@@@Z 100a3a70 f   EnemySpawner.obj
 0001:000a2ad0       ?H0x01300022_Respawner_11@CEnemySpawner@@QAEHABVCEntityEvent@@@Z 100a3ad0 f   EnemySpawner.obj
 0001:000a2b70       ?H0x01300023_Respawner_12@CEnemySpawner@@QAEHABVCEntityEvent@@@Z 100a3b70 f   EnemySpawner.obj
 0001:000a2bd0       ?H0x01300024_Respawner_13@CEnemySpawner@@QAEHABVCEntityEvent@@@Z 100a3bd0 f   EnemySpawner.obj
 0001:000a2c30       ?H0x01300025_Respawner_14@CEnemySpawner@@QAEHABVCEntityEvent@@@Z 100a3c30 f   EnemySpawner.obj
 0001:000a2c90       ?H0x0130002e_Respawner_23@CEnemySpawner@@QAEHABVCEntityEvent@@@Z 100a3c90 f   EnemySpawner.obj
 0001:000a2d30       ?H0x01300027_Respawner_16@CEnemySpawner@@QAEHABVCEntityEvent@@@Z 100a3d30 f   EnemySpawner.obj
 0001:000a2db0       ?H0x01300028_Respawner_17@CEnemySpawner@@QAEHABVCEntityEvent@@@Z 100a3db0 f   EnemySpawner.obj
 0001:000a2e10       ?H0x01300029_Respawner_18@CEnemySpawner@@QAEHABVCEntityEvent@@@Z 100a3e10 f   EnemySpawner.obj
 0001:000a2e70       ?H0x0130002a_Respawner_19@CEnemySpawner@@QAEHABVCEntityEvent@@@Z 100a3e70 f   EnemySpawner.obj
 0001:000a2f10       ?H0x0130002b_Respawner_20@CEnemySpawner@@QAEHABVCEntityEvent@@@Z 100a3f10 f   EnemySpawner.obj
 0001:000a2f70       ?H0x0130002c_Respawner_21@CEnemySpawner@@QAEHABVCEntityEvent@@@Z 100a3f70 f   EnemySpawner.obj
 0001:000a2fd0       ?H0x0130002d_Respawner_22@CEnemySpawner@@QAEHABVCEntityEvent@@@Z 100a3fd0 f   EnemySpawner.obj
 0001:000a3060       ?H0x0130002f_Respawner_24@CEnemySpawner@@QAEHABVCEntityEvent@@@Z 100a4060 f   EnemySpawner.obj
 0001:000a30e0       ?H0x01300030_Respawner_25@CEnemySpawner@@QAEHABVCEntityEvent@@@Z 100a40e0 f   EnemySpawner.obj
 0001:000a3140       ?H0x01300032_Respawner_27@CEnemySpawner@@QAEHABVCEntityEvent@@@Z 100a4140 f   EnemySpawner.obj
 0001:000a3150       ?DestroyableInactive@CEnemySpawner@@QAEHABVCEntityEvent@@@Z 100a4150 f   EnemySpawner.obj
 0001:000a31c0       ?H0x01300034_DestroyableInactive_01@CEnemySpawner@@QAEHABVCEntityEvent@@@Z 100a41c0 f   EnemySpawner.obj
 0001:000a3200       ?H0x01300035_DestroyableInactive_02@CEnemySpawner@@QAEHABVCEntityEvent@@@Z 100a4200 f   EnemySpawner.obj
 0001:000a3260       ?DestroyableActiveSpawning@CEnemySpawner@@QAEHABVCEntityEvent@@@Z 100a4260 f   EnemySpawner.obj
 0001:000a32c0       ?H0x0130003b_DestroyableActiveSpawning_05@CEnemySpawner@@QAEHABVCEntityEvent@@@Z 100a42c0 f   EnemySpawner.obj
 0001:000a3320       ?H0x01300037_DestroyableActiveSpawning_01@CEnemySpawner@@QAEHABVCEntityEvent@@@Z 100a4320 f   EnemySpawner.obj
 0001:000a33c0       ?H0x01300038_DestroyableActiveSpawning_02@CEnemySpawner@@QAEHABVCEntityEvent@@@Z 100a43c0 f   EnemySpawner.obj
 0001:000a3430       ?H0x01300039_DestroyableActiveSpawning_03@CEnemySpawner@@QAEHABVCEntityEvent@@@Z 100a4430 f   EnemySpawner.obj
 0001:000a34b0       ?H0x0130003a_DestroyableActiveSpawning_04@CEnemySpawner@@QAEHABVCEntityEvent@@@Z 100a44b0 f   EnemySpawner.obj
 0001:000a3510       ?H0x0130003c_DestroyableActiveSpawning_06@CEnemySpawner@@QAEHABVCEntityEvent@@@Z 100a4510 f   EnemySpawner.obj
 0001:000a3520       ?DestroyableActive@CEnemySpawner@@QAEHABVCEntityEvent@@@Z 100a4520 f   EnemySpawner.obj
 0001:000a3580       ?H0x0130003e_DestroyableActive_01@CEnemySpawner@@QAEHABVCEntityEvent@@@Z 100a4580 f   EnemySpawner.obj
 0001:000a3620       ?H0x0130003f_DestroyableActive_02@CEnemySpawner@@QAEHABVCEntityEvent@@@Z 100a4620 f   EnemySpawner.obj
 0001:000a3680       ?Destroyable@CEnemySpawner@@QAEHABVCEntityEvent@@@Z 100a4680 f   EnemySpawner.obj
 0001:000a36e0       ?H0x01300041_Destroyable_01@CEnemySpawner@@QAEHABVCEntityEvent@@@Z 100a46e0 f   EnemySpawner.obj
 0001:000a3780       ?H0x01300042_Destroyable_02@CEnemySpawner@@QAEHABVCEntityEvent@@@Z 100a4780 f   EnemySpawner.obj
 0001:000a37e0       ?Main@CEnemySpawner@@QAEHABVCEntityEvent@@@Z 100a47e0 f   EnemySpawner.obj
 0001:000a39a0       ?H0x01300043_Main_01@CEnemySpawner@@QAEHABVCEntityEvent@@@Z 100a49a0 f   EnemySpawner.obj
 0001:000a3a20       ?H0x01300044_Main_02@CEnemySpawner@@QAEHABVCEntityEvent@@@Z 100a4a20 f   EnemySpawner.obj
 0001:000a3ba0       ?H0x01300045_Main_03@CEnemySpawner@@QAEHABVCEntityEvent@@@Z 100a4ba0 f   EnemySpawner.obj
 0001:000a3d30       ?H0x01300046_Main_04@CEnemySpawner@@QAEHABVCEntityEvent@@@Z 100a4d30 f   EnemySpawner.obj
 0001:000a3d90       ?GetName@CEnemySpawner@@UBEABVCTString@@XZ 100a4d90 f i EnemySpawner.obj
 0001:000a3da0       ?GetTarget@CEnemySpawner@@UBEPAVCEntity@@XZ 100a4da0 f i EnemySpawner.obj
 0001:000a3db0       ?IsTargetable@CEnemySpawner@@UBEHXZ 100a4db0 f i EnemySpawner.obj
 0001:000a3dc0       ??_ECEnemySpawner@@UAEPAXI@Z 100a4dc0 f i EnemySpawner.obj
 0001:000a3dc0       ??_GCEnemySpawner@@UAEPAXI@Z 100a4dc0 f i EnemySpawner.obj
 0001:000a3df0       ??1CEnemySpawner@@UAE@XZ   100a4df0 f i EnemySpawner.obj
 0001:000a4580       ?CEnvironmentBase_New@@YAPAVCEntity@@XZ 100a5580 f   EnvironmentBase.obj
 0001:000a46e0       ?CEnvironmentBase_OnInitClass@@YAXXZ 100a56e0 f   EnvironmentBase.obj
 0001:000a46f0       ?CEnvironmentBase_OnEndClass@@YAXXZ 100a56f0 f   EnvironmentBase.obj
 0001:000a4700       ?CEnvironmentBase_OnPrecache@@YAXPAVCDLLEntityClass@@J@Z 100a5700 f   EnvironmentBase.obj
 0001:000a4710       ?CEnvironmentBase_OnWorldEnd@@YAXPAVCWorld@@@Z 100a5710 f   EnvironmentBase.obj
 0001:000a4720       ?CEnvironmentBase_OnWorldInit@@YAXPAVCWorld@@@Z 100a5720 f   EnvironmentBase.obj
 0001:000a4730       ?CEnvironmentBase_OnWorldTick@@YAXPAVCWorld@@@Z 100a5730 f   EnvironmentBase.obj
 0001:000a4740       ?CEnvironmentBase_OnWorldRender@@YAXPAVCWorld@@@Z 100a5740 f   EnvironmentBase.obj
 0001:000a4810       ?SetDefaultProperties@CEnvironmentBase@@UAEXXZ 100a5810 f   EnvironmentBase.obj
 0001:000a4b50       ?MovesByTargetedRoute@CEnvironmentBase@@UBEHAAVCTString@@@Z 100a5b50 f   EnvironmentBase.obj
 0001:000a4b80       ?DropsMarker@CEnvironmentBase@@UBEHAAVCTFileName@@AAVCTString@@@Z 100a5b80 f   EnvironmentBase.obj
 0001:000a4c20       ?GetDescription@CEnvironmentBase@@UBEABVCTString@@XZ 100a5c20 f   EnvironmentBase.obj
 0001:000a4c60       ?GetAnimData@CEnvironmentBase@@UAEPAVCAnimData@@J@Z 100a5c60 f   EnvironmentBase.obj
 0001:000a4d40       ?NextMarker@CEnvironmentBase@@QAEHXZ 100a5d40 f   EnvironmentBase.obj
 0001:000a4df0       ?CalcRotation@CEnvironmentBase@@QAEXMAAV?$Vector@M$02@@@Z 100a5df0 f   EnvironmentBase.obj
 0001:000a4e90       ?StopMoving@CEnvironmentBase@@QAEXXZ 100a5e90 f   EnvironmentBase.obj
 0001:000a4ee0       ?MoveToPosition@CEnvironmentBase@@QAEXXZ 100a5ee0 f   EnvironmentBase.obj
 0001:000a5030       ?CalcDestination@CEnvironmentBase@@QAEXXZ 100a6030 f   EnvironmentBase.obj
 0001:000a50d0       ?MarkerParameters@CEnvironmentBase@@QAEXXZ 100a60d0 f   EnvironmentBase.obj
 0001:000a5120       ?Initialize@CEnvironmentBase@@QAEXXZ 100a6120 f   EnvironmentBase.obj
 0001:000a5450       ?InitializeWatcher@CEnvironmentBase@@QAEXM@Z 100a6450 f   EnvironmentBase.obj
 0001:000a5550       ?PlayDefaultAnim@CEnvironmentBase@@QAEXXZ 100a6550 f   EnvironmentBase.obj
 0001:000a5570       ?PlayMarkerAnimation@CEnvironmentBase@@QAEXXZ 100a6570 f   EnvironmentBase.obj
 0001:000a5590       ?ChangeDefaultAnim@CEnvironmentBase@@QAEXXZ 100a6590 f   EnvironmentBase.obj
 0001:000a55c0       ?WaitOnMarker@CEnvironmentBase@@QAEXXZ 100a65c0 f   EnvironmentBase.obj
 0001:000a5620       ?MoveToMarker@CEnvironmentBase@@QAEHABVCEntityEvent@@@Z 100a6620 f   EnvironmentBase.obj
 0001:000a56b0       ?H0x03840003_MoveToMarker_03@CEnvironmentBase@@QAEHABVCEntityEvent@@@Z 100a66b0 f   EnvironmentBase.obj
 0001:000a5790       ?H0x03840001_MoveToMarker_01@CEnvironmentBase@@QAEHABVCEntityEvent@@@Z 100a6790 f   EnvironmentBase.obj
 0001:000a5820       ?H0x03840002_MoveToMarker_02@CEnvironmentBase@@QAEHABVCEntityEvent@@@Z 100a6820 f   EnvironmentBase.obj
 0001:000a5880       ?H0x03840004_MoveToMarker_04@CEnvironmentBase@@QAEHABVCEntityEvent@@@Z 100a6880 f   EnvironmentBase.obj
 0001:000a58e0       ?H0x03840005_MoveToMarker_05@CEnvironmentBase@@QAEHABVCEntityEvent@@@Z 100a68e0 f   EnvironmentBase.obj
 0001:000a5940       ?Activate@CEnvironmentBase@@QAEHABVCEntityEvent@@@Z 100a6940 f   EnvironmentBase.obj
 0001:000a59b0       ?H0x03840007_Activate_01@CEnvironmentBase@@QAEHABVCEntityEvent@@@Z 100a69b0 f   EnvironmentBase.obj
 0001:000a5a60       ?H0x03840008_Activate_02@CEnvironmentBase@@QAEHABVCEntityEvent@@@Z 100a6a60 f   EnvironmentBase.obj
 0001:000a5a70       ?Stop@CEnvironmentBase@@QAEHABVCEntityEvent@@@Z 100a6a70 f   EnvironmentBase.obj
 0001:000a5ae0       ?H0x0384000a_Stop_01@CEnvironmentBase@@QAEHABVCEntityEvent@@@Z 100a6ae0 f   EnvironmentBase.obj
 0001:000a5b70       ?H0x0384000b_Stop_02@CEnvironmentBase@@QAEHABVCEntityEvent@@@Z 100a6b70 f   EnvironmentBase.obj
 0001:000a5b80       ?DoAction@CEnvironmentBase@@QAEHABVCEntityEvent@@@Z 100a6b80 f   EnvironmentBase.obj
 0001:000a5be0       ?H0x03840015_DoAction_09@CEnvironmentBase@@QAEHABVCEntityEvent@@@Z 100a6be0 f   EnvironmentBase.obj
 0001:000a5c90       ?H0x0384000d_DoAction_01@CEnvironmentBase@@QAEHABVCEntityEvent@@@Z 100a6c90 f   EnvironmentBase.obj
 0001:000a5d10       ?H0x0384000e_DoAction_02@CEnvironmentBase@@QAEHABVCEntityEvent@@@Z 100a6d10 f   EnvironmentBase.obj
 0001:000a5d70       ?H0x0384000f_DoAction_03@CEnvironmentBase@@QAEHABVCEntityEvent@@@Z 100a6d70 f   EnvironmentBase.obj
 0001:000a5de0       ?H0x03840010_DoAction_04@CEnvironmentBase@@QAEHABVCEntityEvent@@@Z 100a6de0 f   EnvironmentBase.obj
 0001:000a5e80       ?H0x03840011_DoAction_05@CEnvironmentBase@@QAEHABVCEntityEvent@@@Z 100a6e80 f   EnvironmentBase.obj
 0001:000a5f20       ?H0x03840012_DoAction_06@CEnvironmentBase@@QAEHABVCEntityEvent@@@Z 100a6f20 f   EnvironmentBase.obj
 0001:000a5fa0       ?H0x03840013_DoAction_07@CEnvironmentBase@@QAEHABVCEntityEvent@@@Z 100a6fa0 f   EnvironmentBase.obj
 0001:000a6000       ?H0x03840014_DoAction_08@CEnvironmentBase@@QAEHABVCEntityEvent@@@Z 100a7000 f   EnvironmentBase.obj
 0001:000a6060       ?H0x03840016_DoAction_10@CEnvironmentBase@@QAEHABVCEntityEvent@@@Z 100a7060 f   EnvironmentBase.obj
 0001:000a6070       ?MainLoop@CEnvironmentBase@@QAEHABVCEntityEvent@@@Z 100a7070 f   EnvironmentBase.obj
 0001:000a60d0       ?H0x03840018_MainLoop_01@CEnvironmentBase@@QAEHABVCEntityEvent@@@Z 100a70d0 f   EnvironmentBase.obj
 0001:000a6170       ?H0x03840019_MainLoop_02@CEnvironmentBase@@QAEHABVCEntityEvent@@@Z 100a7170 f   EnvironmentBase.obj
 0001:000a61f0       ?Main@CEnvironmentBase@@QAEHABVCEntityEvent@@@Z 100a71f0 f   EnvironmentBase.obj
 0001:000a6270       ?H0x0384001a_Main_01@CEnvironmentBase@@QAEHABVCEntityEvent@@@Z 100a7270 f   EnvironmentBase.obj
 0001:000a62f0       ?H0x0384001b_Main_02@CEnvironmentBase@@QAEHABVCEntityEvent@@@Z 100a72f0 f   EnvironmentBase.obj
 0001:000a6390       ?GetName@CEnvironmentBase@@UBEABVCTString@@XZ 100a7390 f i EnvironmentBase.obj
 0001:000a63a0       ?IsTargetable@CEnvironmentBase@@UBEHXZ 100a73a0 f i EnvironmentBase.obj
 0001:000a63b0       ??_GCEnvironmentBase@@UAEPAXI@Z 100a73b0 f i EnvironmentBase.obj
 0001:000a63b0       ??_ECEnvironmentBase@@UAEPAXI@Z 100a73b0 f i EnvironmentBase.obj
 0001:000a63e0       ??1CEnvironmentBase@@UAE@XZ 100a73e0 f i EnvironmentBase.obj
 0001:000a67b0       ?CEnvironmentMarker_New@@YAPAVCEntity@@XZ 100a77b0 f   EnvironmentMarker.obj
 0001:000a6890       ?CEnvironmentMarker_OnInitClass@@YAXXZ 100a7890 f   EnvironmentMarker.obj
 0001:000a68a0       ?CEnvironmentMarker_OnEndClass@@YAXXZ 100a78a0 f   EnvironmentMarker.obj
 0001:000a68b0       ?CEnvironmentMarker_OnPrecache@@YAXPAVCDLLEntityClass@@J@Z 100a78b0 f   EnvironmentMarker.obj
 0001:000a68c0       ?CEnvironmentMarker_OnWorldEnd@@YAXPAVCWorld@@@Z 100a78c0 f   EnvironmentMarker.obj
 0001:000a68d0       ?CEnvironmentMarker_OnWorldInit@@YAXPAVCWorld@@@Z 100a78d0 f   EnvironmentMarker.obj
 0001:000a68e0       ?CEnvironmentMarker_OnWorldTick@@YAXPAVCWorld@@@Z 100a78e0 f   EnvironmentMarker.obj
 0001:000a68f0       ?CEnvironmentMarker_OnWorldRender@@YAXPAVCWorld@@@Z 100a78f0 f   EnvironmentMarker.obj
 0001:000a6950       ?SetDefaultProperties@CEnvironmentMarker@@UAEXXZ 100a7950 f   EnvironmentMarker.obj
 0001:000a6a30       ?MovesByTargetedRoute@CEnvironmentMarker@@UBEHAAVCTString@@@Z 100a7a30 f   EnvironmentMarker.obj
 0001:000a6a60       ?DropsMarker@CEnvironmentMarker@@UBEHAAVCTFileName@@AAVCTString@@@Z 100a7a60 f   EnvironmentMarker.obj
 0001:000a6b00       ?GetAnimData@CEnvironmentMarker@@UAEPAVCAnimData@@J@Z 100a7b00 f   EnvironmentMarker.obj
 0001:000a6b30       ?SetModelObject@CEnvironmentMarker@@QAEXXZ 100a7b30 f   EnvironmentMarker.obj
 0001:000a6c00       ?Main@CEnvironmentMarker@@QAEHABVCEntityEvent@@@Z 100a7c00 f   EnvironmentMarker.obj
 0001:000a6c60       ??_GCEnvironmentMarker@@UAEPAXI@Z 100a7c60 f i EnvironmentMarker.obj
 0001:000a6c60       ??_ECEnvironmentMarker@@UAEPAXI@Z 100a7c60 f i EnvironmentMarker.obj
 0001:000a6c90       ??1CEnvironmentMarker@@UAE@XZ 100a7c90 f i EnvironmentMarker.obj
 0001:000a6d40       ??_GCMarker@@UAEPAXI@Z     100a7d40 f i EnvironmentMarker.obj
 0001:000a6d40       ??_ECMarker@@UAEPAXI@Z     100a7d40 f i EnvironmentMarker.obj
 0001:000a72e0       ?CEnvironmentParticlesHolder_New@@YAPAVCEntity@@XZ 100a82e0 f   EnvironmentParticlesHolder.obj
 0001:000a7410       ?CEnvironmentParticlesHolder_OnInitClass@@YAXXZ 100a8410 f   EnvironmentParticlesHolder.obj
 0001:000a7420       ?CEnvironmentParticlesHolder_OnEndClass@@YAXXZ 100a8420 f   EnvironmentParticlesHolder.obj
 0001:000a7430       ?CEnvironmentParticlesHolder_OnPrecache@@YAXPAVCDLLEntityClass@@J@Z 100a8430 f   EnvironmentParticlesHolder.obj
 0001:000a7440       ?CEnvironmentParticlesHolder_OnWorldEnd@@YAXPAVCWorld@@@Z 100a8440 f   EnvironmentParticlesHolder.obj
 0001:000a7450       ?CEnvironmentParticlesHolder_OnWorldInit@@YAXPAVCWorld@@@Z 100a8450 f   EnvironmentParticlesHolder.obj
 0001:000a7460       ?CEnvironmentParticlesHolder_OnWorldTick@@YAXPAVCWorld@@@Z 100a8460 f   EnvironmentParticlesHolder.obj
 0001:000a7470       ?CEnvironmentParticlesHolder_OnWorldRender@@YAXPAVCWorld@@@Z 100a8470 f   EnvironmentParticlesHolder.obj
 0001:000a7540       ?SetDefaultProperties@CEnvironmentParticlesHolder@@UAEXXZ 100a8540 f   EnvironmentParticlesHolder.obj
 0001:000a77a0       ?Precache@CEnvironmentParticlesHolder@@UAEXXZ 100a87a0 f   EnvironmentParticlesHolder.obj
 0001:000a77c0       ?IsTargetValid@CEnvironmentParticlesHolder@@UAEHJPAVCEntity@@@Z 100a87c0 f   EnvironmentParticlesHolder.obj
 0001:000a7800       ?GetRainFactor@CEnvironmentParticlesHolder@@QAEMXZ 100a8800 f   EnvironmentParticlesHolder.obj
 0001:000a78c0       ?GetSnowFactor@CEnvironmentParticlesHolder@@QAEMXZ 100a88c0 f   EnvironmentParticlesHolder.obj
 0001:000a7980       ?GetHeightMapData@CEnvironmentParticlesHolder@@QAEXAAPAVCTextureData@@AAV?$AABBox@M$02@@@Z 100a8980 f   EnvironmentParticlesHolder.obj
 0001:000a79f0       ?GetParticleTexture@CEnvironmentParticlesHolder@@QAEXXZ 100a89f0 f   EnvironmentParticlesHolder.obj
 0001:000a7a00       ?Main@CEnvironmentParticlesHolder@@QAEHABVCEntityEvent@@@Z 100a8a00 f   EnvironmentParticlesHolder.obj
 0001:000a7c70       ?H0x00ed0000_Main_01@CEnvironmentParticlesHolder@@QAEHABVCEntityEvent@@@Z 100a8c70 f   EnvironmentParticlesHolder.obj
 0001:000a7cf0       ?H0x00ed0001_Main_02@CEnvironmentParticlesHolder@@QAEHABVCEntityEvent@@@Z 100a8cf0 f   EnvironmentParticlesHolder.obj
 0001:000a7d50       ?IsTargetable@CEnvironmentParticlesHolder@@UBEHXZ 100a8d50 f i EnvironmentParticlesHolder.obj
 0001:000a7d60       ?GetName@CEnvironmentParticlesHolder@@UBEABVCTString@@XZ 100a8d60 f i EnvironmentParticlesHolder.obj
 0001:000a7d70       ?GetDescription@CEnvironmentParticlesHolder@@UBEABVCTString@@XZ 100a8d70 f i EnvironmentParticlesHolder.obj
 0001:000a7d80       ?IsImportant@CEnvironmentParticlesHolder@@UBEHXZ 100a8d80 f i EnvironmentParticlesHolder.obj
 0001:000a7d90       ??_ECEnvironmentParticlesHolder@@UAEPAXI@Z 100a8d90 f i EnvironmentParticlesHolder.obj
 0001:000a7d90       ??_GCEnvironmentParticlesHolder@@UAEPAXI@Z 100a8d90 f i EnvironmentParticlesHolder.obj
 0001:000a7dc0       ??1CEnvironmentParticlesHolder@@UAE@XZ 100a8dc0 f i EnvironmentParticlesHolder.obj
 0001:000a8290       ?CEruptor_New@@YAPAVCEntity@@XZ 100a9290 f   Eruptor.obj
 0001:000a8400       ?CEruptor_OnInitClass@@YAXXZ 100a9400 f   Eruptor.obj
 0001:000a8410       ?CEruptor_OnEndClass@@YAXXZ 100a9410 f   Eruptor.obj
 0001:000a8420       ?CEruptor_OnPrecache@@YAXPAVCDLLEntityClass@@J@Z 100a9420 f   Eruptor.obj
 0001:000a8430       ?CEruptor_OnWorldEnd@@YAXPAVCWorld@@@Z 100a9430 f   Eruptor.obj
 0001:000a8440       ?CEruptor_OnWorldInit@@YAXPAVCWorld@@@Z 100a9440 f   Eruptor.obj
 0001:000a8450       ?CEruptor_OnWorldTick@@YAXPAVCWorld@@@Z 100a9450 f   Eruptor.obj
 0001:000a8460       ?CEruptor_OnWorldRender@@YAXPAVCWorld@@@Z 100a9460 f   Eruptor.obj
 0001:000a84c0       ?SetDefaultProperties@CEruptor@@UAEXXZ 100a94c0 f   Eruptor.obj
 0001:000a8550       ?Precache@CEruptor@@UAEXXZ 100a9550 f   Eruptor.obj
 0001:000a8570       ?CalculateAngularLaunchParams@CEruptor@@QAEXPAVCMovableEntity@@V?$Vector@M$02@@11MAAM2@Z 100a9570 f   Eruptor.obj
 0001:000a8830       ?SpawnShoot@CEruptor@@QAEXPAVCEntity@@@Z 100a9830 f   Eruptor.obj
 0001:000a8a40       ?SpawnRandom@CEruptor@@QAEXXZ 100a9a40 f   Eruptor.obj
 0001:000a8b00       ?SpawnProjectile@CEruptor@@QAEXABVCPlacement3D@@M@Z 100a9b00 f   Eruptor.obj
 0001:000a8ce0       ?Active@CEruptor@@QAEHABVCEntityEvent@@@Z 100a9ce0 f   Eruptor.obj
 0001:000a8d50       ?H0x00d50001_Active_01@CEruptor@@QAEHABVCEntityEvent@@@Z 100a9d50 f   Eruptor.obj
 0001:000a8e00       ?H0x00d50002_Active_02@CEruptor@@QAEHABVCEntityEvent@@@Z 100a9e00 f   Eruptor.obj
 0001:000a8e10       ?Inactive@CEruptor@@QAEHABVCEntityEvent@@@Z 100a9e10 f   Eruptor.obj
 0001:000a8e80       ?H0x00d50004_Inactive_01@CEruptor@@QAEHABVCEntityEvent@@@Z 100a9e80 f   Eruptor.obj
 0001:000a8f10       ?H0x00d50005_Inactive_02@CEruptor@@QAEHABVCEntityEvent@@@Z 100a9f10 f   Eruptor.obj
 0001:000a8f20       ?AutoSpawns@CEruptor@@QAEHABVCEntityEvent@@@Z 100a9f20 f   Eruptor.obj
 0001:000a8f80       ?H0x00d5000c_AutoSpawns_06@CEruptor@@QAEHABVCEntityEvent@@@Z 100a9f80 f   Eruptor.obj
 0001:000a8ff0       ?H0x00d50007_AutoSpawns_01@CEruptor@@QAEHABVCEntityEvent@@@Z 100a9ff0 f   Eruptor.obj
 0001:000a9070       ?H0x00d50008_AutoSpawns_02@CEruptor@@QAEHABVCEntityEvent@@@Z 100aa070 f   Eruptor.obj
 0001:000a9110       ?H0x00d50009_AutoSpawns_03@CEruptor@@QAEHABVCEntityEvent@@@Z 100aa110 f   Eruptor.obj
 0001:000a9190       ?H0x00d5000a_AutoSpawns_04@CEruptor@@QAEHABVCEntityEvent@@@Z 100aa190 f   Eruptor.obj
 0001:000a91f0       ?H0x00d5000b_AutoSpawns_05@CEruptor@@QAEHABVCEntityEvent@@@Z 100aa1f0 f   Eruptor.obj
 0001:000a9250       ?H0x00d5000d_AutoSpawns_07@CEruptor@@QAEHABVCEntityEvent@@@Z 100aa250 f   Eruptor.obj
 0001:000a9260       ?MainLoop@CEruptor@@QAEHABVCEntityEvent@@@Z 100aa260 f   Eruptor.obj
 0001:000a92d0       ?H0x00d5000f_MainLoop_01@CEruptor@@QAEHABVCEntityEvent@@@Z 100aa2d0 f   Eruptor.obj
 0001:000a9350       ?H0x00d50010_MainLoop_02@CEruptor@@QAEHABVCEntityEvent@@@Z 100aa350 f   Eruptor.obj
 0001:000a93b0       ?Main@CEruptor@@QAEHABVCEntityEvent@@@Z 100aa3b0 f   Eruptor.obj
 0001:000a96a0       ?GetDescription@CModelHolder2@@UBEABVCTString@@XZ 100aa6a0 f i Eruptor.obj
 0001:000a96b0       ?GetName@CEruptor@@UBEABVCTString@@XZ 100aa6b0 f i Eruptor.obj
 0001:000a96c0       ?IsTargetable@CEruptor@@UBEHXZ 100aa6c0 f i Eruptor.obj
 0001:000a96d0       ??_GCEruptor@@UAEPAXI@Z    100aa6d0 f i Eruptor.obj
 0001:000a96d0       ??_ECEruptor@@UAEPAXI@Z    100aa6d0 f i Eruptor.obj
 0001:000a9700       ??1CEruptor@@UAE@XZ        100aa700 f i Eruptor.obj
 0001:000a9870       ??0EActivateBeam@@QAE@ABV0@@Z 100aa870 f i ExotechLarva.obj
 0001:000a98a0       ??4EActivateBeam@@QAEAAV0@ABV0@@Z 100aa8a0 f i ExotechLarva.obj
 0001:000a98c0       ??1EActivateBeam@@UAE@XZ   100aa8c0 f i ExotechLarva.obj
 0001:000a98d0       ??_GEActivateBeam@@UAEPAXI@Z 100aa8d0 f i ExotechLarva.obj
 0001:000a9900       ??_EEActivateBeam@@UAEPAXI@Z 100aa900 f i ExotechLarva.obj
 0001:000a9960       ?ClearToDefault@@YAXAAVEActivateBeam@@@Z 100aa960 f i ExotechLarva.obj
 0001:000a9990       ??0ELaunchLarvaOffspring@@QAE@ABV0@@Z 100aa990 f i ExotechLarva.obj
 0001:000a99c0       ??4ELaunchLarvaOffspring@@QAEAAV0@ABV0@@Z 100aa9c0 f i ExotechLarva.obj
 0001:000a9a00       ??1ELaunchLarvaOffspring@@UAE@XZ 100aaa00 f i ExotechLarva.obj
 0001:000a9a90       ??_GELaunchLarvaOffspring@@UAEPAXI@Z 100aaa90 f i ExotechLarva.obj
 0001:000a9ac0       ??_EELaunchLarvaOffspring@@UAEPAXI@Z 100aaac0 f i ExotechLarva.obj
 0001:000a9b20       ?ClearToDefault@@YAXAAVELaunchLarvaOffspring@@@Z 100aab20 f i ExotechLarva.obj
 0001:000a9bc0       ?GetPredictionPair@CLarvaOffspring@@UAEPAVCEntity@@XZ 100aabc0 f i ExotechLarva.obj
 0001:000a9bd0       ?SetPredictionPair@CLarvaOffspring@@UAEXPAVCEntity@@@Z 100aabd0 f i ExotechLarva.obj
 0001:000a9c10       ??0CLarvaOffspring@@QAE@XZ 100aac10 f i ExotechLarva.obj
 0001:000a9c80       ??0CLarvaOffspring@@QAE@ABV0@@Z 100aac80 f i ExotechLarva.obj
 0001:000a9e80       ??4CLarvaOffspring@@QAEAAV0@AAV0@@Z 100aae80 f i ExotechLarva.obj
 0001:000aa090       ??1CLarvaOffspring@@UAE@XZ 100ab090 f i ExotechLarva.obj
 0001:000aa140       ??_GCLarvaOffspring@@UAEPAXI@Z 100ab140 f i ExotechLarva.obj
 0001:000aa170       ??_ECLarvaOffspring@@UAEPAXI@Z 100ab170 f i ExotechLarva.obj
 0001:000aa1d0       ?ClearToDefault@@YAXAAW4LarvaTarget@@@Z 100ab1d0 f i ExotechLarva.obj
 0001:000aa1e0       ??0ELarvaArmDestroyed@@QAE@ABV0@@Z 100ab1e0 f i ExotechLarva.obj
 0001:000aa210       ??4ELarvaArmDestroyed@@QAEAAV0@ABV0@@Z 100ab210 f i ExotechLarva.obj
 0001:000aa230       ??1ELarvaArmDestroyed@@UAE@XZ 100ab230 f i ExotechLarva.obj
 0001:000aa240       ??_GELarvaArmDestroyed@@UAEPAXI@Z 100ab240 f i ExotechLarva.obj
 0001:000aa270       ??_EELarvaArmDestroyed@@UAEPAXI@Z 100ab270 f i ExotechLarva.obj
 0001:000aa2d0       ?ClearToDefault@@YAXAAVELarvaArmDestroyed@@@Z 100ab2d0 f i ExotechLarva.obj
 0001:000aa300       ??0ELarvaRechargePose@@QAE@ABV0@@Z 100ab300 f i ExotechLarva.obj
 0001:000aa330       ??4ELarvaRechargePose@@QAEAAV0@ABV0@@Z 100ab330 f i ExotechLarva.obj
 0001:000aa350       ??1ELarvaRechargePose@@UAE@XZ 100ab350 f i ExotechLarva.obj
 0001:000aa360       ??_GELarvaRechargePose@@UAEPAXI@Z 100ab360 f i ExotechLarva.obj
 0001:000aa390       ??_EELarvaRechargePose@@UAEPAXI@Z 100ab390 f i ExotechLarva.obj
 0001:000aa3f0       ?ClearToDefault@@YAXAAVELarvaRechargePose@@@Z 100ab3f0 f i ExotechLarva.obj
 0001:000ab160       ?CExotechLarva_New@@YAPAVCEntity@@XZ 100ac160 f   ExotechLarva.obj
 0001:000ab250       ?CExotechLarva_OnInitClass@@YAXXZ 100ac250 f   ExotechLarva.obj
 0001:000ab260       ?CExotechLarva_OnEndClass@@YAXXZ 100ac260 f   ExotechLarva.obj
 0001:000ab270       ?CExotechLarva_OnPrecache@@YAXPAVCDLLEntityClass@@J@Z 100ac270 f   ExotechLarva.obj
 0001:000ab280       ?CExotechLarva_OnWorldEnd@@YAXPAVCWorld@@@Z 100ac280 f   ExotechLarva.obj
 0001:000ab290       ?CExotechLarva_OnWorldInit@@YAXPAVCWorld@@@Z 100ac290 f   ExotechLarva.obj
 0001:000ab2a0       ?CExotechLarva_OnWorldTick@@YAXPAVCWorld@@@Z 100ac2a0 f   ExotechLarva.obj
 0001:000ab2b0       ?CExotechLarva_OnWorldRender@@YAXPAVCWorld@@@Z 100ac2b0 f   ExotechLarva.obj
 0001:000ab310       ?MakeCopy@ELarvaArmDestroyed@@UAEPAVCEntityEvent@@XZ 100ac310 f   ExotechLarva.obj
 0001:000ab350       ??0ELarvaArmDestroyed@@QAE@XZ 100ac350 f   ExotechLarva.obj
 0001:000ab370       ?MakeCopy@ELarvaRechargePose@@UAEPAVCEntityEvent@@XZ 100ac370 f   ExotechLarva.obj
 0001:000ab3b0       ??0ELarvaRechargePose@@QAE@XZ 100ac3b0 f   ExotechLarva.obj
 0001:000ab3d0       ?SetDefaultProperties@CExotechLarva@@UAEXXZ 100ac3d0 f   ExotechLarva.obj
 0001:000ab750       ?IsTargetValid@CExotechLarva@@UAEHJPAVCEntity@@@Z 100ac750 f   ExotechLarva.obj
 0001:000ab7b0       ?DoSafetyChecks@CExotechLarva@@QAEHXZ 100ac7b0 f   ExotechLarva.obj
 0001:000ab7f0       ?FindNewTarget@CExotechLarva@@QAEXXZ 100ac7f0 f   ExotechLarva.obj
 0001:000ab8d0       ?AnyPlayerCloserThen@CExotechLarva@@QAEHM@Z 100ac8d0 f   ExotechLarva.obj
 0001:000ab970       ?PerhapsChangeTarget@CExotechLarva@@QAEXXZ 100ac970 f   ExotechLarva.obj
 0001:000ab9d0       ?GetWSC@CExotechLarva@@QAEPAVCWorldSettingsController@@XZ 100ac9d0 f   ExotechLarva.obj
 0001:000ab9f0       ?ShakeItBaby@CExotechLarva@@QAEXMMH@Z 100ac9f0 f   ExotechLarva.obj
 0001:000aba90       ?ShootTailProjectile@CExotechLarva@@QAEXXZ 100aca90 f   ExotechLarva.obj
 0001:000abbe0       ?IsOnMarker@CExotechLarva@@QAEHPAVCEntity@@@Z 100acbe0 f   ExotechLarva.obj
 0001:000abc50       ?DistanceXZ@CExotechLarva@@QAEMPAVCEntity@@0@Z 100acc50 f   ExotechLarva.obj
 0001:000abcd0       ?SpawnWingDebris@CExotechLarva@@QAEXXZ 100accd0 f   ExotechLarva.obj
 0001:000abec0       ?ReceiveDamage@CExotechLarva@@UAEXPAVCEntity@@W4DamageType@@MABV?$Vector@M$02@@2@Z 100acec0 f   ExotechLarva.obj
 0001:000ac4d0       ?GetPlayerKillDescription@CExotechLarva@@UAE?AVCTString@@ABV2@ABVEDeath@@@Z 100ad4d0 f   ExotechLarva.obj
 0001:000ac570       ?GetEntityInfo@CExotechLarva@@UAEPAXXZ 100ad570 f   ExotechLarva.obj
 0001:000ac580       ?GetComputerMessageName@CExotechLarva@@UBEABVCTFileName@@XZ 100ad580 f   ExotechLarva.obj
 0001:000ac5d0       ?Precache@CExotechLarva@@UAEXXZ 100ad5d0 f   ExotechLarva.obj
 0001:000ac750       ?PlasmaLeftModel@CExotechLarva@@QAEPAVCModelObject@@XZ 100ad750 f   ExotechLarva.obj
 0001:000ac770       ?PlasmaRightModel@CExotechLarva@@QAEPAVCModelObject@@XZ 100ad770 f   ExotechLarva.obj
 0001:000ac790       ?RechargerActive@CExotechLarva@@QAEHXZ 100ad790 f   ExotechLarva.obj
 0001:000ac7b0       ?RemoveWing@CExotechLarva@@QAEXJ@Z 100ad7b0 f   ExotechLarva.obj
 0001:000ac7f0       ?GetArmsPitch@CExotechLarva@@QAEMXZ 100ad7f0 f   ExotechLarva.obj
 0001:000ac820       ?SetDesiredMovement@CExotechLarva@@UAEKXZ 100ad820 f   ExotechLarva.obj
 0001:000ac980       ?MoveToMarker@CExotechLarva@@QAEXPAVCEntity@@@Z 100ad980 f   ExotechLarva.obj
 0001:000aca80       ?PreMoving@CExotechLarva@@UAEXXZ 100ada80 f   ExotechLarva.obj
 0001:000acd20       ?RenderParticles@CExotechLarva@@UAEXXZ 100add20 f   ExotechLarva.obj
 0001:000acff0       ?SizeModel@CExotechLarva@@UAEXXZ 100adff0 f   ExotechLarva.obj
 0001:000ad000       ?UpdateFiringPos@CExotechLarva@@QAEXXZ 100ae000 f   ExotechLarva.obj
 0001:000ad1d0       ?BlowUp@CExotechLarva@@UAEXXZ 100ae1d0 f   ExotechLarva.obj
 0001:000ad1e0       ?EnemyPostInit@CExotechLarva@@UAEXXZ 100ae1e0 f   ExotechLarva.obj
 0001:000ad2a0       ?FireLaser@CExotechLarva@@QAEXXZ 100ae2a0 f   ExotechLarva.obj
 0001:000ad630       ?ExplodeLaser@CExotechLarva@@QAEXXZ 100ae630 f   ExotechLarva.obj
 0001:000ada80       ?BeWounded@CExotechLarva@@QAEHABVCEntityEvent@@@Z 100aea80 f   ExotechLarva.obj
 0001:000adae0       ?ArmExplosion@CExotechLarva@@QAEHABVCEntityEvent@@@Z 100aeae0 f   ExotechLarva.obj
 0001:000ae250       ?H0x015a0004_ArmExplosion_01@CExotechLarva@@QAEHABVCEntityEvent@@@Z 100af250 f   ExotechLarva.obj
 0001:000ae2d0       ?H0x015a0005_ArmExplosion_02@CExotechLarva@@QAEHABVCEntityEvent@@@Z 100af2d0 f   ExotechLarva.obj
 0001:000ae4a0       ?H0x015a0006_ArmExplosion_03@CExotechLarva@@QAEHABVCEntityEvent@@@Z 100af4a0 f   ExotechLarva.obj
 0001:000ae520       ?H0x015a0007_ArmExplosion_04@CExotechLarva@@QAEHABVCEntityEvent@@@Z 100af520 f   ExotechLarva.obj
 0001:000ae6c0       ?H0x015a0008_ArmExplosion_05@CExotechLarva@@QAEHABVCEntityEvent@@@Z 100af6c0 f   ExotechLarva.obj
 0001:000ae740       ?H0x015a0009_ArmExplosion_06@CExotechLarva@@QAEHABVCEntityEvent@@@Z 100af740 f   ExotechLarva.obj
 0001:000ae7d0       ?Die@CExotechLarva@@QAEHABVCEntityEvent@@@Z 100af7d0 f   ExotechLarva.obj
 0001:000ae8a0       ?H0x015a000d_Die_03@CExotechLarva@@QAEHABVCEntityEvent@@@Z 100af8a0 f   ExotechLarva.obj
 0001:000aeb10       ?H0x015a000b_Die_01@CExotechLarva@@QAEHABVCEntityEvent@@@Z 100afb10 f   ExotechLarva.obj
 0001:000aeb90       ?H0x015a000c_Die_02@CExotechLarva@@QAEHABVCEntityEvent@@@Z 100afb90 f   ExotechLarva.obj
 0001:000aebf0       ?H0x015a000e_Die_04@CExotechLarva@@QAEHABVCEntityEvent@@@Z 100afbf0 f   ExotechLarva.obj
 0001:000af500       ?Fire@CExotechLarva@@QAEHABVCEntityEvent@@@Z 100b0500 f   ExotechLarva.obj
 0001:000af640       ?H0x015a001a_Fire_11@CExotechLarva@@QAEHABVCEntityEvent@@@Z 100b0640 f   ExotechLarva.obj
 0001:000af750       ?H0x015a0010_Fire_01@CExotechLarva@@QAEHABVCEntityEvent@@@Z 100b0750 f   ExotechLarva.obj
 0001:000af7d0       ?H0x015a0011_Fire_02@CExotechLarva@@QAEHABVCEntityEvent@@@Z 100b07d0 f   ExotechLarva.obj
 0001:000af850       ?H0x015a0012_Fire_03@CExotechLarva@@QAEHABVCEntityEvent@@@Z 100b0850 f   ExotechLarva.obj
 0001:000af8d0       ?H0x015a0013_Fire_04@CExotechLarva@@QAEHABVCEntityEvent@@@Z 100b08d0 f   ExotechLarva.obj
 0001:000af990       ?H0x015a0014_Fire_05@CExotechLarva@@QAEHABVCEntityEvent@@@Z 100b0990 f   ExotechLarva.obj
 0001:000afa70       ?H0x015a0015_Fire_06@CExotechLarva@@QAEHABVCEntityEvent@@@Z 100b0a70 f   ExotechLarva.obj
 0001:000afaf0       ?H0x015a0016_Fire_07@CExotechLarva@@QAEHABVCEntityEvent@@@Z 100b0af0 f   ExotechLarva.obj
 0001:000afb70       ?H0x015a0017_Fire_08@CExotechLarva@@QAEHABVCEntityEvent@@@Z 100b0b70 f   ExotechLarva.obj
 0001:000afbf0       ?H0x015a0018_Fire_09@CExotechLarva@@QAEHABVCEntityEvent@@@Z 100b0bf0 f   ExotechLarva.obj
 0001:000afcb0       ?H0x015a0019_Fire_10@CExotechLarva@@QAEHABVCEntityEvent@@@Z 100b0cb0 f   ExotechLarva.obj
 0001:000afd10       ?H0x015a001b_Fire_12@CExotechLarva@@QAEHABVCEntityEvent@@@Z 100b0d10 f   ExotechLarva.obj
 0001:000afd70       ?H0x015a001d_Fire_14@CExotechLarva@@QAEHABVCEntityEvent@@@Z 100b0d70 f   ExotechLarva.obj
 0001:000afeb0       ?H0x015a001c_Fire_13@CExotechLarva@@QAEHABVCEntityEvent@@@Z 100b0eb0 f   ExotechLarva.obj
 0001:000aff10       ?Hit@CExotechLarva@@QAEHABVCEntityEvent@@@Z 100b0f10 f   ExotechLarva.obj
 0001:000aff70       ?BeIdle@CExotechLarva@@QAEHABVCEntityEvent@@@Z 100b0f70 f   ExotechLarva.obj
 0001:000affe0       ?H0x015a0020_BeIdle_01@CExotechLarva@@QAEHABVCEntityEvent@@@Z 100b0fe0 f   ExotechLarva.obj
 0001:000b0060       ?H0x015a0021_BeIdle_02@CExotechLarva@@QAEHABVCEntityEvent@@@Z 100b1060 f   ExotechLarva.obj
 0001:000b00c0       ?H0x015a0024_BeIdle_05@CExotechLarva@@QAEHABVCEntityEvent@@@Z 100b10c0 f   ExotechLarva.obj
 0001:000b0150       ?H0x015a0022_BeIdle_03@CExotechLarva@@QAEHABVCEntityEvent@@@Z 100b1150 f   ExotechLarva.obj
 0001:000b01d0       ?H0x015a0023_BeIdle_04@CExotechLarva@@QAEHABVCEntityEvent@@@Z 100b11d0 f   ExotechLarva.obj
 0001:000b0230       ?H0x015a0025_BeIdle_06@CExotechLarva@@QAEHABVCEntityEvent@@@Z 100b1230 f   ExotechLarva.obj
 0001:000b0240       ?LarvaLoop@CExotechLarva@@QAEHABVCEntityEvent@@@Z 100b1240 f   ExotechLarva.obj
 0001:000b0340       ?H0x015a0027_LarvaLoop_01@CExotechLarva@@QAEHABVCEntityEvent@@@Z 100b1340 f   ExotechLarva.obj
 0001:000b0a40       ?H0x015a0028_LarvaLoop_02@CExotechLarva@@QAEHABVCEntityEvent@@@Z 100b1a40 f   ExotechLarva.obj
 0001:000b0a50       ?Main@CExotechLarva@@QAEHABVCEntityEvent@@@Z 100b1a50 f   ExotechLarva.obj
 0001:000b0eb0       ?H0x015a0029_Main_01@CExotechLarva@@QAEHABVCEntityEvent@@@Z 100b1eb0 f   ExotechLarva.obj
 0001:000b0f30       ?H0x015a002a_Main_02@CExotechLarva@@QAEHABVCEntityEvent@@@Z 100b1f30 f   ExotechLarva.obj
 0001:000b0fe0       ?H0x015a002b_Main_03@CExotechLarva@@QAEHABVCEntityEvent@@@Z 100b1fe0 f   ExotechLarva.obj
 0001:000b1050       ?H0x015a002c_Main_04@CExotechLarva@@QAEHABVCEntityEvent@@@Z 100b2050 f   ExotechLarva.obj
 0001:000b10c0       ?H0x015a002f_Main_07@CExotechLarva@@QAEHABVCEntityEvent@@@Z 100b20c0 f   ExotechLarva.obj
 0001:000b11a0       ?H0x015a002d_Main_05@CExotechLarva@@QAEHABVCEntityEvent@@@Z 100b21a0 f   ExotechLarva.obj
 0001:000b1300       ?H0x015a002e_Main_06@CExotechLarva@@QAEHABVCEntityEvent@@@Z 100b2300 f   ExotechLarva.obj
 0001:000b1360       ?H0x015a0030_Main_08@CExotechLarva@@QAEHABVCEntityEvent@@@Z 100b2360 f   ExotechLarva.obj
 0001:000b13d0       ??_GCExotechLarva@@UAEPAXI@Z 100b23d0 f i ExotechLarva.obj
 0001:000b13d0       ??_ECExotechLarva@@UAEPAXI@Z 100b23d0 f i ExotechLarva.obj
 0001:000b1400       ??1CExotechLarva@@UAE@XZ   100b2400 f i ExotechLarva.obj
 0001:000b1a40       ?CExotechLarvaBattery_New@@YAPAVCEntity@@XZ 100b2a40 f   ExotechLarvaBattery.obj
 0001:000b1ae0       ?CExotechLarvaBattery_OnInitClass@@YAXXZ 100b2ae0 f   ExotechLarvaBattery.obj
 0001:000b1af0       ?CExotechLarvaBattery_OnEndClass@@YAXXZ 100b2af0 f   ExotechLarvaBattery.obj
 0001:000b1b00       ?CExotechLarvaBattery_OnPrecache@@YAXPAVCDLLEntityClass@@J@Z 100b2b00 f   ExotechLarvaBattery.obj
 0001:000b1b10       ?CExotechLarvaBattery_OnWorldEnd@@YAXPAVCWorld@@@Z 100b2b10 f   ExotechLarvaBattery.obj
 0001:000b1b20       ?CExotechLarvaBattery_OnWorldInit@@YAXPAVCWorld@@@Z 100b2b20 f   ExotechLarvaBattery.obj
 0001:000b1b30       ?CExotechLarvaBattery_OnWorldTick@@YAXPAVCWorld@@@Z 100b2b30 f   ExotechLarvaBattery.obj
 0001:000b1b40       ?CExotechLarvaBattery_OnWorldRender@@YAXPAVCWorld@@@Z 100b2b40 f   ExotechLarvaBattery.obj
 0001:000b1c10       ?SetDefaultProperties@CExotechLarvaBattery@@UAEXXZ 100b2c10 f   ExotechLarvaBattery.obj
 0001:000b1cf0       ?Precache@CExotechLarvaBattery@@UAEXXZ 100b2cf0 f   ExotechLarvaBattery.obj
 0001:000b1d50       ?AdjustShadingParameters@CExotechLarvaBattery@@UAEHAAV?$Vector@M$02@@AAK1@Z 100b2d50 f   ExotechLarvaBattery.obj
 0001:000b1de0       ?ReceiveDamage@CExotechLarvaBattery@@UAEXPAVCEntity@@W4DamageType@@MABV?$Vector@M$02@@2@Z 100b2de0 f   ExotechLarvaBattery.obj
 0001:000b2060       ?RenderParticles@CExotechLarvaBattery@@UAEXXZ 100b3060 f   ExotechLarvaBattery.obj
 0001:000b2160       ?SpawnExplosions@CExotechLarvaBattery@@QAEXXZ 100b3160 f   ExotechLarvaBattery.obj
 0001:000b2340       ?AddAttachments@CExotechLarvaBattery@@QAEXXZ 100b3340 f   ExotechLarvaBattery.obj
 0001:000b23c0       ?RemoveAttachment@CExotechLarvaBattery@@QAEXJ@Z 100b33c0 f   ExotechLarvaBattery.obj
 0001:000b23e0       ?Destroyed@CExotechLarvaBattery@@QAEHABVCEntityEvent@@@Z 100b33e0 f   ExotechLarvaBattery.obj
 0001:000b2480       ?H0x015f0003_Destroyed_03@CExotechLarvaBattery@@QAEHABVCEntityEvent@@@Z 100b3480 f   ExotechLarvaBattery.obj
 0001:000b24f0       ?H0x015f0001_Destroyed_01@CExotechLarvaBattery@@QAEHABVCEntityEvent@@@Z 100b34f0 f   ExotechLarvaBattery.obj
 0001:000b2570       ?H0x015f0002_Destroyed_02@CExotechLarvaBattery@@QAEHABVCEntityEvent@@@Z 100b3570 f   ExotechLarvaBattery.obj
 0001:000b25d0       ?H0x015f0004_Destroyed_04@CExotechLarvaBattery@@QAEHABVCEntityEvent@@@Z 100b35d0 f   ExotechLarvaBattery.obj
 0001:000b2630       ?Main@CExotechLarvaBattery@@QAEHABVCEntityEvent@@@Z 100b3630 f   ExotechLarvaBattery.obj
 0001:000b2720       ?H0x015f0005_Main_01@CExotechLarvaBattery@@QAEHABVCEntityEvent@@@Z 100b3720 f   ExotechLarvaBattery.obj
 0001:000b27a0       ?H0x015f0006_Main_02@CExotechLarvaBattery@@QAEHABVCEntityEvent@@@Z 100b37a0 f   ExotechLarvaBattery.obj
 0001:000b2850       ?H0x015f0007_Main_03@CExotechLarvaBattery@@QAEHABVCEntityEvent@@@Z 100b3850 f   ExotechLarvaBattery.obj
 0001:000b28d0       ?H0x015f0008_Main_04@CExotechLarvaBattery@@QAEHABVCEntityEvent@@@Z 100b38d0 f   ExotechLarvaBattery.obj
 0001:000b2930       ?GetName@CExotechLarvaBattery@@UBEABVCTString@@XZ 100b3930 f i ExotechLarvaBattery.obj
 0001:000b2940       ?IsTargetable@CExotechLarvaBattery@@UBEHXZ 100b3940 f i ExotechLarvaBattery.obj
 0001:000b2950       ??_ECExotechLarvaBattery@@UAEPAXI@Z 100b3950 f i ExotechLarvaBattery.obj
 0001:000b2950       ??_GCExotechLarvaBattery@@UAEPAXI@Z 100b3950 f i ExotechLarvaBattery.obj
 0001:000b2980       ??1CExotechLarvaBattery@@UAE@XZ 100b3980 f i ExotechLarvaBattery.obj
 0001:000b2ef0       ?CExotechLarvaCharger_New@@YAPAVCEntity@@XZ 100b3ef0 f   ExotechLarvaCharger.obj
 0001:000b2fb0       ?CExotechLarvaCharger_OnInitClass@@YAXXZ 100b3fb0 f   ExotechLarvaCharger.obj
 0001:000b2fc0       ?CExotechLarvaCharger_OnEndClass@@YAXXZ 100b3fc0 f   ExotechLarvaCharger.obj
 0001:000b2fd0       ?CExotechLarvaCharger_OnPrecache@@YAXPAVCDLLEntityClass@@J@Z 100b3fd0 f   ExotechLarvaCharger.obj
 0001:000b2fe0       ?CExotechLarvaCharger_OnWorldEnd@@YAXPAVCWorld@@@Z 100b3fe0 f   ExotechLarvaCharger.obj
 0001:000b2ff0       ?CExotechLarvaCharger_OnWorldInit@@YAXPAVCWorld@@@Z 100b3ff0 f   ExotechLarvaCharger.obj
 0001:000b3000       ?CExotechLarvaCharger_OnWorldTick@@YAXPAVCWorld@@@Z 100b4000 f   ExotechLarvaCharger.obj
 0001:000b3010       ?CExotechLarvaCharger_OnWorldRender@@YAXPAVCWorld@@@Z 100b4010 f   ExotechLarvaCharger.obj
 0001:000b30e0       ?MakeCopy@EActivateBeam@@UAEPAVCEntityEvent@@XZ 100b40e0 f   ExotechLarvaCharger.obj
 0001:000b3120       ??0EActivateBeam@@QAE@XZ   100b4120 f   ExotechLarvaCharger.obj
 0001:000b3140       ?SetDefaultProperties@CExotechLarvaCharger@@UAEXXZ 100b4140 f   ExotechLarvaCharger.obj
 0001:000b3290       ?IsTargetValid@CExotechLarvaCharger@@UAEHJPAVCEntity@@@Z 100b4290 f   ExotechLarvaCharger.obj
 0001:000b32f0       ?Precache@CExotechLarvaCharger@@UAEXXZ 100b42f0 f   ExotechLarvaCharger.obj
 0001:000b3350       ?AdjustShadingParameters@CExotechLarvaCharger@@UAEHAAV?$Vector@M$02@@AAK1@Z 100b4350 f   ExotechLarvaCharger.obj
 0001:000b33e0       ?UpdateOperationalState@CExotechLarvaCharger@@QAEXXZ 100b43e0 f   ExotechLarvaCharger.obj
 0001:000b34a0       ?ReceiveDamage@CExotechLarvaCharger@@UAEXPAVCEntity@@W4DamageType@@MABV?$Vector@M$02@@2@Z 100b44a0 f   ExotechLarvaCharger.obj
 0001:000b34b0       ?RenderParticles@CExotechLarvaCharger@@UAEXXZ 100b44b0 f   ExotechLarvaCharger.obj
 0001:000b35e0       ?ActivateBeam@CExotechLarvaCharger@@QAEHABVCEntityEvent@@@Z 100b45e0 f   ExotechLarvaCharger.obj
 0001:000b3690       ?DeactivateBeam@CExotechLarvaCharger@@QAEHABVCEntityEvent@@@Z 100b4690 f   ExotechLarvaCharger.obj
 0001:000b3700       ?Main@CExotechLarvaCharger@@QAEHABVCEntityEvent@@@Z 100b4700 f   ExotechLarvaCharger.obj
 0001:000b37e0       ?H0x015f0003_Main_01@CExotechLarvaCharger@@QAEHABVCEntityEvent@@@Z 100b47e0 f   ExotechLarvaCharger.obj
 0001:000b3860       ?H0x015f0004_Main_02@CExotechLarvaCharger@@QAEHABVCEntityEvent@@@Z 100b4860 f   ExotechLarvaCharger.obj
 0001:000b3910       ?H0x015f0005_Main_03@CExotechLarvaCharger@@QAEHABVCEntityEvent@@@Z 100b4910 f   ExotechLarvaCharger.obj
 0001:000b3980       ?H0x015f0006_Main_04@CExotechLarvaCharger@@QAEHABVCEntityEvent@@@Z 100b4980 f   ExotechLarvaCharger.obj
 0001:000b3a50       ?H0x015f0009_Main_07@CExotechLarvaCharger@@QAEHABVCEntityEvent@@@Z 100b4a50 f   ExotechLarvaCharger.obj
 0001:000b3ac0       ?H0x015f0007_Main_05@CExotechLarvaCharger@@QAEHABVCEntityEvent@@@Z 100b4ac0 f   ExotechLarvaCharger.obj
 0001:000b3bd0       ?H0x015f0008_Main_06@CExotechLarvaCharger@@QAEHABVCEntityEvent@@@Z 100b4bd0 f   ExotechLarvaCharger.obj
 0001:000b3c30       ?H0x015f000a_Main_08@CExotechLarvaCharger@@QAEHABVCEntityEvent@@@Z 100b4c30 f   ExotechLarvaCharger.obj
 0001:000b3c90       ?GetName@CExotechLarvaCharger@@UBEABVCTString@@XZ 100b4c90 f i ExotechLarvaCharger.obj
 0001:000b3ca0       ?IsTargetable@CExotechLarvaCharger@@UBEHXZ 100b4ca0 f i ExotechLarvaCharger.obj
 0001:000b3cb0       ??_GCExotechLarvaCharger@@UAEPAXI@Z 100b4cb0 f i ExotechLarvaCharger.obj
 0001:000b3cb0       ??_ECExotechLarvaCharger@@UAEPAXI@Z 100b4cb0 f i ExotechLarvaCharger.obj
 0001:000b3ce0       ??1CExotechLarvaCharger@@UAE@XZ 100b4ce0 f i ExotechLarvaCharger.obj
 0001:000b3e50       ?ClearToDefault@@YAXAAW4EyemanChar@@@Z 100b4e50 f i Eyeman.obj
 0001:000b3e60       ?ClearToDefault@@YAXAAW4EyemanEnv@@@Z 100b4e60 f i Eyeman.obj
 0001:000b4130       ?CEyeman_New@@YAPAVCEntity@@XZ 100b5130 f   Eyeman.obj
 0001:000b41a0       ?CEyeman_OnInitClass@@YAXXZ 100b51a0 f   Eyeman.obj
 0001:000b41b0       ?CEyeman_OnEndClass@@YAXXZ 100b51b0 f   Eyeman.obj
 0001:000b41c0       ?CEyeman_OnPrecache@@YAXPAVCDLLEntityClass@@J@Z 100b51c0 f   Eyeman.obj
 0001:000b41d0       ?CEyeman_OnWorldEnd@@YAXPAVCWorld@@@Z 100b51d0 f   Eyeman.obj
 0001:000b41e0       ?CEyeman_OnWorldInit@@YAXPAVCWorld@@@Z 100b51e0 f   Eyeman.obj
 0001:000b41f0       ?CEyeman_OnWorldTick@@YAXPAVCWorld@@@Z 100b51f0 f   Eyeman.obj
 0001:000b4200       ?CEyeman_OnWorldRender@@YAXPAVCWorld@@@Z 100b5200 f   Eyeman.obj
 0001:000b4260       ?SetDefaultProperties@CEyeman@@UAEXXZ 100b5260 f   Eyeman.obj
 0001:000b42a0       ?GetPlayerKillDescription@CEyeman@@UAE?AVCTString@@ABV2@ABVEDeath@@@Z 100b52a0 f   Eyeman.obj
 0001:000b4350       ?Precache@CEyeman@@UAEXXZ  100b5350 f   Eyeman.obj
 0001:000b43b0       ?GetEntityInfo@CEyeman@@UAEPAXXZ 100b53b0 f   Eyeman.obj
 0001:000b43d0       ?ReceiveDamage@CEyeman@@UAEXPAVCEntity@@W4DamageType@@MABV?$Vector@M$02@@2@Z 100b53d0 f   Eyeman.obj
 0001:000b4430       ?FillEntityStatistics@CEyeman@@UAEHPAUEntityStats@@@Z 100b5430 f   Eyeman.obj
 0001:000b4530       ?GetComputerMessageName@CEyeman@@UBEABVCTFileName@@XZ 100b5530 f   Eyeman.obj
 0001:000b45e0       ?AdjustShadingParameters@CEyeman@@UAEHAAV?$Vector@M$02@@AAK1@Z 100b55e0 f   Eyeman.obj
 0001:000b4620       ?AnimForDamage@CEyeman@@UAEJM@Z 100b5620 f   Eyeman.obj
 0001:000b4710       ?AnimForDeath@CEyeman@@UAEJXZ 100b5710 f   Eyeman.obj
 0001:000b47a0       ?WaitForDust@CEyeman@@UAEMAAV?$Vector@M$02@@@Z 100b57a0 f   Eyeman.obj
 0001:000b48f0       ?DeathNotify@CEyeman@@UAEXXZ 100b58f0 f   Eyeman.obj
 0001:000b4910       ?ActivateMumblingSound@CEyeman@@QAEXXZ 100b5910 f   Eyeman.obj
 0001:000b4940       ?DeactivateMumblingSound@CEyeman@@QAEXXZ 100b5940 f   Eyeman.obj
 0001:000b4960       ?StandingAnim@CEyeman@@UAEXXZ 100b5960 f   Eyeman.obj
 0001:000b4990       ?WalkingAnim@CEyeman@@UAEXXZ 100b5990 f   Eyeman.obj
 0001:000b49c0       ?RunningAnim@CEyeman@@UAEXXZ 100b59c0 f   Eyeman.obj
 0001:000b49f0       ?RotatingAnim@CEyeman@@UAEXXZ 100b59f0 f   Eyeman.obj
 0001:000b4a10       ?AirToGroundAnim@CEyeman@@UAEMXZ 100b5a10 f   Eyeman.obj
 0001:000b4a30       ?GroundToAirAnim@CEyeman@@UAEMXZ 100b5a30 f   Eyeman.obj
 0001:000b4a50       ?ChangeCollisionToAir@CEyeman@@UAEXXZ 100b5a50 f   Eyeman.obj
 0001:000b4a60       ?ChangeCollisionToGround@CEyeman@@UAEXXZ 100b5a60 f   Eyeman.obj
 0001:000b4a70       ?IdleSound@CEyeman@@UAEXXZ 100b5a70 f   Eyeman.obj
 0001:000b4a90       ?SightSound@CEyeman@@UAEXXZ 100b5a90 f   Eyeman.obj
 0001:000b4ab0       ?WoundSound@CEyeman@@UAEXXZ 100b5ab0 f   Eyeman.obj
 0001:000b4ad0       ?DeathSound@CEyeman@@UAEXXZ 100b5ad0 f   Eyeman.obj
 0001:000b4af0       ?MayMoveToAttack@CEyeman@@UAEHXZ 100b5af0 f   Eyeman.obj
 0001:000b4b10       ?CanHitEnemy@CEyeman@@UAEHPAVCEntity@@M@Z 100b5b10 f   Eyeman.obj
 0001:000b4b40       ?FlyHit@CEyeman@@QAEHABVCEntityEvent@@@Z 100b5b40 f   Eyeman.obj
 0001:000b4c30       ?H0x01430001_FlyHit_01@CEyeman@@QAEHABVCEntityEvent@@@Z 100b5c30 f   Eyeman.obj
 0001:000b4cb0       ?H0x01430002_FlyHit_02@CEyeman@@QAEHABVCEntityEvent@@@Z 100b5cb0 f   Eyeman.obj
 0001:000b4f70       ?H0x01430003_FlyHit_03@CEyeman@@QAEHABVCEntityEvent@@@Z 100b5f70 f   Eyeman.obj
 0001:000b4ff0       ?H0x01430004_FlyHit_04@CEyeman@@QAEHABVCEntityEvent@@@Z 100b5ff0 f   Eyeman.obj
 0001:000b5050       ?GroundHit@CEyeman@@QAEHABVCEntityEvent@@@Z 100b6050 f   Eyeman.obj
 0001:000b5120       ?H0x01430006_GroundHit_01@CEyeman@@QAEHABVCEntityEvent@@@Z 100b6120 f   Eyeman.obj
 0001:000b51a0       ?H0x01430007_GroundHit_02@CEyeman@@QAEHABVCEntityEvent@@@Z 100b61a0 f   Eyeman.obj
 0001:000b5320       ?H0x01430008_GroundHit_03@CEyeman@@QAEHABVCEntityEvent@@@Z 100b6320 f   Eyeman.obj
 0001:000b53a0       ?H0x01430009_GroundHit_04@CEyeman@@QAEHABVCEntityEvent@@@Z 100b63a0 f   Eyeman.obj
 0001:000b5520       ?H0x0143000a_GroundHit_05@CEyeman@@QAEHABVCEntityEvent@@@Z 100b6520 f   Eyeman.obj
 0001:000b55a0       ?H0x0143000b_GroundHit_06@CEyeman@@QAEHABVCEntityEvent@@@Z 100b65a0 f   Eyeman.obj
 0001:000b5600       ?Main@CEyeman@@QAEHABVCEntityEvent@@@Z 100b6600 f   Eyeman.obj
 0001:000b5a90       ??_ECEyeman@@UAEPAXI@Z     100b6a90 f i Eyeman.obj
 0001:000b5a90       ??_GCEyeman@@UAEPAXI@Z     100b6a90 f i Eyeman.obj
 0001:000b5ac0       ??1CEyeman@@UAE@XZ         100b6ac0 f i Eyeman.obj
 0001:000b5e50       ?CFireworks_New@@YAPAVCEntity@@XZ 100b6e50 f   Fireworks.obj
 0001:000b5ef0       ?CFireworks_OnInitClass@@YAXXZ 100b6ef0 f   Fireworks.obj
 0001:000b5f00       ?CFireworks_OnEndClass@@YAXXZ 100b6f00 f   Fireworks.obj
 0001:000b5f10       ?CFireworks_OnPrecache@@YAXPAVCDLLEntityClass@@J@Z 100b6f10 f   Fireworks.obj
 0001:000b5f20       ?CFireworks_OnWorldEnd@@YAXPAVCWorld@@@Z 100b6f20 f   Fireworks.obj
 0001:000b5f30       ?CFireworks_OnWorldInit@@YAXPAVCWorld@@@Z 100b6f30 f   Fireworks.obj
 0001:000b5f40       ?CFireworks_OnWorldTick@@YAXPAVCWorld@@@Z 100b6f40 f   Fireworks.obj
 0001:000b5f50       ?CFireworks_OnWorldRender@@YAXPAVCWorld@@@Z 100b6f50 f   Fireworks.obj
 0001:000b6020       ?SetDefaultProperties@CFireworks@@UAEXXZ 100b7020 f   Fireworks.obj
 0001:000b60a0       ?Read_t@CFireworks@@UAEXPAVCTStream@@@Z 100b70a0 f   Fireworks.obj
 0001:000b60d0       ?Write_t@CFireworks@@UAEXPAVCTStream@@@Z 100b70d0 f   Fireworks.obj
 0001:000b6100       ?RenderParticles@CFireworks@@UAEXXZ 100b7100 f   Fireworks.obj
 0001:000b6360       ?SpawnFireworks@CFireworks@@QAEHABVCEntityEvent@@@Z 100b7360 f   Fireworks.obj
 0001:000b63f0       ?H0x02680001_SpawnFireworks_01@CFireworks@@QAEHABVCEntityEvent@@@Z 100b73f0 f   Fireworks.obj
 0001:000b6470       ?H0x02680002_SpawnFireworks_02@CFireworks@@QAEHABVCEntityEvent@@@Z 100b7470 f   Fireworks.obj
 0001:000b67e0       ?Main@CFireworks@@QAEHABVCEntityEvent@@@Z 100b77e0 f   Fireworks.obj
 0001:000b68a0       ?H0x02680003_Main_01@CFireworks@@QAEHABVCEntityEvent@@@Z 100b78a0 f   Fireworks.obj
 0001:000b6920       ?H0x02680004_Main_02@CFireworks@@QAEHABVCEntityEvent@@@Z 100b7920 f   Fireworks.obj
 0001:000b69a0       ?H0x02680005_Main_03@CFireworks@@QAEHABVCEntityEvent@@@Z 100b79a0 f   Fireworks.obj
 0001:000b6a10       ?H0x02680006_Main_04@CFireworks@@QAEHABVCEntityEvent@@@Z 100b7a10 f   Fireworks.obj
 0001:000b6a70       ?IsTargetable@CFireworks@@UBEHXZ 100b7a70 f i Fireworks.obj
 0001:000b6a80       ?GetName@CFireworks@@UBEABVCTString@@XZ 100b7a80 f i Fireworks.obj
 0001:000b6a90       ??_ECFireworks@@UAEPAXI@Z  100b7a90 f i Fireworks.obj
 0001:000b6a90       ??_GCFireworks@@UAEPAXI@Z  100b7a90 f i Fireworks.obj
 0001:000b6ac0       ??1CFireworks@@UAE@XZ      100b7ac0 f i Fireworks.obj
 0001:000b6db0       ?CFish_New@@YAPAVCEntity@@XZ 100b7db0 f   Fish.obj
 0001:000b6e10       ?CFish_OnInitClass@@YAXXZ  100b7e10 f   Fish.obj
 0001:000b6e20       ?CFish_OnEndClass@@YAXXZ   100b7e20 f   Fish.obj
 0001:000b6e30       ?CFish_OnPrecache@@YAXPAVCDLLEntityClass@@J@Z 100b7e30 f   Fish.obj
 0001:000b6e40       ?CFish_OnWorldEnd@@YAXPAVCWorld@@@Z 100b7e40 f   Fish.obj
 0001:000b6e50       ?CFish_OnWorldInit@@YAXPAVCWorld@@@Z 100b7e50 f   Fish.obj
 0001:000b6e60       ?CFish_OnWorldTick@@YAXPAVCWorld@@@Z 100b7e60 f   Fish.obj
 0001:000b6e70       ?CFish_OnWorldRender@@YAXPAVCWorld@@@Z 100b7e70 f   Fish.obj
 0001:000b6ed0       ?SetDefaultProperties@CFish@@UAEXXZ 100b7ed0 f   Fish.obj
 0001:000b6ef0       ?GetPlayerKillDescription@CFish@@UAE?AVCTString@@ABV2@ABVEDeath@@@Z 100b7ef0 f   Fish.obj
 0001:000b6f90       ?GetComputerMessageName@CFish@@UBEABVCTFileName@@XZ 100b7f90 f   Fish.obj
 0001:000b6fe0       ?Precache@CFish@@UAEXXZ    100b7fe0 f   Fish.obj
 0001:000b7050       ?GetEntityInfo@CFish@@UAEPAXXZ 100b8050 f   Fish.obj
 0001:000b7060       ?ReceiveDamage@CFish@@UAEXPAVCEntity@@W4DamageType@@MABV?$Vector@M$02@@2@Z 100b8060 f   Fish.obj
 0001:000b70b0       ?AnimForDamage@CFish@@UAEJM@Z 100b80b0 f   Fish.obj
 0001:000b70d0       ?AnimForDeath@CFish@@UAEJXZ 100b80d0 f   Fish.obj
 0001:000b7150       ?DeathNotify@CFish@@UAEXXZ 100b8150 f   Fish.obj
 0001:000b7170       ?RenderParticles@CFish@@UAEXXZ 100b8170 f   Fish.obj
 0001:000b72a0       ?StandingAnim@CFish@@UAEXXZ 100b82a0 f   Fish.obj
 0001:000b72b0       ?WalkingAnim@CFish@@UAEXXZ 100b82b0 f   Fish.obj
 0001:000b72d0       ?RunningAnim@CFish@@UAEXXZ 100b82d0 f   Fish.obj
 0001:000b72e0       ?RotatingAnim@CFish@@UAEXXZ 100b82e0 f   Fish.obj
 0001:000b72f0       ?IdleSound@CFish@@UAEXXZ   100b82f0 f   Fish.obj
 0001:000b7310       ?SightSound@CFish@@UAEXXZ  100b8310 f   Fish.obj
 0001:000b7330       ?WoundSound@CFish@@UAEXXZ  100b8330 f   Fish.obj
 0001:000b7370       ?DeathSound@CFish@@UAEXXZ  100b8370 f   Fish.obj
 0001:000b73b0       ?AdjustShadingParameters@CFish@@UAEHAAV?$Vector@M$02@@AAK1@Z 100b83b0 f   Fish.obj
 0001:000b7520       ?DiveHit@CFish@@QAEHABVCEntityEvent@@@Z 100b8520 f   Fish.obj
 0001:000b75e0       ?H0x01510001_DiveHit_01@CFish@@QAEHABVCEntityEvent@@@Z 100b85e0 f   Fish.obj
 0001:000b7660       ?H0x01510002_DiveHit_02@CFish@@QAEHABVCEntityEvent@@@Z 100b8660 f   Fish.obj
 0001:000b7810       ?H0x01510003_DiveHit_03@CFish@@QAEHABVCEntityEvent@@@Z 100b8810 f   Fish.obj
 0001:000b7890       ?H0x01510004_DiveHit_04@CFish@@QAEHABVCEntityEvent@@@Z 100b8890 f   Fish.obj
 0001:000b7930       ?H0x01510005_DiveHit_05@CFish@@QAEHABVCEntityEvent@@@Z 100b8930 f   Fish.obj
 0001:000b79b0       ?H0x01510006_DiveHit_06@CFish@@QAEHABVCEntityEvent@@@Z 100b89b0 f   Fish.obj
 0001:000b7a10       ?Hit@CFish@@QAEHABVCEntityEvent@@@Z 100b8a10 f   Fish.obj
 0001:000b7a70       ?Main@CFish@@QAEHABVCEntityEvent@@@Z 100b8a70 f   Fish.obj
 0001:000b7c80       ??_GCFish@@UAEPAXI@Z       100b8c80 f i Fish.obj
 0001:000b7c80       ??_ECFish@@UAEPAXI@Z       100b8c80 f i Fish.obj
 0001:000b7cb0       ??1CFish@@UAE@XZ           100b8cb0 f i Fish.obj
 0001:000b83c0       ?CFlame_New@@YAPAVCEntity@@XZ 100b93c0 f   Flame.obj
 0001:000b8470       ?CFlame_OnInitClass@@YAXXZ 100b9470 f   Flame.obj
 0001:000b8480       ?CFlame_OnEndClass@@YAXXZ  100b9480 f   Flame.obj
 0001:000b8490       ?CFlame_OnWorldEnd@@YAXPAVCWorld@@@Z 100b9490 f   Flame.obj
 0001:000b84a0       ?CFlame_OnWorldInit@@YAXPAVCWorld@@@Z 100b94a0 f   Flame.obj
 0001:000b84b0       ?CFlame_OnWorldTick@@YAXPAVCWorld@@@Z 100b94b0 f   Flame.obj
 0001:000b84c0       ?CFlame_OnWorldRender@@YAXPAVCWorld@@@Z 100b94c0 f   Flame.obj
 0001:000b8590       ?MakeCopy@EFlame@@UAEPAVCEntityEvent@@XZ 100b9590 f   Flame.obj
 0001:000b85e0       ??0EFlame@@QAE@XZ          100b95e0 f   Flame.obj
 0001:000b8670       ?MakeCopy@EStopFlaming@@UAEPAVCEntityEvent@@XZ 100b9670 f   Flame.obj
 0001:000b86b0       ??0EStopFlaming@@QAE@XZ    100b96b0 f   Flame.obj
 0001:000b86d0       ?CFlame_OnPrecache@@YAXPAVCDLLEntityClass@@J@Z 100b96d0 f   Flame.obj
 0001:000b8710       ?SetDefaultProperties@CFlame@@UAEXXZ 100b9710 f   Flame.obj
 0001:000b88f0       ?AddDependentsToPrediction@CFlame@@UAEXXZ 100b98f0 f   Flame.obj
 0001:000b8900       ?PostMoving@CFlame@@UAEXXZ 100b9900 f   Flame.obj
 0001:000b89a0       ?Read_t@CFlame@@UAEXPAVCTStream@@@Z 100b99a0 f   Flame.obj
 0001:000b89c0       ?IsPointInsidePolygon@CFlame@@QAEHABV?$Vector@M$02@@PAVCBrushPolygon@@@Z 100b99c0 f   Flame.obj
 0001:000b8b40       ?GetLightSource@CFlame@@UAEPAVCLightSource@@XZ 100b9b40 f   Flame.obj
 0001:000b8b60       ?RenderParticles@CFlame@@UAEXXZ 100b9b60 f   Flame.obj
 0001:000b8d60       ?SetupLightSource@CFlame@@QAEXXZ 100b9d60 f   Flame.obj
 0001:000b8e50       ?Main@CFlame@@QAEHABVCEntityEvent@@@Z 100b9e50 f   Flame.obj
 0001:000b95a0       ?H0x01f80004_Main_03@CFlame@@QAEHABVCEntityEvent@@@Z 100ba5a0 f   Flame.obj
 0001:000b9630       ?H0x01f80002_Main_01@CFlame@@QAEHABVCEntityEvent@@@Z 100ba630 f   Flame.obj
 0001:000b98d0       ?H0x01f80003_Main_02@CFlame@@QAEHABVCEntityEvent@@@Z 100ba8d0 f   Flame.obj
 0001:000b9960       ?H0x01f80005_Main_04@CFlame@@QAEHABVCEntityEvent@@@Z 100ba960 f   Flame.obj
 0001:000b99c0       ?GetPredictionPair@CFlame@@UAEPAVCEntity@@XZ 100ba9c0 f i Flame.obj
 0001:000b99d0       ?SetPredictionPair@CFlame@@UAEXPAVCEntity@@@Z 100ba9d0 f i Flame.obj
 0001:000b9a10       ??_GCFlame@@UAEPAXI@Z      100baa10 f i Flame.obj
 0001:000b9a10       ??_ECFlame@@UAEPAXI@Z      100baa10 f i Flame.obj
 0001:000b9a40       ??1CFlame@@UAE@XZ          100baa40 f i Flame.obj
 0001:000b9b00       ?GetMaxNormal@?$Plane@M$02@@QBEJXZ 100bab00 f i Flame.obj
 0001:000b9f50       ?CFogMarker_New@@YAPAVCEntity@@XZ 100baf50 f   FogMarker.obj
 0001:000b9ff0       ?CFogMarker_OnInitClass@@YAXXZ 100baff0 f   FogMarker.obj
 0001:000ba000       ?CFogMarker_OnEndClass@@YAXXZ 100bb000 f   FogMarker.obj
 0001:000ba010       ?CFogMarker_OnPrecache@@YAXPAVCDLLEntityClass@@J@Z 100bb010 f   FogMarker.obj
 0001:000ba020       ?CFogMarker_OnWorldEnd@@YAXPAVCWorld@@@Z 100bb020 f   FogMarker.obj
 0001:000ba030       ?CFogMarker_OnWorldInit@@YAXPAVCWorld@@@Z 100bb030 f   FogMarker.obj
 0001:000ba040       ?CFogMarker_OnWorldTick@@YAXPAVCWorld@@@Z 100bb040 f   FogMarker.obj
 0001:000ba050       ?CFogMarker_OnWorldRender@@YAXPAVCWorld@@@Z 100bb050 f   FogMarker.obj
 0001:000ba0b0       ?SetDefaultProperties@CFogMarker@@UAEXXZ 100bb0b0 f   FogMarker.obj
 0001:000ba150       ?GetFogName@CFogMarker@@QAEABVCTString@@XZ 100bb150 f   FogMarker.obj
 0001:000ba160       ?GetFog@CFogMarker@@QAEXAAVCFogParameters@@@Z 100bb160 f   FogMarker.obj
 0001:000ba200       ?Main@CFogMarker@@QAEHABVCEntityEvent@@@Z 100bb200 f   FogMarker.obj
 0001:000ba480       ?IsImportant@CFogMarker@@UBEHXZ 100bb480 f i FogMarker.obj
 0001:000ba490       ??_GCFogMarker@@UAEPAXI@Z  100bb490 f i FogMarker.obj
 0001:000ba490       ??_ECFogMarker@@UAEPAXI@Z  100bb490 f i FogMarker.obj
 0001:000ba4c0       ??1CFogMarker@@UAE@XZ      100bb4c0 f i FogMarker.obj
 0001:000ba6c0       ?CGizmo_New@@YAPAVCEntity@@XZ 100bb6c0 f   Gizmo.obj
 0001:000ba720       ?CGizmo_OnInitClass@@YAXXZ 100bb720 f   Gizmo.obj
 0001:000ba730       ?CGizmo_OnEndClass@@YAXXZ  100bb730 f   Gizmo.obj
 0001:000ba740       ?CGizmo_OnPrecache@@YAXPAVCDLLEntityClass@@J@Z 100bb740 f   Gizmo.obj
 0001:000ba750       ?CGizmo_OnWorldEnd@@YAXPAVCWorld@@@Z 100bb750 f   Gizmo.obj
 0001:000ba760       ?CGizmo_OnWorldInit@@YAXPAVCWorld@@@Z 100bb760 f   Gizmo.obj
 0001:000ba770       ?CGizmo_OnWorldTick@@YAXPAVCWorld@@@Z 100bb770 f   Gizmo.obj
 0001:000ba780       ?CGizmo_OnWorldRender@@YAXPAVCWorld@@@Z 100bb780 f   Gizmo.obj
 0001:000ba7e0       ?SetDefaultProperties@CGizmo@@UAEXXZ 100bb7e0 f   Gizmo.obj
 0001:000ba7f0       ?GetPlayerKillDescription@CGizmo@@UAE?AVCTString@@ABV2@ABVEDeath@@@Z 100bb7f0 f   Gizmo.obj
 0001:000ba890       ?GetComputerMessageName@CGizmo@@UBEABVCTFileName@@XZ 100bb890 f   Gizmo.obj
 0001:000ba8e0       ?GetEntityInfo@CGizmo@@UAEPAXXZ 100bb8e0 f   Gizmo.obj
 0001:000ba8f0       ?Precache@CGizmo@@UAEXXZ   100bb8f0 f   Gizmo.obj
 0001:000ba950       ?SightSound@CGizmo@@UAEXXZ 100bb950 f   Gizmo.obj
 0001:000ba970       ?RunningAnim@CGizmo@@UAEXXZ 100bb970 f   Gizmo.obj
 0001:000ba980       ?MortalJumpAnim@CGizmo@@QAEXXZ 100bb980 f   Gizmo.obj
 0001:000ba990       ?StandAnim@CGizmo@@QAEXXZ  100bb990 f   Gizmo.obj
 0001:000ba9a0       ?IdleSound@CGizmo@@UAEXXZ  100bb9a0 f   Gizmo.obj
 0001:000ba9c0       ?BlowUpNotify@CGizmo@@UAEXXZ 100bb9c0 f   Gizmo.obj
 0001:000ba9d0       ?Explode@CGizmo@@QAEXXZ    100bb9d0 f   Gizmo.obj
 0001:000baba0       ?ShouldBlowUp@CGizmo@@UAEHXZ 100bbba0 f   Gizmo.obj
 0001:000babb0       ?LeaveStain@CGizmo@@UAEXH@Z 100bbbb0 f   Gizmo.obj
 0001:000bae50       ?PerformAttack@CGizmo@@QAEHABVCEntityEvent@@@Z 100bbe50 f   Gizmo.obj
 0001:000baeb0       ?H0x014f0005_PerformAttack_05@CGizmo@@QAEHABVCEntityEvent@@@Z 100bbeb0 f   Gizmo.obj
 0001:000bafb0       ?H0x014f0001_PerformAttack_01@CGizmo@@QAEHABVCEntityEvent@@@Z 100bbfb0 f   Gizmo.obj
 0001:000bb050       ?H0x014f0002_PerformAttack_02@CGizmo@@QAEHABVCEntityEvent@@@Z 100bc050 f   Gizmo.obj
 0001:000bb0b0       ?H0x014f0003_PerformAttack_03@CGizmo@@QAEHABVCEntityEvent@@@Z 100bc0b0 f   Gizmo.obj
 0001:000bb150       ?H0x014f0004_PerformAttack_04@CGizmo@@QAEHABVCEntityEvent@@@Z 100bc150 f   Gizmo.obj
 0001:000bb1b0       ?H0x014f0006_PerformAttack_06@CGizmo@@QAEHABVCEntityEvent@@@Z 100bc1b0 f   Gizmo.obj
 0001:000bb1c0       ?JumpOnce@CGizmo@@QAEHABVCEntityEvent@@@Z 100bc1c0 f   Gizmo.obj
 0001:000bb3d0       ?H0x014f000a_JumpOnce_03@CGizmo@@QAEHABVCEntityEvent@@@Z 100bc3d0 f   Gizmo.obj
 0001:000bb480       ?H0x014f0008_JumpOnce_01@CGizmo@@QAEHABVCEntityEvent@@@Z 100bc480 f   Gizmo.obj
 0001:000bb660       ?H0x014f0009_JumpOnce_02@CGizmo@@QAEHABVCEntityEvent@@@Z 100bc660 f   Gizmo.obj
 0001:000bb6c0       ?H0x014f000b_JumpOnce_04@CGizmo@@QAEHABVCEntityEvent@@@Z 100bc6c0 f   Gizmo.obj
 0001:000bb6d0       ?Main@CGizmo@@QAEHABVCEntityEvent@@@Z 100bc6d0 f   Gizmo.obj
 0001:000bb8c0       ??_GCGizmo@@UAEPAXI@Z      100bc8c0 f i Gizmo.obj
 0001:000bb8c0       ??_ECGizmo@@UAEPAXI@Z      100bc8c0 f i Gizmo.obj
 0001:000bb8f0       ??1CGizmo@@UAE@XZ          100bc8f0 f i Gizmo.obj
 0001:000bbae0       ?CGlobal_New@@YAPAVCEntity@@XZ 100bcae0 f   Global.obj
 0001:000bbb40       ?CGlobal_OnInitClass@@YAXXZ 100bcb40 f   Global.obj
 0001:000bbb50       ?CGlobal_OnEndClass@@YAXXZ 100bcb50 f   Global.obj
 0001:000bbb60       ?CGlobal_OnPrecache@@YAXPAVCDLLEntityClass@@J@Z 100bcb60 f   Global.obj
 0001:000bbb70       ?CGlobal_OnWorldEnd@@YAXPAVCWorld@@@Z 100bcb70 f   Global.obj
 0001:000bbb80       ?CGlobal_OnWorldInit@@YAXPAVCWorld@@@Z 100bcb80 f   Global.obj
 0001:000bbb90       ?CGlobal_OnWorldTick@@YAXPAVCWorld@@@Z 100bcb90 f   Global.obj
 0001:000bbba0       ?CGlobal_OnWorldRender@@YAXPAVCWorld@@@Z 100bcba0 f   Global.obj
 0001:000bbc70       ?MakeCopy@EStop@@UAEPAVCEntityEvent@@XZ 100bcc70 f   Global.obj
 0001:000bbca0       ??0EStop@@QAE@XZ           100bcca0 f   Global.obj
 0001:000bbcb0       ?MakeCopy@EStart@@UAEPAVCEntityEvent@@XZ 100bccb0 f   Global.obj
 0001:000bbcf0       ??0EStart@@QAE@XZ          100bccf0 f   Global.obj
 0001:000bbd60       ?MakeCopy@EActivate@@UAEPAVCEntityEvent@@XZ 100bcd60 f   Global.obj
 0001:000bbd90       ??0EActivate@@QAE@XZ       100bcd90 f   Global.obj
 0001:000bbda0       ?MakeCopy@EDeactivate@@UAEPAVCEntityEvent@@XZ 100bcda0 f   Global.obj
 0001:000bbdd0       ??0EDeactivate@@QAE@XZ     100bcdd0 f   Global.obj
 0001:000bbde0       ?MakeCopy@EEnvironmentStart@@UAEPAVCEntityEvent@@XZ 100bcde0 f   Global.obj
 0001:000bbe10       ??0EEnvironmentStart@@QAE@XZ 100bce10 f   Global.obj
 0001:000bbe20       ?MakeCopy@EEnvironmentStop@@UAEPAVCEntityEvent@@XZ 100bce20 f   Global.obj
 0001:000bbe50       ??0EEnvironmentStop@@QAE@XZ 100bce50 f   Global.obj
 0001:000bbe60       ?MakeCopy@EEnd@@UAEPAVCEntityEvent@@XZ 100bce60 f   Global.obj
 0001:000bbe90       ??0EEnd@@QAE@XZ            100bce90 f   Global.obj
 0001:000bbea0       ?MakeCopy@ETrigger@@UAEPAVCEntityEvent@@XZ 100bcea0 f   Global.obj
 0001:000bbee0       ??0ETrigger@@QAE@XZ        100bcee0 f   Global.obj
 0001:000bbf50       ?MakeCopy@ETeleportMovingBrush@@UAEPAVCEntityEvent@@XZ 100bcf50 f   Global.obj
 0001:000bbf80       ??0ETeleportMovingBrush@@QAE@XZ 100bcf80 f   Global.obj
 0001:000bbf90       ?MakeCopy@EReminder@@UAEPAVCEntityEvent@@XZ 100bcf90 f   Global.obj
 0001:000bbfd0       ??0EReminder@@QAE@XZ       100bcfd0 f   Global.obj
 0001:000bbff0       ?MakeCopy@EStartAttack@@UAEPAVCEntityEvent@@XZ 100bcff0 f   Global.obj
 0001:000bc020       ??0EStartAttack@@QAE@XZ    100bd020 f   Global.obj
 0001:000bc030       ?MakeCopy@EStopAttack@@UAEPAVCEntityEvent@@XZ 100bd030 f   Global.obj
 0001:000bc060       ??0EStopAttack@@QAE@XZ     100bd060 f   Global.obj
 0001:000bc070       ?MakeCopy@EStopBlindness@@UAEPAVCEntityEvent@@XZ 100bd070 f   Global.obj
 0001:000bc0a0       ??0EStopBlindness@@QAE@XZ  100bd0a0 f   Global.obj
 0001:000bc0b0       ?MakeCopy@EStopDeafness@@UAEPAVCEntityEvent@@XZ 100bd0b0 f   Global.obj
 0001:000bc0e0       ??0EStopDeafness@@QAE@XZ   100bd0e0 f   Global.obj
 0001:000bc0f0       ?MakeCopy@EReceiveScore@@UAEPAVCEntityEvent@@XZ 100bd0f0 f   Global.obj
 0001:000bc130       ??0EReceiveScore@@QAE@XZ   100bd130 f   Global.obj
 0001:000bc150       ?MakeCopy@EKilledEnemy@@UAEPAVCEntityEvent@@XZ 100bd150 f   Global.obj
 0001:000bc180       ??0EKilledEnemy@@QAE@XZ    100bd180 f   Global.obj
 0001:000bc190       ?MakeCopy@ESecretFound@@UAEPAVCEntityEvent@@XZ 100bd190 f   Global.obj
 0001:000bc1c0       ??0ESecretFound@@QAE@XZ    100bd1c0 f   Global.obj
 0001:000bc1d0       ?MakeCopy@ESound@@UAEPAVCEntityEvent@@XZ 100bd1d0 f   Global.obj
 0001:000bc210       ??0ESound@@QAE@XZ          100bd210 f   Global.obj
 0001:000bc280       ?MakeCopy@EScroll@@UAEPAVCEntityEvent@@XZ 100bd280 f   Global.obj
 0001:000bc2c0       ??0EScroll@@QAE@XZ         100bd2c0 f   Global.obj
 0001:000bc330       ?MakeCopy@ETextFX@@UAEPAVCEntityEvent@@XZ 100bd330 f   Global.obj
 0001:000bc370       ??0ETextFX@@QAE@XZ         100bd370 f   Global.obj
 0001:000bc3e0       ?MakeCopy@EHudPicFX@@UAEPAVCEntityEvent@@XZ 100bd3e0 f   Global.obj
 0001:000bc420       ??0EHudPicFX@@QAE@XZ       100bd420 f   Global.obj
 0001:000bc490       ?MakeCopy@ECredits@@UAEPAVCEntityEvent@@XZ 100bd490 f   Global.obj
 0001:000bc4d0       ??0ECredits@@QAE@XZ        100bd4d0 f   Global.obj
 0001:000bc540       ?MakeCopy@ECenterMessage@@UAEPAVCEntityEvent@@XZ 100bd540 f   Global.obj
 0001:000bc5c0       ??0ECenterMessage@@QAE@XZ  100bd5c0 f   Global.obj
 0001:000bc650       ?MakeCopy@EComputerMessage@@UAEPAVCEntityEvent@@XZ 100bd650 f   Global.obj
 0001:000bc6d0       ??0EComputerMessage@@QAE@XZ 100bd6d0 f   Global.obj
 0001:000bc760       ?MakeCopy@EVoiceMessage@@UAEPAVCEntityEvent@@XZ 100bd760 f   Global.obj
 0001:000bc7e0       ??0EVoiceMessage@@QAE@XZ   100bd7e0 f   Global.obj
 0001:000bc870       ?MakeCopy@EHitBySpaceShipBeam@@UAEPAVCEntityEvent@@XZ 100bd870 f   Global.obj
 0001:000bc8a0       ??0EHitBySpaceShipBeam@@QAE@XZ 100bd8a0 f   Global.obj
 0001:000bc8b0       ?SetDefaultProperties@CGlobal@@UAEXXZ 100bd8b0 f   Global.obj
 0001:000bc8c0       ?Main@CGlobal@@QAEHABVCEntityEvent@@@Z 100bd8c0 f   Global.obj
 0001:000bc8d0       ??_ECGlobal@@UAEPAXI@Z     100bd8d0 f i Global.obj
 0001:000bc8d0       ??_GCGlobal@@UAEPAXI@Z     100bd8d0 f i Global.obj
 0001:000bc900       ??1CGlobal@@UAE@XZ         100bd900 f i Global.obj
 0001:000bca90       ?CGradientMarker_New@@YAPAVCEntity@@XZ 100bda90 f   GradientMarker.obj
 0001:000bcb30       ?CGradientMarker_OnInitClass@@YAXXZ 100bdb30 f   GradientMarker.obj
 0001:000bcb40       ?CGradientMarker_OnEndClass@@YAXXZ 100bdb40 f   GradientMarker.obj
 0001:000bcb50       ?CGradientMarker_OnPrecache@@YAXPAVCDLLEntityClass@@J@Z 100bdb50 f   GradientMarker.obj
 0001:000bcb60       ?CGradientMarker_OnWorldEnd@@YAXPAVCWorld@@@Z 100bdb60 f   GradientMarker.obj
 0001:000bcb70       ?CGradientMarker_OnWorldInit@@YAXPAVCWorld@@@Z 100bdb70 f   GradientMarker.obj
 0001:000bcb80       ?CGradientMarker_OnWorldTick@@YAXPAVCWorld@@@Z 100bdb80 f   GradientMarker.obj
 0001:000bcb90       ?CGradientMarker_OnWorldRender@@YAXPAVCWorld@@@Z 100bdb90 f   GradientMarker.obj
 0001:000bcbf0       ?SetDefaultProperties@CGradientMarker@@UAEXXZ 100bdbf0 f   GradientMarker.obj
 0001:000bcc20       ?GetGradientName@CGradientMarker@@QAEABVCTString@@XZ 100bdc20 f   GradientMarker.obj
 0001:000bcc30       ?GetGradient@CGradientMarker@@UAEHJAAVCGradientParameters@@@Z 100bdc30 f   GradientMarker.obj
 0001:000bccf0       ?UncacheShadowsForGradient@CGradientMarker@@QAEXXZ 100bdcf0 f   GradientMarker.obj
 0001:000bcd70       ?SetPlacement_internal@CGradientMarker@@UAEXABVCPlacement3D@@ABV?$Matrix@M$02$02@@H@Z 100bdd70 f   GradientMarker.obj
 0001:000bcda0       ?OnEnd@CGradientMarker@@UAEXXZ 100bdda0 f   GradientMarker.obj
 0001:000bcdc0       ?Main@CGradientMarker@@QAEHABVCEntityEvent@@@Z 100bddc0 f   GradientMarker.obj
 0001:000bce50       ?IsImportant@CGradientMarker@@UBEHXZ 100bde50 f i GradientMarker.obj
 0001:000bce60       ??_ECGradientMarker@@UAEPAXI@Z 100bde60 f i GradientMarker.obj
 0001:000bce60       ??_GCGradientMarker@@UAEPAXI@Z 100bde60 f i GradientMarker.obj
 0001:000bce90       ??1CGradientMarker@@UAE@XZ 100bde90 f i GradientMarker.obj
 0001:000bcf20       ??1?$CDynamicContainerIterator@VCEntity@@@@QAE@XZ 100bdf20 f i GradientMarker.obj
 0001:000bcf30       ??0EChangeGravity@@QAE@ABV0@@Z 100bdf30 f i GravityMarker.obj
 0001:000bcf60       ??4EChangeGravity@@QAEAAV0@ABV0@@Z 100bdf60 f i GravityMarker.obj
 0001:000bcfa0       ??1EChangeGravity@@UAE@XZ  100bdfa0 f i GravityMarker.obj
 0001:000bd030       ??_GEChangeGravity@@UAEPAXI@Z 100be030 f i GravityMarker.obj
 0001:000bd060       ??_EEChangeGravity@@UAEPAXI@Z 100be060 f i GravityMarker.obj
 0001:000bd0c0       ?ClearToDefault@@YAXAAVEChangeGravity@@@Z 100be0c0 f i GravityMarker.obj
 0001:000bd160       ?ClearToDefault@@YAXAAW4GravityType@@@Z 100be160 f i GravityMarker.obj
 0001:000bd480       ?CGravityMarker_New@@YAPAVCEntity@@XZ 100be480 f   GravityMarker.obj
 0001:000bd520       ?CGravityMarker_OnInitClass@@YAXXZ 100be520 f   GravityMarker.obj
 0001:000bd530       ?CGravityMarker_OnEndClass@@YAXXZ 100be530 f   GravityMarker.obj
 0001:000bd540       ?CGravityMarker_OnPrecache@@YAXPAVCDLLEntityClass@@J@Z 100be540 f   GravityMarker.obj
 0001:000bd550       ?CGravityMarker_OnWorldEnd@@YAXPAVCWorld@@@Z 100be550 f   GravityMarker.obj
 0001:000bd560       ?CGravityMarker_OnWorldInit@@YAXPAVCWorld@@@Z 100be560 f   GravityMarker.obj
 0001:000bd570       ?CGravityMarker_OnWorldTick@@YAXPAVCWorld@@@Z 100be570 f   GravityMarker.obj
 0001:000bd580       ?CGravityMarker_OnWorldRender@@YAXPAVCWorld@@@Z 100be580 f   GravityMarker.obj
 0001:000bd5e0       ?SetDefaultProperties@CGravityMarker@@UAEXXZ 100be5e0 f   GravityMarker.obj
 0001:000bd680       ?GetForceName@CGravityMarker@@UAEABVCTString@@J@Z 100be680 f   GravityMarker.obj
 0001:000bd690       ?GetForce@CGravityMarker@@UAEXJABV?$Vector@M$02@@AAVCForceStrength@@1@Z 100be690 f   GravityMarker.obj
 0001:000bdc50       ?HandleEvent@CGravityMarker@@UAEHABVCEntityEvent@@@Z 100bec50 f   GravityMarker.obj
 0001:000bdd10       ?Main@CGravityMarker@@QAEHABVCEntityEvent@@@Z 100bed10 f   GravityMarker.obj
 0001:000bde00       ?IsImportant@CGravityMarker@@UBEHXZ 100bee00 f i GravityMarker.obj
 0001:000bde10       ??_GCGravityMarker@@UAEPAXI@Z 100bee10 f i GravityMarker.obj
 0001:000bde10       ??_ECGravityMarker@@UAEPAXI@Z 100bee10 f i GravityMarker.obj
 0001:000bde40       ??1CGravityMarker@@UAE@XZ  100bee40 f i GravityMarker.obj
 0001:000bdf70       ?CGravityRouter_New@@YAPAVCEntity@@XZ 100bef70 f   GravityRouter.obj
 0001:000be010       ?CGravityRouter_OnInitClass@@YAXXZ 100bf010 f   GravityRouter.obj
 0001:000be020       ?CGravityRouter_OnEndClass@@YAXXZ 100bf020 f   GravityRouter.obj
 0001:000be030       ?CGravityRouter_OnPrecache@@YAXPAVCDLLEntityClass@@J@Z 100bf030 f   GravityRouter.obj
 0001:000be040       ?CGravityRouter_OnWorldEnd@@YAXPAVCWorld@@@Z 100bf040 f   GravityRouter.obj
 0001:000be050       ?CGravityRouter_OnWorldInit@@YAXPAVCWorld@@@Z 100bf050 f   GravityRouter.obj
 0001:000be060       ?CGravityRouter_OnWorldTick@@YAXPAVCWorld@@@Z 100bf060 f   GravityRouter.obj
 0001:000be070       ?CGravityRouter_OnWorldRender@@YAXPAVCWorld@@@Z 100bf070 f   GravityRouter.obj
 0001:000be0d0       ?MakeCopy@EChangeGravity@@UAEPAVCEntityEvent@@XZ 100bf0d0 f   GravityRouter.obj
 0001:000be110       ??0EChangeGravity@@QAE@XZ  100bf110 f   GravityRouter.obj
 0001:000be180       ?SetDefaultProperties@CGravityRouter@@UAEXXZ 100bf180 f   GravityRouter.obj
 0001:000be190       ?GetForceName@CGravityRouter@@UAEABVCTString@@J@Z 100bf190 f   GravityRouter.obj
 0001:000be1a0       ?GetForce@CGravityRouter@@UAEXJABV?$Vector@M$02@@AAVCForceStrength@@1@Z 100bf1a0 f   GravityRouter.obj
 0001:000be1f0       ?GetForceController@CGravityRouter@@UAEPAVCEntity@@J@Z 100bf1f0 f   GravityRouter.obj
 0001:000be200       ?HandleEvent@CGravityRouter@@UAEHABVCEntityEvent@@@Z 100bf200 f   GravityRouter.obj
 0001:000be260       ?Main@CGravityRouter@@QAEHABVCEntityEvent@@@Z 100bf260 f   GravityRouter.obj
 0001:000be340       ?IsImportant@CGravityRouter@@UBEHXZ 100bf340 f i GravityRouter.obj
 0001:000be350       ??_ECGravityRouter@@UAEPAXI@Z 100bf350 f i GravityRouter.obj
 0001:000be350       ??_GCGravityRouter@@UAEPAXI@Z 100bf350 f i GravityRouter.obj
 0001:000be380       ??1CGravityRouter@@UAE@XZ  100bf380 f i GravityRouter.obj
 0001:000be410       ?ClearToDefault@@YAXAAW4GruntType@@@Z 100bf410 f i Grunt.obj
 0001:000be680       ?CGrunt_New@@YAPAVCEntity@@XZ 100bf680 f   Grunt.obj
 0001:000be700       ?CGrunt_OnInitClass@@YAXXZ 100bf700 f   Grunt.obj
 0001:000be710       ?CGrunt_OnEndClass@@YAXXZ  100bf710 f   Grunt.obj
 0001:000be720       ?CGrunt_OnPrecache@@YAXPAVCDLLEntityClass@@J@Z 100bf720 f   Grunt.obj
 0001:000be730       ?CGrunt_OnWorldEnd@@YAXPAVCWorld@@@Z 100bf730 f   Grunt.obj
 0001:000be740       ?CGrunt_OnWorldInit@@YAXPAVCWorld@@@Z 100bf740 f   Grunt.obj
 0001:000be750       ?CGrunt_OnWorldTick@@YAXPAVCWorld@@@Z 100bf750 f   Grunt.obj
 0001:000be760       ?CGrunt_OnWorldRender@@YAXPAVCWorld@@@Z 100bf760 f   Grunt.obj
 0001:000be7c0       ?SetDefaultProperties@CGrunt@@UAEXXZ 100bf7c0 f   Grunt.obj
 0001:000be800       ?GetPlayerKillDescription@CGrunt@@UAE?AVCTString@@ABV2@ABVEDeath@@@Z 100bf800 f   Grunt.obj
 0001:000be8a0       ?GetEntityInfo@CGrunt@@UAEPAXXZ 100bf8a0 f   Grunt.obj
 0001:000be8c0       ?GetComputerMessageName@CGrunt@@UBEABVCTFileName@@XZ 100bf8c0 f   Grunt.obj
 0001:000be970       ?Precache@CGrunt@@UAEXXZ   100bf970 f   Grunt.obj
 0001:000be9e0       ?ReceiveDamage@CGrunt@@UAEXPAVCEntity@@W4DamageType@@MABV?$Vector@M$02@@2@Z 100bf9e0 f   Grunt.obj
 0001:000bea00       ?AnimForDamage@CGrunt@@UAEJM@Z 100bfa00 f   Grunt.obj
 0001:000bea20       ?AnimForDeath@CGrunt@@UAEJXZ 100bfa20 f   Grunt.obj
 0001:000bea80       ?WaitForDust@CGrunt@@UAEMAAV?$Vector@M$02@@@Z 100bfa80 f   Grunt.obj
 0001:000beb00       ?DeathNotify@CGrunt@@UAEXXZ 100bfb00 f   Grunt.obj
 0001:000beb20       ?StandingAnim@CGrunt@@UAEXXZ 100bfb20 f   Grunt.obj
 0001:000beb30       ?RunningAnim@CGrunt@@UAEXXZ 100bfb30 f   Grunt.obj
 0001:000beb40       ?WalkingAnim@CGrunt@@UAEXXZ 100bfb40 f   Grunt.obj
 0001:000beb50       ?RotatingAnim@CGrunt@@UAEXXZ 100bfb50 f   Grunt.obj
 0001:000beb60       ?IdleSound@CGrunt@@UAEXXZ  100bfb60 f   Grunt.obj
 0001:000beb80       ?SightSound@CGrunt@@UAEXXZ 100bfb80 f   Grunt.obj
 0001:000beba0       ?WoundSound@CGrunt@@UAEXXZ 100bfba0 f   Grunt.obj
 0001:000bebc0       ?DeathSound@CGrunt@@UAEXXZ 100bfbc0 f   Grunt.obj
 0001:000bebe0       ?EnemyPostInit@CGrunt@@UAEXXZ 100bfbe0 f   Grunt.obj
 0001:000bec30       ?Fire@CGrunt@@QAEHABVCEntityEvent@@@Z 100bfc30 f   Grunt.obj
 0001:000becb0       ?H0x01570001_Fire_01@CGrunt@@QAEHABVCEntityEvent@@@Z 100bfcb0 f   Grunt.obj
 0001:000bed50       ?H0x01570002_Fire_02@CGrunt@@QAEHABVCEntityEvent@@@Z 100bfd50 f   Grunt.obj
 0001:000bedb0       ?H0x01570008_Fire_08@CGrunt@@QAEHABVCEntityEvent@@@Z 100bfdb0 f   Grunt.obj
 0001:000bee30       ?H0x01570003_Fire_03@CGrunt@@QAEHABVCEntityEvent@@@Z 100bfe30 f   Grunt.obj
 0001:000beed0       ?H0x01570004_Fire_04@CGrunt@@QAEHABVCEntityEvent@@@Z 100bfed0 f   Grunt.obj
 0001:000bef30       ?H0x01570006_Fire_06@CGrunt@@QAEHABVCEntityEvent@@@Z 100bff30 f   Grunt.obj
 0001:000bef90       ?H0x01570005_Fire_05@CGrunt@@QAEHABVCEntityEvent@@@Z 100bff90 f   Grunt.obj
 0001:000beff0       ?H0x01570007_Fire_07@CGrunt@@QAEHABVCEntityEvent@@@Z 100bfff0 f   Grunt.obj
 0001:000bf050       ?SoldierAttack@CGrunt@@QAEHABVCEntityEvent@@@Z 100c0050 f   Grunt.obj
 0001:000bf0e0       ?H0x0157000a_SoldierAttack_01@CGrunt@@QAEHABVCEntityEvent@@@Z 100c00e0 f   Grunt.obj
 0001:000bf160       ?H0x0157000b_SoldierAttack_02@CGrunt@@QAEHABVCEntityEvent@@@Z 100c0160 f   Grunt.obj
 0001:000bf280       ?H0x0157000c_SoldierAttack_03@CGrunt@@QAEHABVCEntityEvent@@@Z 100c0280 f   Grunt.obj
 0001:000bf300       ?H0x0157000d_SoldierAttack_04@CGrunt@@QAEHABVCEntityEvent@@@Z 100c0300 f   Grunt.obj
 0001:000bf420       ?H0x0157000e_SoldierAttack_05@CGrunt@@QAEHABVCEntityEvent@@@Z 100c0420 f   Grunt.obj
 0001:000bf4a0       ?H0x0157000f_SoldierAttack_06@CGrunt@@QAEHABVCEntityEvent@@@Z 100c04a0 f   Grunt.obj
 0001:000bf500       ?CommanderAttack@CGrunt@@QAEHABVCEntityEvent@@@Z 100c0500 f   Grunt.obj
 0001:000bf590       ?H0x01570011_CommanderAttack_01@CGrunt@@QAEHABVCEntityEvent@@@Z 100c0590 f   Grunt.obj
 0001:000bf610       ?H0x01570012_CommanderAttack_02@CGrunt@@QAEHABVCEntityEvent@@@Z 100c0610 f   Grunt.obj
 0001:000bf720       ?H0x01570013_CommanderAttack_03@CGrunt@@QAEHABVCEntityEvent@@@Z 100c0720 f   Grunt.obj
 0001:000bf7a0       ?H0x01570014_CommanderAttack_04@CGrunt@@QAEHABVCEntityEvent@@@Z 100c07a0 f   Grunt.obj
 0001:000bf8b0       ?H0x01570015_CommanderAttack_05@CGrunt@@QAEHABVCEntityEvent@@@Z 100c08b0 f   Grunt.obj
 0001:000bf930       ?H0x01570016_CommanderAttack_06@CGrunt@@QAEHABVCEntityEvent@@@Z 100c0930 f   Grunt.obj
 0001:000bfa40       ?H0x01570017_CommanderAttack_07@CGrunt@@QAEHABVCEntityEvent@@@Z 100c0a40 f   Grunt.obj
 0001:000bfac0       ?H0x01570018_CommanderAttack_08@CGrunt@@QAEHABVCEntityEvent@@@Z 100c0ac0 f   Grunt.obj
 0001:000bfbd0       ?H0x01570019_CommanderAttack_09@CGrunt@@QAEHABVCEntityEvent@@@Z 100c0bd0 f   Grunt.obj
 0001:000bfc50       ?H0x0157001a_CommanderAttack_10@CGrunt@@QAEHABVCEntityEvent@@@Z 100c0c50 f   Grunt.obj
 0001:000bfd70       ?H0x0157001b_CommanderAttack_11@CGrunt@@QAEHABVCEntityEvent@@@Z 100c0d70 f   Grunt.obj
 0001:000bfdf0       ?H0x0157001c_CommanderAttack_12@CGrunt@@QAEHABVCEntityEvent@@@Z 100c0df0 f   Grunt.obj
 0001:000bfe50       ?Main@CGrunt@@QAEHABVCEntityEvent@@@Z 100c0e50 f   Grunt.obj
 0001:000c0180       ??_GCGrunt@@UAEPAXI@Z      100c1180 f i Grunt.obj
 0001:000c0180       ??_ECGrunt@@UAEPAXI@Z      100c1180 f i Grunt.obj
 0001:000c01b0       ??1CGrunt@@UAE@XZ          100c11b0 f i Grunt.obj
 0001:000c0340       ?ClearToDefault@@YAXAAW4GruntSkaType@@@Z 100c1340 f i GruntSka.obj
 0001:000c0580       ?CGruntSka_New@@YAPAVCEntity@@XZ 100c1580 f   GruntSka.obj
 0001:000c05e0       ?CGruntSka_OnInitClass@@YAXXZ 100c15e0 f   GruntSka.obj
 0001:000c05f0       ?CGruntSka_OnEndClass@@YAXXZ 100c15f0 f   GruntSka.obj
 0001:000c0600       ?CGruntSka_OnPrecache@@YAXPAVCDLLEntityClass@@J@Z 100c1600 f   GruntSka.obj
 0001:000c0610       ?CGruntSka_OnWorldEnd@@YAXPAVCWorld@@@Z 100c1610 f   GruntSka.obj
 0001:000c0620       ?CGruntSka_OnWorldInit@@YAXPAVCWorld@@@Z 100c1620 f   GruntSka.obj
 0001:000c0630       ?CGruntSka_OnWorldTick@@YAXPAVCWorld@@@Z 100c1630 f   GruntSka.obj
 0001:000c0640       ?CGruntSka_OnWorldRender@@YAXPAVCWorld@@@Z 100c1640 f   GruntSka.obj
 0001:000c06e0       ?SetDefaultProperties@CGruntSka@@UAEXXZ 100c16e0 f   GruntSka.obj
 0001:000c0730       ??0CGruntSka@@QAE@XZ       100c1730 f   GruntSka.obj
 0001:000c08f0       ?CreateTestModelInstance@CGruntSka@@QAEXXZ 100c18f0 f   GruntSka.obj
 0001:000c0ae0       ?BuildGruntModel@CGruntSka@@QAEXXZ 100c1ae0 f   GruntSka.obj
 0001:000c0ed0       ?BuildCommanderModel@CGruntSka@@QAEXPAVCEntity@@@Z 100c1ed0 f   GruntSka.obj
 0001:000c1020       ?GetPlayerKillDescription@CGruntSka@@UAE?AVCTString@@ABV2@ABVEDeath@@@Z 100c2020 f   GruntSka.obj
 0001:000c10c0       ?GetEntityInfo@CGruntSka@@UAEPAXXZ 100c20c0 f   GruntSka.obj
 0001:000c10e0       ?GetComputerMessageName@CGruntSka@@UBEABVCTFileName@@XZ 100c20e0 f   GruntSka.obj
 0001:000c1190       ?Precache@CGruntSka@@UAEXXZ 100c2190 f   GruntSka.obj
 0001:000c1200       ?ReceiveDamage@CGruntSka@@UAEXPAVCEntity@@W4DamageType@@MABV?$Vector@M$02@@2@Z 100c2200 f   GruntSka.obj
 0001:000c1220       ?AnimForDamage@CGruntSka@@UAEJM@Z 100c2220 f   GruntSka.obj
 0001:000c1250       ?AnimForDeath@CGruntSka@@UAEJXZ 100c2250 f   GruntSka.obj
 0001:000c12c0       ?WaitForDust@CGruntSka@@UAEMAAV?$Vector@M$02@@@Z 100c22c0 f   GruntSka.obj
 0001:000c1350       ?DeathNotify@CGruntSka@@UAEXXZ 100c2350 f   GruntSka.obj
 0001:000c1380       ?StandingAnim@CGruntSka@@UAEXXZ 100c2380 f   GruntSka.obj
 0001:000c13a0       ?RunningAnim@CGruntSka@@UAEXXZ 100c23a0 f   GruntSka.obj
 0001:000c13c0       ?WalkingAnim@CGruntSka@@UAEXXZ 100c23c0 f   GruntSka.obj
 0001:000c13d0       ?RotatingAnim@CGruntSka@@UAEXXZ 100c23d0 f   GruntSka.obj
 0001:000c13e0       ?IdleSound@CGruntSka@@UAEXXZ 100c23e0 f   GruntSka.obj
 0001:000c1400       ?SightSound@CGruntSka@@UAEXXZ 100c2400 f   GruntSka.obj
 0001:000c1420       ?WoundSound@CGruntSka@@UAEXXZ 100c2420 f   GruntSka.obj
 0001:000c1440       ?DeathSound@CGruntSka@@UAEXXZ 100c2440 f   GruntSka.obj
 0001:000c1460       ?EnemyPostInit@CGruntSka@@UAEXXZ 100c2460 f   GruntSka.obj
 0001:000c14b0       ?Fire@CGruntSka@@QAEHABVCEntityEvent@@@Z 100c24b0 f   GruntSka.obj
 0001:000c1530       ?H0x01570001_Fire_01@CGruntSka@@QAEHABVCEntityEvent@@@Z 100c2530 f   GruntSka.obj
 0001:000c15d0       ?H0x01570002_Fire_02@CGruntSka@@QAEHABVCEntityEvent@@@Z 100c25d0 f   GruntSka.obj
 0001:000c1630       ?H0x01570008_Fire_08@CGruntSka@@QAEHABVCEntityEvent@@@Z 100c2630 f   GruntSka.obj
 0001:000c16b0       ?H0x01570003_Fire_03@CGruntSka@@QAEHABVCEntityEvent@@@Z 100c26b0 f   GruntSka.obj
 0001:000c1750       ?H0x01570004_Fire_04@CGruntSka@@QAEHABVCEntityEvent@@@Z 100c2750 f   GruntSka.obj
 0001:000c17b0       ?H0x01570006_Fire_06@CGruntSka@@QAEHABVCEntityEvent@@@Z 100c27b0 f   GruntSka.obj
 0001:000c1810       ?H0x01570005_Fire_05@CGruntSka@@QAEHABVCEntityEvent@@@Z 100c2810 f   GruntSka.obj
 0001:000c1870       ?H0x01570007_Fire_07@CGruntSka@@QAEHABVCEntityEvent@@@Z 100c2870 f   GruntSka.obj
 0001:000c18d0       ?SoldierAttack@CGruntSka@@QAEHABVCEntityEvent@@@Z 100c28d0 f   GruntSka.obj
 0001:000c1960       ?H0x0157000a_SoldierAttack_01@CGruntSka@@QAEHABVCEntityEvent@@@Z 100c2960 f   GruntSka.obj
 0001:000c19e0       ?H0x0157000b_SoldierAttack_02@CGruntSka@@QAEHABVCEntityEvent@@@Z 100c29e0 f   GruntSka.obj
 0001:000c1b10       ?H0x0157000c_SoldierAttack_03@CGruntSka@@QAEHABVCEntityEvent@@@Z 100c2b10 f   GruntSka.obj
 0001:000c1b90       ?H0x0157000d_SoldierAttack_04@CGruntSka@@QAEHABVCEntityEvent@@@Z 100c2b90 f   GruntSka.obj
 0001:000c1cc0       ?H0x0157000e_SoldierAttack_05@CGruntSka@@QAEHABVCEntityEvent@@@Z 100c2cc0 f   GruntSka.obj
 0001:000c1d40       ?H0x0157000f_SoldierAttack_06@CGruntSka@@QAEHABVCEntityEvent@@@Z 100c2d40 f   GruntSka.obj
 0001:000c1da0       ?CommanderAttack@CGruntSka@@QAEHABVCEntityEvent@@@Z 100c2da0 f   GruntSka.obj
 0001:000c1e30       ?H0x01570011_CommanderAttack_01@CGruntSka@@QAEHABVCEntityEvent@@@Z 100c2e30 f   GruntSka.obj
 0001:000c1eb0       ?H0x01570012_CommanderAttack_02@CGruntSka@@QAEHABVCEntityEvent@@@Z 100c2eb0 f   GruntSka.obj
 0001:000c1fd0       ?H0x01570013_CommanderAttack_03@CGruntSka@@QAEHABVCEntityEvent@@@Z 100c2fd0 f   GruntSka.obj
 0001:000c2050       ?H0x01570014_CommanderAttack_04@CGruntSka@@QAEHABVCEntityEvent@@@Z 100c3050 f   GruntSka.obj
 0001:000c2170       ?H0x01570015_CommanderAttack_05@CGruntSka@@QAEHABVCEntityEvent@@@Z 100c3170 f   GruntSka.obj
 0001:000c21f0       ?H0x01570016_CommanderAttack_06@CGruntSka@@QAEHABVCEntityEvent@@@Z 100c31f0 f   GruntSka.obj
 0001:000c2310       ?H0x01570017_CommanderAttack_07@CGruntSka@@QAEHABVCEntityEvent@@@Z 100c3310 f   GruntSka.obj
 0001:000c2390       ?H0x01570018_CommanderAttack_08@CGruntSka@@QAEHABVCEntityEvent@@@Z 100c3390 f   GruntSka.obj
 0001:000c24b0       ?H0x01570019_CommanderAttack_09@CGruntSka@@QAEHABVCEntityEvent@@@Z 100c34b0 f   GruntSka.obj
 0001:000c2530       ?H0x0157001a_CommanderAttack_10@CGruntSka@@QAEHABVCEntityEvent@@@Z 100c3530 f   GruntSka.obj
 0001:000c2660       ?H0x0157001b_CommanderAttack_11@CGruntSka@@QAEHABVCEntityEvent@@@Z 100c3660 f   GruntSka.obj
 0001:000c26e0       ?H0x0157001c_CommanderAttack_12@CGruntSka@@QAEHABVCEntityEvent@@@Z 100c36e0 f   GruntSka.obj
 0001:000c2740       ?Main@CGruntSka@@QAEHABVCEntityEvent@@@Z 100c3740 f   GruntSka.obj
 0001:000c2aa0       ??_GCGruntSka@@UAEPAXI@Z   100c3aa0 f i GruntSka.obj
 0001:000c2aa0       ??_ECGruntSka@@UAEPAXI@Z   100c3aa0 f i GruntSka.obj
 0001:000c2ad0       ??1CGruntSka@@UAE@XZ       100c3ad0 f i GruntSka.obj
 0001:000c2c70       ??0?$Vector@M$02@@QAE@MMM@Z 100c3c70 f i GruntSka.obj
 0001:000c2f70       ?CGuffy_New@@YAPAVCEntity@@XZ 100c3f70 f   Guffy.obj
 0001:000c2ff0       ?CGuffy_OnInitClass@@YAXXZ 100c3ff0 f   Guffy.obj
 0001:000c3000       ?CGuffy_OnEndClass@@YAXXZ  100c4000 f   Guffy.obj
 0001:000c3010       ?CGuffy_OnPrecache@@YAXPAVCDLLEntityClass@@J@Z 100c4010 f   Guffy.obj
 0001:000c3020       ?CGuffy_OnWorldEnd@@YAXPAVCWorld@@@Z 100c4020 f   Guffy.obj
 0001:000c3030       ?CGuffy_OnWorldInit@@YAXPAVCWorld@@@Z 100c4030 f   Guffy.obj
 0001:000c3040       ?CGuffy_OnWorldTick@@YAXPAVCWorld@@@Z 100c4040 f   Guffy.obj
 0001:000c3050       ?CGuffy_OnWorldRender@@YAXPAVCWorld@@@Z 100c4050 f   Guffy.obj
 0001:000c30b0       ?SetDefaultProperties@CGuffy@@UAEXXZ 100c40b0 f   Guffy.obj
 0001:000c3110       ?GetPlayerKillDescription@CGuffy@@UAE?AVCTString@@ABV2@ABVEDeath@@@Z 100c4110 f   Guffy.obj
 0001:000c31b0       ?GetComputerMessageName@CGuffy@@UBEABVCTFileName@@XZ 100c41b0 f   Guffy.obj
 0001:000c3200       ?Precache@CGuffy@@UAEXXZ   100c4200 f   Guffy.obj
 0001:000c3280       ?GetEntityInfo@CGuffy@@UAEPAXXZ 100c4280 f   Guffy.obj
 0001:000c3290       ?ReceiveDamage@CGuffy@@UAEXPAVCEntity@@W4DamageType@@MABV?$Vector@M$02@@2@Z 100c4290 f   Guffy.obj
 0001:000c32d0       ?StandingAnim@CGuffy@@UAEXXZ 100c42d0 f   Guffy.obj
 0001:000c32e0       ?RunningAnim@CGuffy@@UAEXXZ 100c42e0 f   Guffy.obj
 0001:000c32f0       ?WalkingAnim@CGuffy@@UAEXXZ 100c42f0 f   Guffy.obj
 0001:000c3300       ?RotatingAnim@CGuffy@@UAEXXZ 100c4300 f   Guffy.obj
 0001:000c3310       ?IdleSound@CGuffy@@UAEXXZ  100c4310 f   Guffy.obj
 0001:000c3330       ?SightSound@CGuffy@@UAEXXZ 100c4330 f   Guffy.obj
 0001:000c3350       ?WoundSound@CGuffy@@UAEXXZ 100c4350 f   Guffy.obj
 0001:000c3370       ?DeathSound@CGuffy@@UAEXXZ 100c4370 f   Guffy.obj
 0001:000c3390       ?FireRocket@CGuffy@@QAEXAAV?$Vector@M$02@@@Z 100c4390 f   Guffy.obj
 0001:000c34d0       ?EnemyPostInit@CGuffy@@UAEXXZ 100c44d0 f   Guffy.obj
 0001:000c3540       ?AnimForDamage@CGuffy@@UAEJM@Z 100c4540 f   Guffy.obj
 0001:000c3560       ?AnimForDeath@CGuffy@@UAEJXZ 100c4560 f   Guffy.obj
 0001:000c35c0       ?WaitForDust@CGuffy@@UAEMAAV?$Vector@M$02@@@Z 100c45c0 f   Guffy.obj
 0001:000c3670       ?Fire@CGuffy@@QAEHABVCEntityEvent@@@Z 100c4670 f   Guffy.obj
 0001:000c36e0       ?H0x01580001_Fire_01@CGuffy@@QAEHABVCEntityEvent@@@Z 100c46e0 f   Guffy.obj
 0001:000c3760       ?H0x01580002_Fire_02@CGuffy@@QAEHABVCEntityEvent@@@Z 100c4760 f   Guffy.obj
 0001:000c3a80       ?H0x01580003_Fire_03@CGuffy@@QAEHABVCEntityEvent@@@Z 100c4a80 f   Guffy.obj
 0001:000c3b00       ?H0x01580004_Fire_04@CGuffy@@QAEHABVCEntityEvent@@@Z 100c4b00 f   Guffy.obj
 0001:000c3b90       ?H0x01580005_Fire_05@CGuffy@@QAEHABVCEntityEvent@@@Z 100c4b90 f   Guffy.obj
 0001:000c3c10       ?H0x01580006_Fire_06@CGuffy@@QAEHABVCEntityEvent@@@Z 100c4c10 f   Guffy.obj
 0001:000c3c70       ?Main@CGuffy@@QAEHABVCEntityEvent@@@Z 100c4c70 f   Guffy.obj
 0001:000c3ed0       ??_GCGuffy@@UAEPAXI@Z      100c4ed0 f i Guffy.obj
 0001:000c3ed0       ??_ECGuffy@@UAEPAXI@Z      100c4ed0 f i Guffy.obj
 0001:000c3f00       ??1CGuffy@@UAE@XZ          100c4f00 f i Guffy.obj
 0001:000c43d0       ?CHazeMarker_New@@YAPAVCEntity@@XZ 100c53d0 f   HazeMarker.obj
 0001:000c4470       ?CHazeMarker_OnInitClass@@YAXXZ 100c5470 f   HazeMarker.obj
 0001:000c4480       ?CHazeMarker_OnEndClass@@YAXXZ 100c5480 f   HazeMarker.obj
 0001:000c4490       ?CHazeMarker_OnPrecache@@YAXPAVCDLLEntityClass@@J@Z 100c5490 f   HazeMarker.obj
 0001:000c44a0       ?CHazeMarker_OnWorldEnd@@YAXPAVCWorld@@@Z 100c54a0 f   HazeMarker.obj
 0001:000c44b0       ?CHazeMarker_OnWorldInit@@YAXPAVCWorld@@@Z 100c54b0 f   HazeMarker.obj
 0001:000c44c0       ?CHazeMarker_OnWorldTick@@YAXPAVCWorld@@@Z 100c54c0 f   HazeMarker.obj
 0001:000c44d0       ?CHazeMarker_OnWorldRender@@YAXPAVCWorld@@@Z 100c54d0 f   HazeMarker.obj
 0001:000c4530       ?SetDefaultProperties@CHazeMarker@@UAEXXZ 100c5530 f   HazeMarker.obj
 0001:000c45a0       ?GetHazeName@CHazeMarker@@QAEABVCTString@@XZ 100c55a0 f   HazeMarker.obj
 0001:000c45b0       ?GetHaze@CHazeMarker@@QAEXAAVCHazeParameters@@AAV?$Vector@M$02@@@Z 100c55b0 f   HazeMarker.obj
 0001:000c47f0       ?Main@CHazeMarker@@QAEHABVCEntityEvent@@@Z 100c57f0 f   HazeMarker.obj
 0001:000c4950       ?IsImportant@CHazeMarker@@UBEHXZ 100c5950 f i HazeMarker.obj
 0001:000c4960       ??_GCHazeMarker@@UAEPAXI@Z 100c5960 f i HazeMarker.obj
 0001:000c4960       ??_ECHazeMarker@@UAEPAXI@Z 100c5960 f i HazeMarker.obj
 0001:000c4990       ??1CHazeMarker@@UAE@XZ     100c5990 f i HazeMarker.obj
 0001:000c4a20       ?ClearToDefault@@YAXAAW4HeadmanType@@@Z 100c5a20 f i Headman.obj
 0001:000c4db0       ?CHeadman_New@@YAPAVCEntity@@XZ 100c5db0 f   Headman.obj
 0001:000c4e10       ?CHeadman_OnInitClass@@YAXXZ 100c5e10 f   Headman.obj
 0001:000c4e20       ?CHeadman_OnEndClass@@YAXXZ 100c5e20 f   Headman.obj
 0001:000c4e30       ?CHeadman_OnPrecache@@YAXPAVCDLLEntityClass@@J@Z 100c5e30 f   Headman.obj
 0001:000c4e40       ?CHeadman_OnWorldEnd@@YAXPAVCWorld@@@Z 100c5e40 f   Headman.obj
 0001:000c4e50       ?CHeadman_OnWorldInit@@YAXPAVCWorld@@@Z 100c5e50 f   Headman.obj
 0001:000c4e60       ?CHeadman_OnWorldTick@@YAXPAVCWorld@@@Z 100c5e60 f   Headman.obj
 0001:000c4e70       ?CHeadman_OnWorldRender@@YAXPAVCWorld@@@Z 100c5e70 f   Headman.obj
 0001:000c4ed0       ?SetDefaultProperties@CHeadman@@UAEXXZ 100c5ed0 f   Headman.obj
 0001:000c4ef0       ?GetPlayerKillDescription@CHeadman@@UAE?AVCTString@@ABV2@ABVEDeath@@@Z 100c5ef0 f   Headman.obj
 0001:000c4fe0       ?GetEntityInfo@CHeadman@@UAEPAXXZ 100c5fe0 f   Headman.obj
 0001:000c4ff0       ?GetComputerMessageName@CHeadman@@UBEABVCTFileName@@XZ 100c5ff0 f   Headman.obj
 0001:000c5140       ?Precache@CHeadman@@UAEXXZ 100c6140 f   Headman.obj
 0001:000c5220       ?FillEntityStatistics@CHeadman@@UAEHPAUEntityStats@@@Z 100c6220 f   Headman.obj
 0001:000c5360       ?ReceiveDamage@CHeadman@@UAEXPAVCEntity@@W4DamageType@@MABV?$Vector@M$02@@2@Z 100c6360 f   Headman.obj
 0001:000c53d0       ?AnimForDamage@CHeadman@@UAEJM@Z 100c63d0 f   Headman.obj
 0001:000c5400       ?AnimForDeath@CHeadman@@UAEJXZ 100c6400 f   Headman.obj
 0001:000c54b0       ?WaitForDust@CHeadman@@UAEMAAV?$Vector@M$02@@@Z 100c64b0 f   Headman.obj
 0001:000c5680       ?ShouldBlowUp@CHeadman@@UAEHXZ 100c6680 f   Headman.obj
 0001:000c56b0       ?DeathNotify@CHeadman@@UAEXXZ 100c66b0 f   Headman.obj
 0001:000c56d0       ?StandingAnim@CHeadman@@UAEXXZ 100c66d0 f   Headman.obj
 0001:000c56f0       ?StandingAnimFight@CHeadman@@UAEXXZ 100c66f0 f   Headman.obj
 0001:000c5710       ?WalkingAnim@CHeadman@@UAEXXZ 100c6710 f   Headman.obj
 0001:000c5720       ?RunningAnim@CHeadman@@UAEXXZ 100c6720 f   Headman.obj
 0001:000c5750       ?RotatingAnim@CHeadman@@UAEXXZ 100c6750 f   Headman.obj
 0001:000c5760       ?IdleSound@CHeadman@@UAEXXZ 100c6760 f   Headman.obj
 0001:000c57a0       ?SightSound@CHeadman@@UAEXXZ 100c67a0 f   Headman.obj
 0001:000c57c0       ?WoundSound@CHeadman@@UAEXXZ 100c67c0 f   Headman.obj
 0001:000c57e0       ?DeathSound@CHeadman@@UAEXXZ 100c67e0 f   Headman.obj
 0001:000c5800       ?KamikazeSoundOn@CHeadman@@QAEXXZ 100c6800 f   Headman.obj
 0001:000c5830       ?KamikazeSoundOff@CHeadman@@QAEXXZ 100c6830 f   Headman.obj
 0001:000c5860       ?BlowUpNotify@CHeadman@@UAEXXZ 100c6860 f   Headman.obj
 0001:000c5880       ?Explode@CHeadman@@QAEXXZ  100c6880 f   Headman.obj
 0001:000c5b30       ?SetSpeedsToDesiredPosition@CHeadman@@UAEXABV?$Vector@M$02@@MH@Z 100c6b30 f   Headman.obj
 0001:000c5c30       ?GetAttackMoveFrequency@CHeadman@@UAEMM@Z 100c6c30 f   Headman.obj
 0001:000c5c70       ?InitializeAttack@CHeadman@@QAEHABVCEntityEvent@@@Z 100c6c70 f   Headman.obj
 0001:000c5ce0       ?StopAttack@CHeadman@@QAEHABVCEntityEvent@@@Z 100c6ce0 f   Headman.obj
 0001:000c5d40       ?Fire@CHeadman@@QAEHABVCEntityEvent@@@Z 100c6d40 f   Headman.obj
 0001:000c5dc0       ?H0x012f0003_Fire_01@CHeadman@@QAEHABVCEntityEvent@@@Z 100c6dc0 f   Headman.obj
 0001:000c5e60       ?H0x012f0004_Fire_02@CHeadman@@QAEHABVCEntityEvent@@@Z 100c6e60 f   Headman.obj
 0001:000c5ec0       ?H0x012f000e_Fire_12@CHeadman@@QAEHABVCEntityEvent@@@Z 100c6ec0 f   Headman.obj
 0001:000c5f40       ?H0x012f0005_Fire_03@CHeadman@@QAEHABVCEntityEvent@@@Z 100c6f40 f   Headman.obj
 0001:000c5fe0       ?H0x012f0006_Fire_04@CHeadman@@QAEHABVCEntityEvent@@@Z 100c6fe0 f   Headman.obj
 0001:000c6040       ?H0x012f000c_Fire_10@CHeadman@@QAEHABVCEntityEvent@@@Z 100c7040 f   Headman.obj
 0001:000c60c0       ?H0x012f0007_Fire_05@CHeadman@@QAEHABVCEntityEvent@@@Z 100c70c0 f   Headman.obj
 0001:000c6160       ?H0x012f0008_Fire_06@CHeadman@@QAEHABVCEntityEvent@@@Z 100c7160 f   Headman.obj
 0001:000c61c0       ?H0x012f000a_Fire_08@CHeadman@@QAEHABVCEntityEvent@@@Z 100c71c0 f   Headman.obj
 0001:000c6220       ?H0x012f0009_Fire_07@CHeadman@@QAEHABVCEntityEvent@@@Z 100c7220 f   Headman.obj
 0001:000c6280       ?H0x012f000b_Fire_09@CHeadman@@QAEHABVCEntityEvent@@@Z 100c7280 f   Headman.obj
 0001:000c62e0       ?H0x012f000d_Fire_11@CHeadman@@QAEHABVCEntityEvent@@@Z 100c72e0 f   Headman.obj
 0001:000c6340       ?BombermanAttack@CHeadman@@QAEHABVCEntityEvent@@@Z 100c7340 f   Headman.obj
 0001:000c6410       ?H0x012f0010_BombermanAttack_01@CHeadman@@QAEHABVCEntityEvent@@@Z 100c7410 f   Headman.obj
 0001:000c6490       ?H0x012f0011_BombermanAttack_02@CHeadman@@QAEHABVCEntityEvent@@@Z 100c7490 f   Headman.obj
 0001:000c6520       ?H0x012f0012_BombermanAttack_03@CHeadman@@QAEHABVCEntityEvent@@@Z 100c7520 f   Headman.obj
 0001:000c65a0       ?H0x012f0013_BombermanAttack_04@CHeadman@@QAEHABVCEntityEvent@@@Z 100c75a0 f   Headman.obj
 0001:000c6620       ?H0x012f0014_BombermanAttack_05@CHeadman@@QAEHABVCEntityEvent@@@Z 100c7620 f   Headman.obj
 0001:000c66a0       ?H0x012f0015_BombermanAttack_06@CHeadman@@QAEHABVCEntityEvent@@@Z 100c76a0 f   Headman.obj
 0001:000c68e0       ?H0x012f0016_BombermanAttack_07@CHeadman@@QAEHABVCEntityEvent@@@Z 100c78e0 f   Headman.obj
 0001:000c6960       ?H0x012f0017_BombermanAttack_08@CHeadman@@QAEHABVCEntityEvent@@@Z 100c7960 f   Headman.obj
 0001:000c69c0       ?FirecrackerAttack@CHeadman@@QAEHABVCEntityEvent@@@Z 100c79c0 f   Headman.obj
 0001:000c6ad0       ?H0x012f0019_FirecrackerAttack_01@CHeadman@@QAEHABVCEntityEvent@@@Z 100c7ad0 f   Headman.obj
 0001:000c6b50       ?H0x012f001a_FirecrackerAttack_02@CHeadman@@QAEHABVCEntityEvent@@@Z 100c7b50 f   Headman.obj
 0001:000c6bc0       ?H0x012f001b_FirecrackerAttack_03@CHeadman@@QAEHABVCEntityEvent@@@Z 100c7bc0 f   Headman.obj
 0001:000c6c40       ?H0x012f001c_FirecrackerAttack_04@CHeadman@@QAEHABVCEntityEvent@@@Z 100c7c40 f   Headman.obj
 0001:000c6cc0       ?H0x012f001d_FirecrackerAttack_05@CHeadman@@QAEHABVCEntityEvent@@@Z 100c7cc0 f   Headman.obj
 0001:000c6d40       ?H0x012f001e_FirecrackerAttack_06@CHeadman@@QAEHABVCEntityEvent@@@Z 100c7d40 f   Headman.obj
 0001:000c6df0       ?H0x012f001f_FirecrackerAttack_07@CHeadman@@QAEHABVCEntityEvent@@@Z 100c7df0 f   Headman.obj
 0001:000c6e70       ?H0x012f0020_FirecrackerAttack_08@CHeadman@@QAEHABVCEntityEvent@@@Z 100c7e70 f   Headman.obj
 0001:000c6f20       ?H0x012f0021_FirecrackerAttack_09@CHeadman@@QAEHABVCEntityEvent@@@Z 100c7f20 f   Headman.obj
 0001:000c6fa0       ?H0x012f0022_FirecrackerAttack_10@CHeadman@@QAEHABVCEntityEvent@@@Z 100c7fa0 f   Headman.obj
 0001:000c7050       ?H0x012f0023_FirecrackerAttack_11@CHeadman@@QAEHABVCEntityEvent@@@Z 100c8050 f   Headman.obj
 0001:000c70d0       ?H0x012f0024_FirecrackerAttack_12@CHeadman@@QAEHABVCEntityEvent@@@Z 100c80d0 f   Headman.obj
 0001:000c7180       ?H0x012f0025_FirecrackerAttack_13@CHeadman@@QAEHABVCEntityEvent@@@Z 100c8180 f   Headman.obj
 0001:000c7200       ?H0x012f0026_FirecrackerAttack_14@CHeadman@@QAEHABVCEntityEvent@@@Z 100c8200 f   Headman.obj
 0001:000c72c0       ?H0x012f0027_FirecrackerAttack_15@CHeadman@@QAEHABVCEntityEvent@@@Z 100c82c0 f   Headman.obj
 0001:000c7340       ?H0x012f0028_FirecrackerAttack_16@CHeadman@@QAEHABVCEntityEvent@@@Z 100c8340 f   Headman.obj
 0001:000c73a0       ?RocketmanAttack@CHeadman@@QAEHABVCEntityEvent@@@Z 100c83a0 f   Headman.obj
 0001:000c7430       ?H0x012f002a_RocketmanAttack_01@CHeadman@@QAEHABVCEntityEvent@@@Z 100c8430 f   Headman.obj
 0001:000c74b0       ?H0x012f002b_RocketmanAttack_02@CHeadman@@QAEHABVCEntityEvent@@@Z 100c84b0 f   Headman.obj
 0001:000c7590       ?H0x012f002c_RocketmanAttack_03@CHeadman@@QAEHABVCEntityEvent@@@Z 100c8590 f   Headman.obj
 0001:000c7610       ?H0x012f002d_RocketmanAttack_04@CHeadman@@QAEHABVCEntityEvent@@@Z 100c8610 f   Headman.obj
 0001:000c7670       ?Death@CHeadman@@QAEHABVCEntityEvent@@@Z 100c8670 f   Headman.obj
 0001:000c76e0       ?H0x012f002f_Death_01@CHeadman@@QAEHABVCEntityEvent@@@Z 100c86e0 f   Headman.obj
 0001:000c7780       ?H0x012f0030_Death_02@CHeadman@@QAEHABVCEntityEvent@@@Z 100c8780 f   Headman.obj
 0001:000c77e0       ?Main@CHeadman@@QAEHABVCEntityEvent@@@Z 100c87e0 f   Headman.obj
 0001:000c7d60       ??_GCHeadman@@UAEPAXI@Z    100c8d60 f i Headman.obj
 0001:000c7d60       ??_ECHeadman@@UAEPAXI@Z    100c8d60 f i Headman.obj
 0001:000c7d90       ??1CHeadman@@UAE@XZ        100c8d90 f i Headman.obj
 0001:000c7f00       ?ClearToDefault@@YAXAAW4HealthItemType@@@Z 100c8f00 f i HealthItem.obj
 0001:000c7f10       ??0EHealth@@QAE@ABV0@@Z    100c8f10 f i HealthItem.obj
 0001:000c7f40       ??4EHealth@@QAEAAV0@ABV0@@Z 100c8f40 f i HealthItem.obj
 0001:000c7f60       ??1EHealth@@UAE@XZ         100c8f60 f i HealthItem.obj
 0001:000c7f70       ??_GEHealth@@UAEPAXI@Z     100c8f70 f i HealthItem.obj
 0001:000c7fa0       ??_EEHealth@@UAEPAXI@Z     100c8fa0 f i HealthItem.obj
 0001:000c8000       ?ClearToDefault@@YAXAAVEHealth@@@Z 100c9000 f i HealthItem.obj
 0001:000c8370       ?CHealthItem_New@@YAPAVCEntity@@XZ 100c9370 f   HealthItem.obj
 0001:000c8430       ?CHealthItem_OnInitClass@@YAXXZ 100c9430 f   HealthItem.obj
 0001:000c8440       ?CHealthItem_OnEndClass@@YAXXZ 100c9440 f   HealthItem.obj
 0001:000c8450       ?CHealthItem_OnPrecache@@YAXPAVCDLLEntityClass@@J@Z 100c9450 f   HealthItem.obj
 0001:000c8460       ?CHealthItem_OnWorldEnd@@YAXPAVCWorld@@@Z 100c9460 f   HealthItem.obj
 0001:000c8470       ?CHealthItem_OnWorldInit@@YAXPAVCWorld@@@Z 100c9470 f   HealthItem.obj
 0001:000c8480       ?CHealthItem_OnWorldTick@@YAXPAVCWorld@@@Z 100c9480 f   HealthItem.obj
 0001:000c8490       ?CHealthItem_OnWorldRender@@YAXPAVCWorld@@@Z 100c9490 f   HealthItem.obj
 0001:000c84f0       ?MakeCopy@EHealth@@UAEPAVCEntityEvent@@XZ 100c94f0 f   HealthItem.obj
 0001:000c8530       ??0EHealth@@QAE@XZ         100c9530 f   HealthItem.obj
 0001:000c8550       ?SetDefaultProperties@CHealthItem@@UAEXXZ 100c9550 f   HealthItem.obj
 0001:000c8570       ?Precache@CHealthItem@@UAEXXZ 100c9570 f   HealthItem.obj
 0001:000c85e0       ?FillEntityStatistics@CHealthItem@@UAEHPAUEntityStats@@@Z 100c95e0 f   HealthItem.obj
 0001:000c8780       ?RenderParticles@CHealthItem@@UAEXXZ 100c9780 f   HealthItem.obj
 0001:000c87b0       ?SetProperties@CHealthItem@@QAEXXZ 100c97b0 f   HealthItem.obj
 0001:000c8d40       ?AdjustDifficulty@CHealthItem@@UAEXXZ 100c9d40 f   HealthItem.obj
 0001:000c8d70       ?ItemCollected@CHealthItem@@QAEHABVCEntityEvent@@@Z 100c9d70 f   HealthItem.obj
 0001:000c8f50       ?Main@CHealthItem@@QAEHABVCEntityEvent@@@Z 100c9f50 f   HealthItem.obj
 0001:000c8fc0       ??_ECHealthItem@@UAEPAXI@Z 100c9fc0 f i HealthItem.obj
 0001:000c8fc0       ??_GCHealthItem@@UAEPAXI@Z 100c9fc0 f i HealthItem.obj
 0001:000c8ff0       ??1CHealthItem@@UAE@XZ     100c9ff0 f i HealthItem.obj
 0001:000c9390       ?CHudPicHolder_New@@YAPAVCEntity@@XZ 100ca390 f   HudPicHolder.obj
 0001:000c9440       ?CHudPicHolder_OnInitClass@@YAXXZ 100ca440 f   HudPicHolder.obj
 0001:000c9450       ?CHudPicHolder_OnEndClass@@YAXXZ 100ca450 f   HudPicHolder.obj
 0001:000c9460       ?CHudPicHolder_OnPrecache@@YAXPAVCDLLEntityClass@@J@Z 100ca460 f   HudPicHolder.obj
 0001:000c9470       ?CHudPicHolder_OnWorldEnd@@YAXPAVCWorld@@@Z 100ca470 f   HudPicHolder.obj
 0001:000c9480       ?CHudPicHolder_OnWorldInit@@YAXPAVCWorld@@@Z 100ca480 f   HudPicHolder.obj
 0001:000c9490       ?CHudPicHolder_OnWorldTick@@YAXPAVCWorld@@@Z 100ca490 f   HudPicHolder.obj
 0001:000c94a0       ?CHudPicHolder_OnWorldRender@@YAXPAVCWorld@@@Z 100ca4a0 f   HudPicHolder.obj
 0001:000c95b0       ?SetDefaultProperties@CHudPicHolder@@UAEXXZ 100ca5b0 f   HudPicHolder.obj
 0001:000c96b0       ?GetDescription@CHudPicHolder@@UBEABVCTString@@XZ 100ca6b0 f   HudPicHolder.obj
 0001:000c9730       ?ReloadData@CHudPicHolder@@QAEHXZ 100ca730 f   HudPicHolder.obj
 0001:000c9790       ?LoadOneFile@CHudPicHolder@@QAEHABVCTFileName@@@Z 100ca790 f   HudPicHolder.obj
 0001:000c9820       ?Picture_On@CHudPicHolder@@QAEHVCTFileName@@@Z 100ca820 f   HudPicHolder.obj
 0001:000c9880       ?Picture_Off@CHudPicHolder@@QAEXXZ 100ca880 f   HudPicHolder.obj
 0001:000c9890       ?HudPic_Render@CHudPicHolder@@QAEMPAV1@PAVCDrawPort@@@Z 100ca890 f   HudPicHolder.obj
 0001:000c9c60       ?WaitAndFadeOut@CHudPicHolder@@QAEHABVCEntityEvent@@@Z 100cac60 f   HudPicHolder.obj
 0001:000c9cd0       ?H0x00f10001_WaitAndFadeOut_01@CHudPicHolder@@QAEHABVCEntityEvent@@@Z 100cacd0 f   HudPicHolder.obj
 0001:000c9d50       ?H0x00f10002_WaitAndFadeOut_02@CHudPicHolder@@QAEHABVCEntityEvent@@@Z 100cad50 f   HudPicHolder.obj
 0001:000c9db0       ?ApplyFadeOut@CHudPicHolder@@QAEHABVCEntityEvent@@@Z 100cadb0 f   HudPicHolder.obj
 0001:000c9e60       ?H0x00f10004_ApplyFadeOut_01@CHudPicHolder@@QAEHABVCEntityEvent@@@Z 100cae60 f   HudPicHolder.obj
 0001:000c9ee0       ?H0x00f10005_ApplyFadeOut_02@CHudPicHolder@@QAEHABVCEntityEvent@@@Z 100caee0 f   HudPicHolder.obj
 0001:000c9fc0       ?H0x00f10006_ApplyFadeOut_03@CHudPicHolder@@QAEHABVCEntityEvent@@@Z 100cafc0 f   HudPicHolder.obj
 0001:000ca020       ?Main@CHudPicHolder@@QAEHABVCEntityEvent@@@Z 100cb020 f   HudPicHolder.obj
 0001:000ca0c0       ?H0x00f10007_Main_01@CHudPicHolder@@QAEHABVCEntityEvent@@@Z 100cb0c0 f   HudPicHolder.obj
 0001:000ca140       ?H0x00f10008_Main_02@CHudPicHolder@@QAEHABVCEntityEvent@@@Z 100cb140 f   HudPicHolder.obj
 0001:000ca200       ?H0x00f10009_Main_03@CHudPicHolder@@QAEHABVCEntityEvent@@@Z 100cb200 f   HudPicHolder.obj
 0001:000ca3a0       ?H0x00f1000a_Main_04@CHudPicHolder@@QAEHABVCEntityEvent@@@Z 100cb3a0 f   HudPicHolder.obj
 0001:000ca400       ?IsTargetable@CHudPicHolder@@UBEHXZ 100cb400 f i HudPicHolder.obj
 0001:000ca410       ?GetName@CHudPicHolder@@UBEABVCTString@@XZ 100cb410 f i HudPicHolder.obj
 0001:000ca420       ?IsImportant@CHudPicHolder@@UBEHXZ 100cb420 f i HudPicHolder.obj
 0001:000ca430       ??_GCHudPicHolder@@UAEPAXI@Z 100cb430 f i HudPicHolder.obj
 0001:000ca430       ??_ECHudPicHolder@@UAEPAXI@Z 100cb430 f i HudPicHolder.obj
 0001:000ca460       ??1CHudPicHolder@@UAE@XZ   100cb460 f i HudPicHolder.obj
 0001:000ca890       ?CItem_New@@YAPAVCEntity@@XZ 100cb890 f   Item.obj
 0001:000ca950       ?CItem_OnInitClass@@YAXXZ  100cb950 f   Item.obj
 0001:000ca960       ?CItem_OnEndClass@@YAXXZ   100cb960 f   Item.obj
 0001:000ca970       ?CItem_OnPrecache@@YAXPAVCDLLEntityClass@@J@Z 100cb970 f   Item.obj
 0001:000ca980       ?CItem_OnWorldEnd@@YAXPAVCWorld@@@Z 100cb980 f   Item.obj
 0001:000ca990       ?CItem_OnWorldInit@@YAXPAVCWorld@@@Z 100cb990 f   Item.obj
 0001:000ca9a0       ?CItem_OnWorldTick@@YAXPAVCWorld@@@Z 100cb9a0 f   Item.obj
 0001:000ca9b0       ?CItem_OnWorldRender@@YAXPAVCWorld@@@Z 100cb9b0 f   Item.obj
 0001:000caa80       ?SetDefaultProperties@CItem@@UAEXXZ 100cba80 f   Item.obj
 0001:000cab60       ?AdjustDifficulty@CItem@@UAEXXZ 100cbb60 f   Item.obj
 0001:000cab70       ?AdjustMipFactor@CItem@@UAEXAAM@Z 100cbb70 f   Item.obj
 0001:000cac20       ?ShowItemParticles@CItem@@QAEHXZ 100cbc20 f   Item.obj
 0001:000cac50       ?MarkPickedBy@CItem@@QAEHPAVCEntity@@@Z 100cbc50 f   Item.obj
 0001:000caca0       ?GetPredictionRange@CItem@@UAEMXZ 100cbca0 f   Item.obj
 0001:000cacb0       ?AdjustShadingParameters@CItem@@UAEHAAV?$Vector@M$02@@AAK1@Z 100cbcb0 f   Item.obj
 0001:000cad90       ?Initialize@CItem@@QAEXXZ  100cbd90 f   Item.obj
 0001:000cae20       ?AddItem@CItem@@QAEXKKKKK@Z 100cbe20 f   Item.obj
 0001:000cae50       ?AddItemSpecial@CItem@@QAEXJKKKKK@Z 100cbe50 f   Item.obj
 0001:000cae80       ?AddItemAttachment@CItem@@QAEXJKKKKK@Z 100cbe80 f   Item.obj
 0001:000caec0       ?SetItemAttachmentAnim@CItem@@QAEXJJ@Z 100cbec0 f   Item.obj
 0001:000caf00       ?AddFlare@CItem@@QAEXKKABV?$Vector@M$02@@0@Z 100cbf00 f   Item.obj
 0001:000caf70       ?StretchItem@CItem@@QAEXABV?$Vector@M$02@@@Z 100cbf70 f   Item.obj
 0001:000cafa0       ?GetUsedMemory@CItem@@UAEJXZ 100cbfa0 f   Item.obj
 0001:000cafe0       ?ItemCollected@CItem@@QAEHABVCEntityEvent@@@Z 100cbfe0 f   Item.obj
 0001:000cb040       ?ItemLoop@CItem@@QAEHABVCEntityEvent@@@Z 100cc040 f   Item.obj
 0001:000cb0d0       ?H0x03200002_ItemLoop_01@CItem@@QAEHABVCEntityEvent@@@Z 100cc0d0 f   Item.obj
 0001:000cb150       ?H0x03200003_ItemLoop_02@CItem@@QAEHABVCEntityEvent@@@Z 100cc150 f   Item.obj
 0001:000cb1d0       ?H0x03200004_ItemLoop_03@CItem@@QAEHABVCEntityEvent@@@Z 100cc1d0 f   Item.obj
 0001:000cb300       ?H0x03200005_ItemLoop_04@CItem@@QAEHABVCEntityEvent@@@Z 100cc300 f   Item.obj
 0001:000cb370       ?H0x03200006_ItemLoop_05@CItem@@QAEHABVCEntityEvent@@@Z 100cc370 f   Item.obj
 0001:000cb3f0       ?H0x03200007_ItemLoop_06@CItem@@QAEHABVCEntityEvent@@@Z 100cc3f0 f   Item.obj
 0001:000cb450       ?ItemReceived@CItem@@QAEHABVCEntityEvent@@@Z 100cc450 f   Item.obj
 0001:000cb510       ?H0x03200009_ItemReceived_01@CItem@@QAEHABVCEntityEvent@@@Z 100cc510 f   Item.obj
 0001:000cb580       ?H0x0320000a_ItemReceived_02@CItem@@QAEHABVCEntityEvent@@@Z 100cc580 f   Item.obj
 0001:000cb5e0       ?H0x0320000c_ItemReceived_04@CItem@@QAEHABVCEntityEvent@@@Z 100cc5e0 f   Item.obj
 0001:000cb640       ?H0x0320000b_ItemReceived_03@CItem@@QAEHABVCEntityEvent@@@Z 100cc640 f   Item.obj
 0001:000cbae0       ?CKeyItem_New@@YAPAVCEntity@@XZ 100ccae0 f   KeyItem.obj
 0001:000cbba0       ?CKeyItem_OnInitClass@@YAXXZ 100ccba0 f   KeyItem.obj
 0001:000cbbb0       ?CKeyItem_OnEndClass@@YAXXZ 100ccbb0 f   KeyItem.obj
 0001:000cbbc0       ?CKeyItem_OnPrecache@@YAXPAVCDLLEntityClass@@J@Z 100ccbc0 f   KeyItem.obj
 0001:000cbbd0       ?CKeyItem_OnWorldEnd@@YAXPAVCWorld@@@Z 100ccbd0 f   KeyItem.obj
 0001:000cbbe0       ?CKeyItem_OnWorldInit@@YAXPAVCWorld@@@Z 100ccbe0 f   KeyItem.obj
 0001:000cbbf0       ?CKeyItem_OnWorldTick@@YAXPAVCWorld@@@Z 100ccbf0 f   KeyItem.obj
 0001:000cbc00       ?CKeyItem_OnWorldRender@@YAXPAVCWorld@@@Z 100ccc00 f   KeyItem.obj
 0001:000cbc60       ?MakeCopy@EKey@@UAEPAVCEntityEvent@@XZ 100ccc60 f   KeyItem.obj
 0001:000cbca0       ??0EKey@@QAE@XZ            100ccca0 f   KeyItem.obj
 0001:000cbcc0       ?GetKeyName@@YAPBDW4KeyItemType@@@Z 100cccc0 f   KeyItem.obj
 0001:000cbe50       ?SetDefaultProperties@CKeyItem@@UAEXXZ 100cce50 f   KeyItem.obj
 0001:000cbe70       ?Precache@CKeyItem@@UAEXXZ 100cce70 f   KeyItem.obj
 0001:000cbe80       ?FillEntityStatistics@CKeyItem@@UAEHPAUEntityStats@@@Z 100cce80 f   KeyItem.obj
 0001:000cbed0       ?RenderParticles@CKeyItem@@UAEXXZ 100cced0 f   KeyItem.obj
 0001:000cbf70       ?SetProperties@CKeyItem@@QAEXXZ 100ccf70 f   KeyItem.obj
 0001:000cc9d0       ?ItemCollected@CKeyItem@@QAEHABVCEntityEvent@@@Z 100cd9d0 f   KeyItem.obj
 0001:000ccaf0       ?Main@CKeyItem@@QAEHABVCEntityEvent@@@Z 100cdaf0 f   KeyItem.obj
 0001:000ccb70       ?IsImportant@CKeyItem@@UBEHXZ 100cdb70 f i KeyItem.obj
 0001:000ccb80       ??_ECKeyItem@@UAEPAXI@Z    100cdb80 f i KeyItem.obj
 0001:000ccb80       ??_GCKeyItem@@UAEPAXI@Z    100cdb80 f i KeyItem.obj
 0001:000ccbb0       ??1CKeyItem@@UAE@XZ        100cdbb0 f i KeyItem.obj
 0001:000cd050       ?CLarvaOffspring_New@@YAPAVCEntity@@XZ 100ce050 f   LarvaOffspring.obj
 0001:000cd0f0       ?CLarvaOffspring_OnInitClass@@YAXXZ 100ce0f0 f   LarvaOffspring.obj
 0001:000cd100       ?CLarvaOffspring_OnEndClass@@YAXXZ 100ce100 f   LarvaOffspring.obj
 0001:000cd110       ?CLarvaOffspring_OnPrecache@@YAXPAVCDLLEntityClass@@J@Z 100ce110 f   LarvaOffspring.obj
 0001:000cd120       ?CLarvaOffspring_OnWorldEnd@@YAXPAVCWorld@@@Z 100ce120 f   LarvaOffspring.obj
 0001:000cd130       ?CLarvaOffspring_OnWorldInit@@YAXPAVCWorld@@@Z 100ce130 f   LarvaOffspring.obj
 0001:000cd140       ?CLarvaOffspring_OnWorldTick@@YAXPAVCWorld@@@Z 100ce140 f   LarvaOffspring.obj
 0001:000cd150       ?CLarvaOffspring_OnWorldRender@@YAXPAVCWorld@@@Z 100ce150 f   LarvaOffspring.obj
 0001:000cd220       ?MakeCopy@ELaunchLarvaOffspring@@UAEPAVCEntityEvent@@XZ 100ce220 f   LarvaOffspring.obj
 0001:000cd260       ??0ELaunchLarvaOffspring@@QAE@XZ 100ce260 f   LarvaOffspring.obj
 0001:000cd2d0       ?SetDefaultProperties@CLarvaOffspring@@UAEXXZ 100ce2d0 f   LarvaOffspring.obj
 0001:000cd3a0       ?PreMoving@CLarvaOffspring@@UAEXXZ 100ce3a0 f   LarvaOffspring.obj
 0001:000cd400       ?Precache@CLarvaOffspring@@UAEXXZ 100ce400 f   LarvaOffspring.obj
 0001:000cd450       ?InitializeProjectile@CLarvaOffspring@@QAEXXZ 100ce450 f   LarvaOffspring.obj
 0001:000cd5c0       ?LarvaTailExplosion@CLarvaOffspring@@QAEXXZ 100ce5c0 f   LarvaOffspring.obj
 0001:000cd8c0       ?ProjectileTouch@CLarvaOffspring@@QAEXVCEntityPointer@@@Z 100ce8c0 f   LarvaOffspring.obj
 0001:000cda20       ?ProjectileHit@CLarvaOffspring@@QAEXXZ 100cea20 f   LarvaOffspring.obj
 0001:000cdb60       ?SpawnEffect@CLarvaOffspring@@QAEXABVCPlacement3D@@ABVESpawnEffect@@@Z 100ceb60 f   LarvaOffspring.obj
 0001:000cdbe0       ?GetRotationSpeed@CLarvaOffspring@@QAEMMMM@Z 100cebe0 f   LarvaOffspring.obj
 0001:000cdc30       ?LarvaOffspringGuidedSlide@CLarvaOffspring@@QAEHABVCEntityEvent@@@Z 100cec30 f   LarvaOffspring.obj
 0001:000cdce0       ?H0x01610004_LarvaOffspringGuidedSlide_03@CLarvaOffspring@@QAEHABVCEntityEvent@@@Z 100cece0 f   LarvaOffspring.obj
 0001:000cdff0       ?H0x01610002_LarvaOffspringGuidedSlide_01@CLarvaOffspring@@QAEHABVCEntityEvent@@@Z 100ceff0 f   LarvaOffspring.obj
 0001:000ce180       ?H0x01610003_LarvaOffspringGuidedSlide_02@CLarvaOffspring@@QAEHABVCEntityEvent@@@Z 100cf180 f   LarvaOffspring.obj
 0001:000ce1e0       ?H0x01610005_LarvaOffspringGuidedSlide_04@CLarvaOffspring@@QAEHABVCEntityEvent@@@Z 100cf1e0 f   LarvaOffspring.obj
 0001:000ce240       ?Main@CLarvaOffspring@@QAEHABVCEntityEvent@@@Z 100cf240 f   LarvaOffspring.obj
 0001:000ce310       ?H0x01610006_Main_01@CLarvaOffspring@@QAEHABVCEntityEvent@@@Z 100cf310 f   LarvaOffspring.obj
 0001:000ce3b0       ?H0x01610007_Main_02@CLarvaOffspring@@QAEHABVCEntityEvent@@@Z 100cf3b0 f   LarvaOffspring.obj
 0001:000cea50       ?CLight_New@@YAPAVCEntity@@XZ 100cfa50 f   Light.obj
 0001:000ceb50       ?CLight_OnPrecache@@YAXPAVCDLLEntityClass@@J@Z 100cfb50 f   Light.obj
 0001:000ceb60       ?CLight_OnWorldEnd@@YAXPAVCWorld@@@Z 100cfb60 f   Light.obj
 0001:000ceb70       ?CLight_OnWorldInit@@YAXPAVCWorld@@@Z 100cfb70 f   Light.obj
 0001:000ceb80       ?CLight_OnWorldTick@@YAXPAVCWorld@@@Z 100cfb80 f   Light.obj
 0001:000ceb90       ?CLight_OnWorldRender@@YAXPAVCWorld@@@Z 100cfb90 f   Light.obj
 0001:000cec60       ?CLight_OnInitClass@@YAXXZ 100cfc60 f   Light.obj
 0001:000cec70       ?CLight_OnEndClass@@YAXXZ  100cfc70 f   Light.obj
 0001:000cec80       ?SetDefaultProperties@CLight@@UAEXXZ 100cfc80 f   Light.obj
 0001:000cee30       ?GetAnimData@CLight@@UAEPAVCAnimData@@J@Z 100cfe30 f   Light.obj
 0001:000cee70       ?IsTargetable@CLight@@UBEHXZ 100cfe70 f   Light.obj
 0001:000cee80       ?IsImportant@CLight@@UBEHXZ 100cfe80 f   Light.obj
 0001:000cee90       ?HandleEvent@CLight@@UAEHABVCEntityEvent@@@Z 100cfe90 f   Light.obj
 0001:000cf020       ?MirrorAndStretch@CLight@@UAEXMH@Z 100d0020 f   Light.obj
 0001:000cf070       ?GetLightSource@CLight@@UAEPAVCLightSource@@XZ 100d0070 f   Light.obj
 0001:000cf110       ?SetupLightSource@CLight@@QAEXAAVCLightSource@@@Z 100d0110 f   Light.obj
 0001:000cf390       ?GetUsedMemory@CLight@@UAEJXZ 100d0390 f   Light.obj
 0001:000cf400       ?Main@CLight@@QAEHABVCEntityEvent@@@Z 100d0400 f   Light.obj
 0001:000cf930       ?GetName@CLight@@UBEABVCTString@@XZ 100d0930 f i Light.obj
 0001:000cf940       ?GetDescription@CLight@@UBEABVCTString@@XZ 100d0940 f i Light.obj
 0001:000cf950       ??_GCLight@@UAEPAXI@Z      100d0950 f i Light.obj
 0001:000cf950       ??_ECLight@@UAEPAXI@Z      100d0950 f i Light.obj
 0001:000cf980       ??1CLight@@UAE@XZ          100d0980 f i Light.obj
 0001:000cfd90       ?CLightning_New@@YAPAVCEntity@@XZ 100d0d90 f   Lightning.obj
 0001:000cfe40       ?CLightning_OnInitClass@@YAXXZ 100d0e40 f   Lightning.obj
 0001:000cfe50       ?CLightning_OnEndClass@@YAXXZ 100d0e50 f   Lightning.obj
 0001:000cfe60       ?CLightning_OnPrecache@@YAXPAVCDLLEntityClass@@J@Z 100d0e60 f   Lightning.obj
 0001:000cfe70       ?CLightning_OnWorldEnd@@YAXPAVCWorld@@@Z 100d0e70 f   Lightning.obj
 0001:000cfe80       ?CLightning_OnWorldInit@@YAXPAVCWorld@@@Z 100d0e80 f   Lightning.obj
 0001:000cfe90       ?CLightning_OnWorldTick@@YAXPAVCWorld@@@Z 100d0e90 f   Lightning.obj
 0001:000cfea0       ?CLightning_OnWorldRender@@YAXPAVCWorld@@@Z 100d0ea0 f   Lightning.obj
 0001:000cff70       ?SetDefaultProperties@CLightning@@UAEXXZ 100d0f70 f   Lightning.obj
 0001:000d0050       ?Precache@CLightning@@UAEXXZ 100d1050 f   Lightning.obj
 0001:000d0080       ?GetAnimData@CLightning@@UAEPAVCAnimData@@J@Z 100d1080 f   Lightning.obj
 0001:000d00e0       ?RenderParticles@CLightning@@UAEXXZ 100d10e0 f   Lightning.obj
 0001:000d0180       ?LightningStike@CLightning@@QAEHABVCEntityEvent@@@Z 100d1180 f   Lightning.obj
 0001:000d02f0       ?H0x025f0001_LightningStike_01@CLightning@@QAEHABVCEntityEvent@@@Z 100d12f0 f   Lightning.obj
 0001:000d0370       ?H0x025f0002_LightningStike_02@CLightning@@QAEHABVCEntityEvent@@@Z 100d1370 f   Lightning.obj
 0001:000d03d0       ?H0x025f0003_LightningStike_03@CLightning@@QAEHABVCEntityEvent@@@Z 100d13d0 f   Lightning.obj
 0001:000d04e0       ?H0x025f0004_LightningStike_04@CLightning@@QAEHABVCEntityEvent@@@Z 100d14e0 f   Lightning.obj
 0001:000d0560       ?H0x025f0005_LightningStike_05@CLightning@@QAEHABVCEntityEvent@@@Z 100d1560 f   Lightning.obj
 0001:000d05e0       ?H0x025f0006_LightningStike_06@CLightning@@QAEHABVCEntityEvent@@@Z 100d15e0 f   Lightning.obj
 0001:000d0670       ?H0x025f0007_LightningStike_07@CLightning@@QAEHABVCEntityEvent@@@Z 100d1670 f   Lightning.obj
 0001:000d06e0       ?H0x025f0008_LightningStike_08@CLightning@@QAEHABVCEntityEvent@@@Z 100d16e0 f   Lightning.obj
 0001:000d0740       ?Main@CLightning@@QAEHABVCEntityEvent@@@Z 100d1740 f   Lightning.obj
 0001:000d0a00       ?H0x025f0009_Main_01@CLightning@@QAEHABVCEntityEvent@@@Z 100d1a00 f   Lightning.obj
 0001:000d0a80       ?H0x025f000a_Main_02@CLightning@@QAEHABVCEntityEvent@@@Z 100d1a80 f   Lightning.obj
 0001:000d0ae0       ?H0x025f000d_Main_05@CLightning@@QAEHABVCEntityEvent@@@Z 100d1ae0 f   Lightning.obj
 0001:000d0b50       ?H0x025f000b_Main_03@CLightning@@QAEHABVCEntityEvent@@@Z 100d1b50 f   Lightning.obj
 0001:000d0bc0       ?H0x025f000c_Main_04@CLightning@@QAEHABVCEntityEvent@@@Z 100d1bc0 f   Lightning.obj
 0001:000d0c20       ?H0x025f000e_Main_06@CLightning@@QAEHABVCEntityEvent@@@Z 100d1c20 f   Lightning.obj
 0001:000d0c30       ?IsTargetable@CLightning@@UBEHXZ 100d1c30 f i Lightning.obj
 0001:000d0c40       ?GetName@CLightning@@UBEABVCTString@@XZ 100d1c40 f i Lightning.obj
 0001:000d0c50       ??_GCLightning@@UAEPAXI@Z  100d1c50 f i Lightning.obj
 0001:000d0c50       ??_ECLightning@@UAEPAXI@Z  100d1c50 f i Lightning.obj
 0001:000d0c80       ??1CLightning@@UAE@XZ      100d1c80 f i Lightning.obj
 0001:000d0e80       ?CMarker_New@@YAPAVCEntity@@XZ 100d1e80 f   Marker.obj
 0001:000d0f20       ?CMarker_OnInitClass@@YAXXZ 100d1f20 f   Marker.obj
 0001:000d0f30       ?CMarker_OnEndClass@@YAXXZ 100d1f30 f   Marker.obj
 0001:000d0f40       ?CMarker_OnPrecache@@YAXPAVCDLLEntityClass@@J@Z 100d1f40 f   Marker.obj
 0001:000d0f50       ?CMarker_OnWorldEnd@@YAXPAVCWorld@@@Z 100d1f50 f   Marker.obj
 0001:000d0f60       ?CMarker_OnWorldInit@@YAXPAVCWorld@@@Z 100d1f60 f   Marker.obj
 0001:000d0f70       ?CMarker_OnWorldTick@@YAXPAVCWorld@@@Z 100d1f70 f   Marker.obj
 0001:000d0f80       ?CMarker_OnWorldRender@@YAXPAVCWorld@@@Z 100d1f80 f   Marker.obj
 0001:000d1050       ?SetDefaultProperties@CMarker@@UAEXXZ 100d2050 f   Marker.obj
 0001:000d10d0       ?GetDescription@CMarker@@UBEABVCTString@@XZ 100d20d0 f   Marker.obj
 0001:000d1110       ?MovesByTargetedRoute@CMarker@@UBEHAAVCTString@@@Z 100d2110 f   Marker.obj
 0001:000d1140       ?DropsMarker@CMarker@@UBEHAAVCTFileName@@AAVCTString@@@Z 100d2140 f   Marker.obj
 0001:000d11e0       ?IsMarker@CMarker@@UBEHXZ  100d21e0 f   Marker.obj
 0001:000d11f0       ?GetUsedMemory@CMarker@@UAEJXZ 100d21f0 f   Marker.obj
 0001:000d1230       ?Main@CMarker@@QAEHABVCEntityEvent@@@Z 100d2230 f   Marker.obj
 0001:000d1480       ?CMessageHolder_New@@YAPAVCEntity@@XZ 100d2480 f   MessageHolder.obj
 0001:000d1540       ?CMessageHolder_OnInitClass@@YAXXZ 100d2540 f   MessageHolder.obj
 0001:000d1550       ?CMessageHolder_OnEndClass@@YAXXZ 100d2550 f   MessageHolder.obj
 0001:000d1560       ?CMessageHolder_OnPrecache@@YAXPAVCDLLEntityClass@@J@Z 100d2560 f   MessageHolder.obj
 0001:000d1570       ?CMessageHolder_OnWorldEnd@@YAXPAVCWorld@@@Z 100d2570 f   MessageHolder.obj
 0001:000d1580       ?CMessageHolder_OnWorldInit@@YAXPAVCWorld@@@Z 100d2580 f   MessageHolder.obj
 0001:000d1590       ?CMessageHolder_OnWorldTick@@YAXPAVCWorld@@@Z 100d2590 f   MessageHolder.obj
 0001:000d15a0       ?CMessageHolder_OnWorldRender@@YAXPAVCWorld@@@Z 100d25a0 f   MessageHolder.obj
 0001:000d1670       ?SetDefaultProperties@CMessageHolder@@UAEXXZ 100d2670 f   MessageHolder.obj
 0001:000d1760       ?GetDescription@CMessageHolder@@UBEABVCTString@@XZ 100d2760 f   MessageHolder.obj
 0001:000d17e0       ?Main@CMessageHolder@@QAEHABVCEntityEvent@@@Z 100d27e0 f   MessageHolder.obj
 0001:000d1880       ?H0x00e20000_Main_01@CMessageHolder@@QAEHABVCEntityEvent@@@Z 100d2880 f   MessageHolder.obj
 0001:000d19b0       ?H0x00e20001_Main_02@CMessageHolder@@QAEHABVCEntityEvent@@@Z 100d29b0 f   MessageHolder.obj
 0001:000d1a10       ?GetName@CMessageHolder@@UBEABVCTString@@XZ 100d2a10 f i MessageHolder.obj
 0001:000d1a20       ?IsTargetable@CMessageHolder@@UBEHXZ 100d2a20 f i MessageHolder.obj
 0001:000d1a30       ??_GCMessageHolder@@UAEPAXI@Z 100d2a30 f i MessageHolder.obj
 0001:000d1a30       ??_ECMessageHolder@@UAEPAXI@Z 100d2a30 f i MessageHolder.obj
 0001:000d1a60       ??1CMessageHolder@@UAE@XZ  100d2a60 f i MessageHolder.obj
 0001:000d1b50       ??0EMessageItem@@QAE@ABV0@@Z 100d2b50 f i MessageItem.obj
 0001:000d1bc0       ??4EMessageItem@@QAEAAV0@ABV0@@Z 100d2bc0 f i MessageItem.obj
 0001:000d1c00       ??1EMessageItem@@UAE@XZ    100d2c00 f i MessageItem.obj
 0001:000d1c50       ??_GEMessageItem@@UAEPAXI@Z 100d2c50 f i MessageItem.obj
 0001:000d1c80       ??_EEMessageItem@@UAEPAXI@Z 100d2c80 f i MessageItem.obj
 0001:000d1ce0       ?ClearToDefault@@YAXAAVEMessageItem@@@Z 100d2ce0 f i MessageItem.obj
 0001:000d1f40       ?CMessageItem_New@@YAPAVCEntity@@XZ 100d2f40 f   MessageItem.obj
 0001:000d2040       ?CMessageItem_OnInitClass@@YAXXZ 100d3040 f   MessageItem.obj
 0001:000d2050       ?CMessageItem_OnEndClass@@YAXXZ 100d3050 f   MessageItem.obj
 0001:000d2060       ?CMessageItem_OnPrecache@@YAXPAVCDLLEntityClass@@J@Z 100d3060 f   MessageItem.obj
 0001:000d2070       ?CMessageItem_OnWorldEnd@@YAXPAVCWorld@@@Z 100d3070 f   MessageItem.obj
 0001:000d2080       ?CMessageItem_OnWorldInit@@YAXPAVCWorld@@@Z 100d3080 f   MessageItem.obj
 0001:000d2090       ?CMessageItem_OnWorldTick@@YAXPAVCWorld@@@Z 100d3090 f   MessageItem.obj
 0001:000d20a0       ?CMessageItem_OnWorldRender@@YAXPAVCWorld@@@Z 100d30a0 f   MessageItem.obj
 0001:000d2100       ?MakeCopy@EMessageItem@@UAEPAVCEntityEvent@@XZ 100d3100 f   MessageItem.obj
 0001:000d2180       ??0EMessageItem@@QAE@XZ    100d3180 f   MessageItem.obj
 0001:000d2210       ?SetDefaultProperties@CMessageItem@@UAEXXZ 100d3210 f   MessageItem.obj
 0001:000d22d0       ?Precache@CMessageItem@@UAEXXZ 100d32d0 f   MessageItem.obj
 0001:000d22e0       ?FillEntityStatistics@CMessageItem@@UAEHPAUEntityStats@@@Z 100d32e0 f   MessageItem.obj
 0001:000d2330       ?RenderParticles@CMessageItem@@UAEXXZ 100d3330 f   MessageItem.obj
 0001:000d2350       ?SetProperties@CMessageItem@@QAEXXZ 100d3350 f   MessageItem.obj
 0001:000d2480       ?ItemCollected@CMessageItem@@QAEHABVCEntityEvent@@@Z 100d3480 f   MessageItem.obj
 0001:000d25b0       ?Main@CMessageItem@@QAEHABVCEntityEvent@@@Z 100d35b0 f   MessageItem.obj
 0001:000d2630       ??_ECMessageItem@@UAEPAXI@Z 100d3630 f i MessageItem.obj
 0001:000d2630       ??_GCMessageItem@@UAEPAXI@Z 100d3630 f i MessageItem.obj
 0001:000d2660       ??1CMessageItem@@UAE@XZ    100d3660 f i MessageItem.obj
 0001:000d29e0       ?CMeteorShower_New@@YAPAVCEntity@@XZ 100d39e0 f   MeteorShower.obj
 0001:000d2a50       ?CMeteorShower_OnInitClass@@YAXXZ 100d3a50 f   MeteorShower.obj
 0001:000d2a60       ?CMeteorShower_OnEndClass@@YAXXZ 100d3a60 f   MeteorShower.obj
 0001:000d2a70       ?CMeteorShower_OnPrecache@@YAXPAVCDLLEntityClass@@J@Z 100d3a70 f   MeteorShower.obj
 0001:000d2a80       ?CMeteorShower_OnWorldEnd@@YAXPAVCWorld@@@Z 100d3a80 f   MeteorShower.obj
 0001:000d2a90       ?CMeteorShower_OnWorldInit@@YAXPAVCWorld@@@Z 100d3a90 f   MeteorShower.obj
 0001:000d2aa0       ?CMeteorShower_OnWorldTick@@YAXPAVCWorld@@@Z 100d3aa0 f   MeteorShower.obj
 0001:000d2ab0       ?CMeteorShower_OnWorldRender@@YAXPAVCWorld@@@Z 100d3ab0 f   MeteorShower.obj
 0001:000d2b80       ?SetDefaultProperties@CMeteorShower@@UAEXXZ 100d3b80 f   MeteorShower.obj
 0001:000d2c30       ?Precache@CMeteorShower@@UAEXXZ 100d3c30 f   MeteorShower.obj
 0001:000d2c40       ?SpawnProjectile@CMeteorShower@@QAEXABVCPlacement3D@@@Z 100d3c40 f   MeteorShower.obj
 0001:000d2d80       ?MaybeShootMeteor@CMeteorShower@@QAEXXZ 100d3d80 f   MeteorShower.obj
 0001:000d2f50       ?Active@CMeteorShower@@QAEHABVCEntityEvent@@@Z 100d3f50 f   MeteorShower.obj
 0001:000d2fb0       ?H0x02670003_Active_03@CMeteorShower@@QAEHABVCEntityEvent@@@Z 100d3fb0 f   MeteorShower.obj
 0001:000d3020       ?H0x02670001_Active_01@CMeteorShower@@QAEHABVCEntityEvent@@@Z 100d4020 f   MeteorShower.obj
 0001:000d30d0       ?H0x02670002_Active_02@CMeteorShower@@QAEHABVCEntityEvent@@@Z 100d40d0 f   MeteorShower.obj
 0001:000d3130       ?H0x02670004_Active_04@CMeteorShower@@QAEHABVCEntityEvent@@@Z 100d4130 f   MeteorShower.obj
 0001:000d3140       ?Inactive@CMeteorShower@@QAEHABVCEntityEvent@@@Z 100d4140 f   MeteorShower.obj
 0001:000d31b0       ?H0x02670006_Inactive_01@CMeteorShower@@QAEHABVCEntityEvent@@@Z 100d41b0 f   MeteorShower.obj
 0001:000d3240       ?H0x02670007_Inactive_02@CMeteorShower@@QAEHABVCEntityEvent@@@Z 100d4240 f   MeteorShower.obj
 0001:000d3250       ?Main@CMeteorShower@@QAEHABVCEntityEvent@@@Z 100d4250 f   MeteorShower.obj
 0001:000d3330       ?H0x02670008_Main_01@CMeteorShower@@QAEHABVCEntityEvent@@@Z 100d4330 f   MeteorShower.obj
 0001:000d33b0       ?H0x02670009_Main_02@CMeteorShower@@QAEHABVCEntityEvent@@@Z 100d43b0 f   MeteorShower.obj
 0001:000d3410       ?IsTargetable@CMeteorShower@@UBEHXZ 100d4410 f i MeteorShower.obj
 0001:000d3420       ?GetName@CMeteorShower@@UBEABVCTString@@XZ 100d4420 f i MeteorShower.obj
 0001:000d3430       ??_GCMeteorShower@@UAEPAXI@Z 100d4430 f i MeteorShower.obj
 0001:000d3430       ??_ECMeteorShower@@UAEPAXI@Z 100d4430 f i MeteorShower.obj
 0001:000d3460       ??1CMeteorShower@@UAE@XZ   100d4460 f i MeteorShower.obj
 0001:000d3640       ?CMirrorMarker_New@@YAPAVCEntity@@XZ 100d4640 f   MirrorMarker.obj
 0001:000d36e0       ?CMirrorMarker_OnInitClass@@YAXXZ 100d46e0 f   MirrorMarker.obj
 0001:000d36f0       ?CMirrorMarker_OnEndClass@@YAXXZ 100d46f0 f   MirrorMarker.obj
 0001:000d3700       ?CMirrorMarker_OnPrecache@@YAXPAVCDLLEntityClass@@J@Z 100d4700 f   MirrorMarker.obj
 0001:000d3710       ?CMirrorMarker_OnWorldEnd@@YAXPAVCWorld@@@Z 100d4710 f   MirrorMarker.obj
 0001:000d3720       ?CMirrorMarker_OnWorldInit@@YAXPAVCWorld@@@Z 100d4720 f   MirrorMarker.obj
 0001:000d3730       ?CMirrorMarker_OnWorldTick@@YAXPAVCWorld@@@Z 100d4730 f   MirrorMarker.obj
 0001:000d3740       ?CMirrorMarker_OnWorldRender@@YAXPAVCWorld@@@Z 100d4740 f   MirrorMarker.obj
 0001:000d37a0       ?SetDefaultProperties@CMirrorMarker@@UAEXXZ 100d47a0 f   MirrorMarker.obj
 0001:000d37c0       ?GetMirrorName@CMirrorMarker@@QAEABVCTString@@XZ 100d47c0 f   MirrorMarker.obj
 0001:000d37d0       ?GetMirror@CMirrorMarker@@QAEXAAVCMirrorParameters@@@Z 100d47d0 f   MirrorMarker.obj
 0001:000d3910       ?Main@CMirrorMarker@@QAEHABVCEntityEvent@@@Z 100d4910 f   MirrorMarker.obj
 0001:000d39c0       ?IsImportant@CMirrorMarker@@UBEHXZ 100d49c0 f i MirrorMarker.obj
 0001:000d39d0       ??_GCMirrorMarker@@UAEPAXI@Z 100d49d0 f i MirrorMarker.obj
 0001:000d39d0       ??_ECMirrorMarker@@UAEPAXI@Z 100d49d0 f i MirrorMarker.obj
 0001:000d3a00       ??1CMirrorMarker@@UAE@XZ   100d4a00 f i MirrorMarker.obj
 0001:000d4290       ?CModelDestruction_New@@YAPAVCEntity@@XZ 100d5290 f   ModelDestruction.obj
 0001:000d4350       ?CModelDestruction_OnInitClass@@YAXXZ 100d5350 f   ModelDestruction.obj
 0001:000d4360       ?CModelDestruction_OnEndClass@@YAXXZ 100d5360 f   ModelDestruction.obj
 0001:000d4370       ?CModelDestruction_OnPrecache@@YAXPAVCDLLEntityClass@@J@Z 100d5370 f   ModelDestruction.obj
 0001:000d4380       ?CModelDestruction_OnWorldEnd@@YAXPAVCWorld@@@Z 100d5380 f   ModelDestruction.obj
 0001:000d4390       ?CModelDestruction_OnWorldInit@@YAXPAVCWorld@@@Z 100d5390 f   ModelDestruction.obj
 0001:000d43a0       ?CModelDestruction_OnWorldTick@@YAXPAVCWorld@@@Z 100d53a0 f   ModelDestruction.obj
 0001:000d43b0       ?CModelDestruction_OnWorldRender@@YAXPAVCWorld@@@Z 100d53b0 f   ModelDestruction.obj
 0001:000d4480       ?MakeCopy@ERangeModelDestruction@@UAEPAVCEntityEvent@@XZ 100d5480 f   ModelDestruction.obj
 0001:000d44b0       ??0ERangeModelDestruction@@QAE@XZ 100d54b0 f   ModelDestruction.obj
 0001:000d44c0       ?SetDefaultProperties@CModelDestruction@@UAEXXZ 100d54c0 f   ModelDestruction.obj
 0001:000d4690       ?Precache@CModelDestruction@@UAEXXZ 100d5690 f   ModelDestruction.obj
 0001:000d46f0       ?GetAnimData@CModelDestruction@@UAEPAVCAnimData@@J@Z 100d56f0 f   ModelDestruction.obj
 0001:000d4730       ?GetDescription@CModelDestruction@@UBEABVCTString@@XZ 100d5730 f   ModelDestruction.obj
 0001:000d47d0       ?CheckOneModelTarget@CModelDestruction@@QAEXAAVCEntityPointer@@@Z 100d57d0 f   ModelDestruction.obj
 0001:000d4830       ?GetNextPhase@CModelDestruction@@QAEPAVCModelHolder2@@XZ 100d5830 f   ModelDestruction.obj
 0001:000d4860       ?GetModelsCount@CModelDestruction@@QBEJXZ 100d5860 f   ModelDestruction.obj
 0001:000d48b0       ?GetModel@CModelDestruction@@QAEPAVCModelHolder2@@J@Z 100d58b0 f   ModelDestruction.obj
 0001:000d48f0       ?SpawnDebris@CModelDestruction@@QAEXPAVCModelHolder2@@@Z 100d58f0 f   ModelDestruction.obj
 0001:000d5540       ?Main@CModelDestruction@@QAEHABVCEntityEvent@@@Z 100d6540 f   ModelDestruction.obj
 0001:000d55e0       ?GetName@CModelDestruction@@UBEABVCTString@@XZ 100d65e0 f i ModelDestruction.obj
 0001:000d55f0       ?IsTargetable@CModelDestruction@@UBEHXZ 100d65f0 f i ModelDestruction.obj
 0001:000d5600       ?IsImportant@CModelDestruction@@UBEHXZ 100d6600 f i ModelDestruction.obj
 0001:000d5610       ??_ECModelDestruction@@UAEPAXI@Z 100d6610 f i ModelDestruction.obj
 0001:000d5610       ??_GCModelDestruction@@UAEPAXI@Z 100d6610 f i ModelDestruction.obj
 0001:000d5640       ??1CModelDestruction@@UAE@XZ 100d6640 f i ModelDestruction.obj
 0001:000d5be0       ?CModelHolder_New@@YAPAVCEntity@@XZ 100d6be0 f   ModelHolder.obj
 0001:000d5cf0       ?CModelHolder_OnInitClass@@YAXXZ 100d6cf0 f   ModelHolder.obj
 0001:000d5d00       ?CModelHolder_OnEndClass@@YAXXZ 100d6d00 f   ModelHolder.obj
 0001:000d5d10       ?CModelHolder_OnPrecache@@YAXPAVCDLLEntityClass@@J@Z 100d6d10 f   ModelHolder.obj
 0001:000d5d20       ?CModelHolder_OnWorldEnd@@YAXPAVCWorld@@@Z 100d6d20 f   ModelHolder.obj
 0001:000d5d30       ?CModelHolder_OnWorldInit@@YAXPAVCWorld@@@Z 100d6d30 f   ModelHolder.obj
 0001:000d5d40       ?CModelHolder_OnWorldTick@@YAXPAVCWorld@@@Z 100d6d40 f   ModelHolder.obj
 0001:000d5d50       ?CModelHolder_OnWorldRender@@YAXPAVCWorld@@@Z 100d6d50 f   ModelHolder.obj
 0001:000d5e20       ?SetDefaultProperties@CModelHolder@@UAEXXZ 100d6e20 f   ModelHolder.obj
 0001:000d6000       ?GetAnimData@CModelHolder@@UAEPAVCAnimData@@J@Z 100d7000 f   ModelHolder.obj
 0001:000d6050       ?AdjustShadingParameters@CModelHolder@@UAEHAAV?$Vector@M$02@@AAK1@Z 100d7050 f   ModelHolder.obj
 0001:000d6350       ?InitModelHolder@CModelHolder@@QAEXXZ 100d7350 f   ModelHolder.obj
 0001:000d6790       ?Main@CModelHolder@@QAEHABVCEntityEvent@@@Z 100d7790 f   ModelHolder.obj
 0001:000d67b0       ?GetName@CModelHolder@@UBEABVCTString@@XZ 100d77b0 f i ModelHolder.obj
 0001:000d67c0       ?GetDescription@CModelHolder@@UBEABVCTString@@XZ 100d77c0 f i ModelHolder.obj
 0001:000d67d0       ??_ECModelHolder@@UAEPAXI@Z 100d77d0 f i ModelHolder.obj
 0001:000d67d0       ??_GCModelHolder@@UAEPAXI@Z 100d77d0 f i ModelHolder.obj
 0001:000d6800       ??1CModelHolder@@UAE@XZ    100d7800 f i ModelHolder.obj
 0001:000d73c0       ?CModelHolder2_New@@YAPAVCEntity@@XZ 100d83c0 f   ModelHolder2.obj
 0001:000d7530       ?CModelHolder2_OnInitClass@@YAXXZ 100d8530 f   ModelHolder2.obj
 0001:000d7540       ?CModelHolder2_OnEndClass@@YAXXZ 100d8540 f   ModelHolder2.obj
 0001:000d7550       ?CModelHolder2_OnPrecache@@YAXPAVCDLLEntityClass@@J@Z 100d8550 f   ModelHolder2.obj
 0001:000d7560       ?CModelHolder2_OnWorldEnd@@YAXPAVCWorld@@@Z 100d8560 f   ModelHolder2.obj
 0001:000d7570       ?CModelHolder2_OnWorldInit@@YAXPAVCWorld@@@Z 100d8570 f   ModelHolder2.obj
 0001:000d7580       ?CModelHolder2_OnWorldTick@@YAXPAVCWorld@@@Z 100d8580 f   ModelHolder2.obj
 0001:000d7590       ?CModelHolder2_OnWorldRender@@YAXPAVCWorld@@@Z 100d8590 f   ModelHolder2.obj
 0001:000d7660       ?SetDefaultProperties@CModelHolder2@@UAEXXZ 100d8660 f   ModelHolder2.obj
 0001:000d7a80       ?Precache@CModelHolder2@@UAEXXZ 100d8a80 f   ModelHolder2.obj
 0001:000d7a90       ?FillEntityStatistics@CModelHolder2@@UAEHPAUEntityStats@@@Z 100d8a90 f   ModelHolder2.obj
 0001:000d7c00       ?GetClassificationBoxStretch@CModelHolder2@@UAE?AV?$Vector@M$02@@XZ 100d8c00 f   ModelHolder2.obj
 0001:000d7c40       ?GetMaxTessellationLevel@CModelHolder2@@UAEMXZ 100d8c40 f   ModelHolder2.obj
 0001:000d7c50       ?ReceiveDamage@CModelHolder2@@UAEXPAVCEntity@@W4DamageType@@MABV?$Vector@M$02@@2@Z 100d8c50 f   ModelHolder2.obj
 0001:000d83f0       ?GetEntityInfo@CModelHolder2@@UAEPAXXZ 100d93f0 f   ModelHolder2.obj
 0001:000d8420       ?GetDestruction@CModelHolder2@@QAEPAVCModelDestruction@@XZ 100d9420 f   ModelHolder2.obj
 0001:000d8430       ?IsTargetable@CModelHolder2@@UBEHXZ 100d9430 f   ModelHolder2.obj
 0001:000d8440       ?GetAnimData@CModelHolder2@@UAEPAVCAnimData@@J@Z 100d9440 f   ModelHolder2.obj
 0001:000d8490       ?AdjustMipFactor@CModelHolder2@@UAEXAAM@Z 100d9490 f   ModelHolder2.obj
 0001:000d8580       ?AdjustShadingParameters@CModelHolder2@@UAEHAAV?$Vector@M$02@@AAK1@Z 100d9580 f   ModelHolder2.obj
 0001:000d89b0       ?MirrorAndStretch@CModelHolder2@@UAEXMH@Z 100d99b0 f   ModelHolder2.obj
 0001:000d89e0       ?StretchModel@CModelHolder2@@QAEXXZ 100d99e0 f   ModelHolder2.obj
 0001:000d8d80       ?InitModelHolder@CModelHolder2@@QAEXXZ 100d9d80 f   ModelHolder2.obj
 0001:000d9480       ?GetUsedMemory@CModelHolder2@@UAEJXZ 100da480 f   ModelHolder2.obj
 0001:000d9530       ?Die@CModelHolder2@@QAEHABVCEntityEvent@@@Z 100da530 f   ModelHolder2.obj
 0001:000d9720       ?Main@CModelHolder2@@QAEHABVCEntityEvent@@@Z 100da720 f   ModelHolder2.obj
 0001:000d9870       ?H0x00d20001_Main_01@CModelHolder2@@QAEHABVCEntityEvent@@@Z 100da870 f   ModelHolder2.obj
 0001:000d9a90       ?H0x00d20002_Main_02@CModelHolder2@@QAEHABVCEntityEvent@@@Z 100daa90 f   ModelHolder2.obj
 0001:000d9aa0       ?GetName@CModelHolder2@@UBEABVCTString@@XZ 100daaa0 f i ModelHolder2.obj
 0001:000d9ab0       ??_GCModelHolder2@@UAEPAXI@Z 100daab0 f i ModelHolder2.obj
 0001:000d9ab0       ??_ECModelHolder2@@UAEPAXI@Z 100daab0 f i ModelHolder2.obj
 0001:000d9ae0       ??1CModelHolder2@@UAE@XZ   100daae0 f i ModelHolder2.obj
 0001:000d9c70       ?ClearToDefault@@YAXAAW4SkaCustomShadingType@@@Z 100dac70 f i ModelHolder3.obj
 0001:000d9c80       ?ClearToDefault@@YAXAAW4SkaShadowType@@@Z 100dac80 f i ModelHolder3.obj
 0001:000da060       ?CModelHolder3_New@@YAPAVCEntity@@XZ 100db060 f   ModelHolder3.obj
 0001:000da110       ?CModelHolder3_OnInitClass@@YAXXZ 100db110 f   ModelHolder3.obj
 0001:000da120       ?CModelHolder3_OnEndClass@@YAXXZ 100db120 f   ModelHolder3.obj
 0001:000da130       ?CModelHolder3_OnPrecache@@YAXPAVCDLLEntityClass@@J@Z 100db130 f   ModelHolder3.obj
 0001:000da140       ?CModelHolder3_OnWorldEnd@@YAXPAVCWorld@@@Z 100db140 f   ModelHolder3.obj
 0001:000da150       ?CModelHolder3_OnWorldInit@@YAXPAVCWorld@@@Z 100db150 f   ModelHolder3.obj
 0001:000da160       ?CModelHolder3_OnWorldTick@@YAXPAVCWorld@@@Z 100db160 f   ModelHolder3.obj
 0001:000da170       ?CModelHolder3_OnWorldRender@@YAXPAVCWorld@@@Z 100db170 f   ModelHolder3.obj
 0001:000da240       ?SetDefaultProperties@CModelHolder3@@UAEXXZ 100db240 f   ModelHolder3.obj
 0001:000da3b0       ?FillEntityStatistics@CModelHolder3@@UAEHPAUEntityStats@@@Z 100db3b0 f   ModelHolder3.obj
 0001:000da440       ?GetClassificationBoxStretch@CModelHolder3@@UAE?AV?$Vector@M$02@@XZ 100db440 f   ModelHolder3.obj
 0001:000da480       ?GetMaxTessellationLevel@CModelHolder3@@UAEMXZ 100db480 f   ModelHolder3.obj
 0001:000da490       ?ReceiveDamage@CModelHolder3@@UAEXPAVCEntity@@W4DamageType@@MABV?$Vector@M$02@@2@Z 100db490 f   ModelHolder3.obj
 0001:000da4a0       ?GetEntityInfo@CModelHolder3@@UAEPAXXZ 100db4a0 f   ModelHolder3.obj
 0001:000da4b0       ?IsTargetable@CModelHolder3@@UBEHXZ 100db4b0 f   ModelHolder3.obj
 0001:000da4c0       ?AdjustShadingParameters@CModelHolder3@@UAEHAAV?$Vector@M$02@@AAK1@Z 100db4c0 f   ModelHolder3.obj
 0001:000da600       ?MirrorAndStretch@CModelHolder3@@UAEXMH@Z 100db600 f   ModelHolder3.obj
 0001:000da630       ?StretchModel@CModelHolder3@@QAEXXZ 100db630 f   ModelHolder3.obj
 0001:000da840       ?InitModelHolder@CModelHolder3@@QAEXXZ 100db840 f   ModelHolder3.obj
 0001:000daa60       ?Die@CModelHolder3@@QAEHABVCEntityEvent@@@Z 100dba60 f   ModelHolder3.obj
 0001:000dab00       ?Main@CModelHolder3@@QAEHABVCEntityEvent@@@Z 100dbb00 f   ModelHolder3.obj
 0001:000dab70       ?H0x00f20001_Main_01@CModelHolder3@@QAEHABVCEntityEvent@@@Z 100dbb70 f   ModelHolder3.obj
 0001:000dac90       ?H0x00f20002_Main_02@CModelHolder3@@QAEHABVCEntityEvent@@@Z 100dbc90 f   ModelHolder3.obj
 0001:000daca0       ?GetName@CModelHolder3@@UBEABVCTString@@XZ 100dbca0 f i ModelHolder3.obj
 0001:000dacb0       ?GetDescription@CModelHolder3@@UBEABVCTString@@XZ 100dbcb0 f i ModelHolder3.obj
 0001:000dacc0       ??_GCModelHolder3@@UAEPAXI@Z 100dbcc0 f i ModelHolder3.obj
 0001:000dacc0       ??_ECModelHolder3@@UAEPAXI@Z 100dbcc0 f i ModelHolder3.obj
 0001:000dacf0       ??1CModelHolder3@@UAE@XZ   100dbcf0 f i ModelHolder3.obj
 0001:000dbc20       ?CMovingBrush_New@@YAPAVCEntity@@XZ 100dcc20 f   MovingBrush.obj
 0001:000dbd40       ?CMovingBrush_OnInitClass@@YAXXZ 100dcd40 f   MovingBrush.obj
 0001:000dbd50       ?CMovingBrush_OnEndClass@@YAXXZ 100dcd50 f   MovingBrush.obj
 0001:000dbd60       ?CMovingBrush_OnPrecache@@YAXPAVCDLLEntityClass@@J@Z 100dcd60 f   MovingBrush.obj
 0001:000dbd70       ?CMovingBrush_OnWorldEnd@@YAXPAVCWorld@@@Z 100dcd70 f   MovingBrush.obj
 0001:000dbd80       ?CMovingBrush_OnWorldInit@@YAXPAVCWorld@@@Z 100dcd80 f   MovingBrush.obj
 0001:000dbd90       ?CMovingBrush_OnWorldTick@@YAXPAVCWorld@@@Z 100dcd90 f   MovingBrush.obj
 0001:000dbda0       ?CMovingBrush_OnWorldRender@@YAXPAVCWorld@@@Z 100dcda0 f   MovingBrush.obj
 0001:000dbe70       ?MakeCopy@EHit@@UAEPAVCEntityEvent@@XZ 100dce70 f   MovingBrush.obj
 0001:000dbea0       ??0EHit@@QAE@XZ            100dcea0 f   MovingBrush.obj
 0001:000dbeb0       ?MakeCopy@EBrushDestroyed@@UAEPAVCEntityEvent@@XZ 100dceb0 f   MovingBrush.obj
 0001:000dbee0       ??0EBrushDestroyed@@QAE@XZ 100dcee0 f   MovingBrush.obj
 0001:000dbef0       ?SetDefaultProperties@CMovingBrush@@UAEXXZ 100dcef0 f   MovingBrush.obj
 0001:000dc270       ?GetVisTweaks@CMovingBrush@@UAEKXZ 100dd270 f   MovingBrush.obj
 0001:000dc280       ?Precache@CMovingBrush@@UAEXXZ 100dd280 f   MovingBrush.obj
 0001:000dc2b0       ?GetForce@CMovingBrush@@UAEXJABV?$Vector@M$02@@AAVCForceStrength@@1@Z 100dd2b0 f   MovingBrush.obj
 0001:000dc2d0       ?ReceiveDamage@CMovingBrush@@UAEXPAVCEntity@@W4DamageType@@MABV?$Vector@M$02@@2@Z 100dd2d0 f   MovingBrush.obj
 0001:000dc460       ?AdjustAngle@CMovingBrush@@QAEXAAM@Z 100dd460 f   MovingBrush.obj
 0001:000dc4b0       ?MovesByTargetedRoute@CMovingBrush@@UBEHAAVCTString@@@Z 100dd4b0 f   MovingBrush.obj
 0001:000dc4e0       ?DropsMarker@CMovingBrush@@UBEHAAVCTFileName@@AAVCTString@@@Z 100dd4e0 f   MovingBrush.obj
 0001:000dc580       ?GetDescription@CMovingBrush@@UBEABVCTString@@XZ 100dd580 f   MovingBrush.obj
 0001:000dc5c0       ?GetMirrorName@CMovingBrush@@UAEABVCTString@@J@Z 100dd5c0 f   MovingBrush.obj
 0001:000dc8c0       ?GetMirror@CMovingBrush@@UAEHJAAVCMirrorParameters@@@Z 100dd8c0 f   MovingBrush.obj
 0001:000dc920       ?PreMoving@CMovingBrush@@UAEXXZ 100dd920 f   MovingBrush.obj
 0001:000dcd90       ?LoadMarkerParameters@CMovingBrush@@QAEHXZ 100ddd90 f   MovingBrush.obj
 0001:000dcfd0       ?CanReactOnEntity@CMovingBrush@@QAEHPAVCEntity@@@Z 100ddfd0 f   MovingBrush.obj
 0001:000dd020       ?PlayStartSound@CMovingBrush@@QAEXXZ 100de020 f   MovingBrush.obj
 0001:000dd080       ?PlayStopSound@CMovingBrush@@QAEXXZ 100de080 f   MovingBrush.obj
 0001:000dd0e0       ?PlayFollowSound@CMovingBrush@@QAEXXZ 100de0e0 f   MovingBrush.obj
 0001:000dd140       ?StopFollowSound@CMovingBrush@@QAEXXZ 100de140 f   MovingBrush.obj
 0001:000dd150       ?MovingOn@CMovingBrush@@QAEXXZ 100de150 f   MovingBrush.obj
 0001:000dd180       ?MovingOff@CMovingBrush@@QAEXXZ 100de180 f   MovingBrush.obj
 0001:000dd1b0       ?MaybeActivateRotation@CMovingBrush@@QAEXXZ 100de1b0 f   MovingBrush.obj
 0001:000dd210       ?DeactivateRotation@CMovingBrush@@QAEXXZ 100de210 f   MovingBrush.obj
 0001:000dd250       ?SetCombinedRotation@CMovingBrush@@QAEXV?$Vector@M$02@@0@Z 100de250 f   MovingBrush.obj
 0001:000dd260       ?GetUsedMemory@CMovingBrush@@UAEJXZ 100de260 f   MovingBrush.obj
 0001:000dd2a0       ?MoveToMarker@CMovingBrush@@QAEHABVCEntityEvent@@@Z 100de2a0 f   MovingBrush.obj
 0001:000dd640       ?H0x00650003_MoveToMarker_01@CMovingBrush@@QAEHABVCEntityEvent@@@Z 100de640 f   MovingBrush.obj
 0001:000dd8b0       ?H0x00650004_MoveToMarker_02@CMovingBrush@@QAEHABVCEntityEvent@@@Z 100de8b0 f   MovingBrush.obj
 0001:000dd8c0       ?BounceObstructed@CMovingBrush@@QAEHABVCEntityEvent@@@Z 100de8c0 f   MovingBrush.obj
 0001:000dd930       ?H0x00650006_BounceObstructed_01@CMovingBrush@@QAEHABVCEntityEvent@@@Z 100de930 f   MovingBrush.obj
 0001:000dd9b0       ?H0x00650007_BounceObstructed_02@CMovingBrush@@QAEHABVCEntityEvent@@@Z 100de9b0 f   MovingBrush.obj
 0001:000dda60       ?MoveBrush@CMovingBrush@@QAEHABVCEntityEvent@@@Z 100dea60 f   MovingBrush.obj
 0001:000ddaf0       ?H0x00650011_MoveBrush_09@CMovingBrush@@QAEHABVCEntityEvent@@@Z 100deaf0 f   MovingBrush.obj
 0001:000ddc00       ?H0x0065000d_MoveBrush_05@CMovingBrush@@QAEHABVCEntityEvent@@@Z 100dec00 f   MovingBrush.obj
 0001:000ddca0       ?H0x00650009_MoveBrush_01@CMovingBrush@@QAEHABVCEntityEvent@@@Z 100deca0 f   MovingBrush.obj
 0001:000dddb0       ?H0x0065000a_MoveBrush_02@CMovingBrush@@QAEHABVCEntityEvent@@@Z 100dedb0 f   MovingBrush.obj
 0001:000dde10       ?H0x0065000b_MoveBrush_03@CMovingBrush@@QAEHABVCEntityEvent@@@Z 100dee10 f   MovingBrush.obj
 0001:000dde70       ?H0x0065000c_MoveBrush_04@CMovingBrush@@QAEHABVCEntityEvent@@@Z 100dee70 f   MovingBrush.obj
 0001:000ddf10       ?H0x0065000e_MoveBrush_06@CMovingBrush@@QAEHABVCEntityEvent@@@Z 100def10 f   MovingBrush.obj
 0001:000ddfb0       ?H0x0065000f_MoveBrush_07@CMovingBrush@@QAEHABVCEntityEvent@@@Z 100defb0 f   MovingBrush.obj
 0001:000de020       ?H0x00650010_MoveBrush_08@CMovingBrush@@QAEHABVCEntityEvent@@@Z 100df020 f   MovingBrush.obj
 0001:000de0e0       ?H0x00650012_MoveBrush_10@CMovingBrush@@QAEHABVCEntityEvent@@@Z 100df0e0 f   MovingBrush.obj
 0001:000de140       ?TeleportToStopMarker@CMovingBrush@@QAEHABVCEntityEvent@@@Z 100df140 f   MovingBrush.obj
 0001:000de250       ?Main@CMovingBrush@@QAEHABVCEntityEvent@@@Z 100df250 f   MovingBrush.obj
 0001:000de330       ?H0x00650014_Main_01@CMovingBrush@@QAEHABVCEntityEvent@@@Z 100df330 f   MovingBrush.obj
 0001:000de3b0       ?H0x00650015_Main_02@CMovingBrush@@QAEHABVCEntityEvent@@@Z 100df3b0 f   MovingBrush.obj
 0001:000de430       ?H0x00650016_Main_03@CMovingBrush@@QAEHABVCEntityEvent@@@Z 100df430 f   MovingBrush.obj
 0001:000dec20       ?H0x00650017_Main_04@CMovingBrush@@QAEHABVCEntityEvent@@@Z 100dfc20 f   MovingBrush.obj
 0001:000dec80       ?GetName@CMovingBrush@@UBEABVCTString@@XZ 100dfc80 f i MovingBrush.obj
 0001:000dec90       ?IsTargetable@CMovingBrush@@UBEHXZ 100dfc90 f i MovingBrush.obj
 0001:000deca0       ??_ECMovingBrush@@UAEPAXI@Z 100dfca0 f i MovingBrush.obj
 0001:000deca0       ??_GCMovingBrush@@UAEPAXI@Z 100dfca0 f i MovingBrush.obj
 0001:000decd0       ??1CMovingBrush@@UAE@XZ    100dfcd0 f i MovingBrush.obj
 0001:000df2a0       ?CMovingBrushMarker_New@@YAPAVCEntity@@XZ 100e02a0 f   MovingBrushMarker.obj
 0001:000df360       ?CMovingBrushMarker_OnInitClass@@YAXXZ 100e0360 f   MovingBrushMarker.obj
 0001:000df370       ?CMovingBrushMarker_OnEndClass@@YAXXZ 100e0370 f   MovingBrushMarker.obj
 0001:000df380       ?CMovingBrushMarker_OnPrecache@@YAXPAVCDLLEntityClass@@J@Z 100e0380 f   MovingBrushMarker.obj
 0001:000df390       ?CMovingBrushMarker_OnWorldEnd@@YAXPAVCWorld@@@Z 100e0390 f   MovingBrushMarker.obj
 0001:000df3a0       ?CMovingBrushMarker_OnWorldInit@@YAXPAVCWorld@@@Z 100e03a0 f   MovingBrushMarker.obj
 0001:000df3b0       ?CMovingBrushMarker_OnWorldTick@@YAXPAVCWorld@@@Z 100e03b0 f   MovingBrushMarker.obj
 0001:000df3c0       ?CMovingBrushMarker_OnWorldRender@@YAXPAVCWorld@@@Z 100e03c0 f   MovingBrushMarker.obj
 0001:000df420       ?SetDefaultProperties@CMovingBrushMarker@@UAEXXZ 100e0420 f   MovingBrushMarker.obj
 0001:000df530       ?DropsMarker@CMovingBrushMarker@@UBEHAAVCTFileName@@AAVCTString@@@Z 100e0530 f   MovingBrushMarker.obj
 0001:000df5d0       ?GetUsedMemory@CMovingBrushMarker@@UAEJXZ 100e05d0 f   MovingBrushMarker.obj
 0001:000df5e0       ?Main@CMovingBrushMarker@@QAEHABVCEntityEvent@@@Z 100e05e0 f   MovingBrushMarker.obj
 0001:000df640       ??_GCMovingBrushMarker@@UAEPAXI@Z 100e0640 f i MovingBrushMarker.obj
 0001:000df640       ??_ECMovingBrushMarker@@UAEPAXI@Z 100e0640 f i MovingBrushMarker.obj
 0001:000df670       ??1CMovingBrushMarker@@UAE@XZ 100e0670 f i MovingBrushMarker.obj
 0001:000df980       ?CMusicChanger_New@@YAPAVCEntity@@XZ 100e0980 f   MusicChanger.obj
 0001:000dfa30       ?CMusicChanger_OnInitClass@@YAXXZ 100e0a30 f   MusicChanger.obj
 0001:000dfa40       ?CMusicChanger_OnEndClass@@YAXXZ 100e0a40 f   MusicChanger.obj
 0001:000dfa50       ?CMusicChanger_OnPrecache@@YAXPAVCDLLEntityClass@@J@Z 100e0a50 f   MusicChanger.obj
 0001:000dfa60       ?CMusicChanger_OnWorldEnd@@YAXPAVCWorld@@@Z 100e0a60 f   MusicChanger.obj
 0001:000dfa70       ?CMusicChanger_OnWorldInit@@YAXPAVCWorld@@@Z 100e0a70 f   MusicChanger.obj
 0001:000dfa80       ?CMusicChanger_OnWorldTick@@YAXPAVCWorld@@@Z 100e0a80 f   MusicChanger.obj
 0001:000dfa90       ?CMusicChanger_OnWorldRender@@YAXPAVCWorld@@@Z 100e0a90 f   MusicChanger.obj
 0001:000dfb60       ?SetDefaultProperties@CMusicChanger@@UAEXXZ 100e0b60 f   MusicChanger.obj
 0001:000dfc40       ?Main@CMusicChanger@@QAEHABVCEntityEvent@@@Z 100e0c40 f   MusicChanger.obj
 0001:000dfd40       ?H0x00e10000_Main_01@CMusicChanger@@QAEHABVCEntityEvent@@@Z 100e0d40 f   MusicChanger.obj
 0001:000dfdc0       ?H0x00e10001_Main_02@CMusicChanger@@QAEHABVCEntityEvent@@@Z 100e0dc0 f   MusicChanger.obj
 0001:000dfe30       ?H0x00e10002_Main_03@CMusicChanger@@QAEHABVCEntityEvent@@@Z 100e0e30 f   MusicChanger.obj
 0001:000dff50       ?H0x00e10003_Main_04@CMusicChanger@@QAEHABVCEntityEvent@@@Z 100e0f50 f   MusicChanger.obj
 0001:000dffb0       ?GetName@CMusicChanger@@UBEABVCTString@@XZ 100e0fb0 f i MusicChanger.obj
 0001:000dffc0       ?GetDescription@CMusicChanger@@UBEABVCTString@@XZ 100e0fc0 f i MusicChanger.obj
 0001:000dffd0       ?IsTargetable@CMusicChanger@@UBEHXZ 100e0fd0 f i MusicChanger.obj
 0001:000dffe0       ?IsImportant@CMusicChanger@@UBEHXZ 100e0fe0 f i MusicChanger.obj
 0001:000dfff0       ??_GCMusicChanger@@UAEPAXI@Z 100e0ff0 f i MusicChanger.obj
 0001:000dfff0       ??_ECMusicChanger@@UAEPAXI@Z 100e0ff0 f i MusicChanger.obj
 0001:000e0020       ??1CMusicChanger@@UAE@XZ   100e1020 f i MusicChanger.obj
 0001:000e0a30       ?CMusicHolder_New@@YAPAVCEntity@@XZ 100e1a30 f   MusicHolder.obj
 0001:000e0be0       ?CMusicHolder_OnInitClass@@YAXXZ 100e1be0 f   MusicHolder.obj
 0001:000e0bf0       ?CMusicHolder_OnEndClass@@YAXXZ 100e1bf0 f   MusicHolder.obj
 0001:000e0c00       ?CMusicHolder_OnPrecache@@YAXPAVCDLLEntityClass@@J@Z 100e1c00 f   MusicHolder.obj
 0001:000e0c10       ?CMusicHolder_OnWorldEnd@@YAXPAVCWorld@@@Z 100e1c10 f   MusicHolder.obj
 0001:000e0c20       ?CMusicHolder_OnWorldInit@@YAXPAVCWorld@@@Z 100e1c20 f   MusicHolder.obj
 0001:000e0c30       ?CMusicHolder_OnWorldTick@@YAXPAVCWorld@@@Z 100e1c30 f   MusicHolder.obj
 0001:000e0c40       ?CMusicHolder_OnWorldRender@@YAXPAVCWorld@@@Z 100e1c40 f   MusicHolder.obj
 0001:000e0d10       ?MakeCopy@EChangeMusic@@UAEPAVCEntityEvent@@XZ 100e1d10 f   MusicHolder.obj
 0001:000e0da0       ??0EChangeMusic@@QAE@XZ    100e1da0 f   MusicHolder.obj
 0001:000e0e30       ?FadeInFactor@@YAMM@Z      100e1e30 f   MusicHolder.obj
 0001:000e0e50       ?FadeOutFactor@@YAMM@Z     100e1e50 f   MusicHolder.obj
 0001:000e0e70       ?SetDefaultProperties@CMusicHolder@@UAEXXZ 100e1e70 f   MusicHolder.obj
 0001:000e1190       ?CountEnemies@CMusicHolder@@QAEXXZ 100e2190 f   MusicHolder.obj
 0001:000e1310       ?CheckOldFussMakers@CMusicHolder@@QAEXXZ 100e2310 f   MusicHolder.obj
 0001:000e1440       ?GetFussMakersScore@CMusicHolder@@QAEJXZ 100e2440 f   MusicHolder.obj
 0001:000e1480       ?ChangeMusicChannel@CMusicHolder@@QAEXW4MusicType@@ABVCTFileName@@M@Z 100e2480 f   MusicHolder.obj
 0001:000e1550       ?FadeOutChannel@CMusicHolder@@QAEXJJ@Z 100e2550 f   MusicHolder.obj
 0001:000e15f0       ?FadeInChannel@CMusicHolder@@QAEXJJ@Z 100e25f0 f   MusicHolder.obj
 0001:000e16a0       ?CrossFadeOneChannel@CMusicHolder@@QAEXW4MusicType@@@Z 100e26a0 f   MusicHolder.obj
 0001:000e1700       ?Main@CMusicHolder@@QAEHABVCEntityEvent@@@Z 100e2700 f   MusicHolder.obj
 0001:000e17a0       ?H0x00de0001_Main_01@CMusicHolder@@QAEHABVCEntityEvent@@@Z 100e27a0 f   MusicHolder.obj
 0001:000e1820       ?H0x00de0002_Main_02@CMusicHolder@@QAEHABVCEntityEvent@@@Z 100e2820 f   MusicHolder.obj
 0001:000e1930       ?H0x00de0003_Main_03@CMusicHolder@@QAEHABVCEntityEvent@@@Z 100e2930 f   MusicHolder.obj
 0001:000e19b0       ?H0x00de0004_Main_04@CMusicHolder@@QAEHABVCEntityEvent@@@Z 100e29b0 f   MusicHolder.obj
 0001:000e1a10       ?H0x00de0007_Main_07@CMusicHolder@@QAEHABVCEntityEvent@@@Z 100e2a10 f   MusicHolder.obj
 0001:000e1a80       ?H0x00de0005_Main_05@CMusicHolder@@QAEHABVCEntityEvent@@@Z 100e2a80 f   MusicHolder.obj
 0001:000e1b50       ?H0x00de0006_Main_06@CMusicHolder@@QAEHABVCEntityEvent@@@Z 100e2b50 f   MusicHolder.obj
 0001:000e1cf0       ?H0x00de0008_Main_08@CMusicHolder@@QAEHABVCEntityEvent@@@Z 100e2cf0 f   MusicHolder.obj
 0001:000e1d50       ?GetName@CMusicHolder@@UBEABVCTString@@XZ 100e2d50 f i MusicHolder.obj
 0001:000e1d60       ?IsTargetable@CMusicHolder@@UBEHXZ 100e2d60 f i MusicHolder.obj
 0001:000e1d70       ?IsImportant@CMusicHolder@@UBEHXZ 100e2d70 f i MusicHolder.obj
 0001:000e1d80       ??_ECMusicHolder@@UAEPAXI@Z 100e2d80 f i MusicHolder.obj
 0001:000e1d80       ??_GCMusicHolder@@UAEPAXI@Z 100e2d80 f i MusicHolder.obj
 0001:000e1db0       ??1CMusicHolder@@UAE@XZ    100e2db0 f i MusicHolder.obj
 0001:000e1fa0       ??1?$CDynamicContainer@VCEntity@@@@QAE@XZ 100e2fa0 f i MusicHolder.obj
 0001:000e2010       ??1?$CStaticStackArray@PAVCEntity@@@@QAE@XZ 100e3010 f i MusicHolder.obj
 0001:000e2040       ?Clear@?$CStaticStackArray@PAVCEntity@@@@QAEXXZ 100e3040 f i MusicHolder.obj
 0001:000e2070       ?Delete@?$CStaticArray@PAVCEntity@@@@QAEXXZ 100e3070 f i MusicHolder.obj
 0001:000e22e0       ?CNavigationMarker_New@@YAPAVCEntity@@XZ 100e32e0 f   NavigationMarker.obj
 0001:000e2340       ?CNavigationMarker_OnInitClass@@YAXXZ 100e3340 f   NavigationMarker.obj
 0001:000e2350       ?CNavigationMarker_OnEndClass@@YAXXZ 100e3350 f   NavigationMarker.obj
 0001:000e2360       ?CNavigationMarker_OnPrecache@@YAXPAVCDLLEntityClass@@J@Z 100e3360 f   NavigationMarker.obj
 0001:000e2370       ?CNavigationMarker_OnWorldEnd@@YAXPAVCWorld@@@Z 100e3370 f   NavigationMarker.obj
 0001:000e2380       ?CNavigationMarker_OnWorldInit@@YAXPAVCWorld@@@Z 100e3380 f   NavigationMarker.obj
 0001:000e2390       ?CNavigationMarker_OnWorldTick@@YAXPAVCWorld@@@Z 100e3390 f   NavigationMarker.obj
 0001:000e23a0       ?CNavigationMarker_OnWorldRender@@YAXPAVCWorld@@@Z 100e33a0 f   NavigationMarker.obj
 0001:000e2470       ?SetDefaultProperties@CNavigationMarker@@UAEXXZ 100e3470 f   NavigationMarker.obj
 0001:000e2570       ??0CNavigationMarker@@QAE@XZ 100e3570 f   NavigationMarker.obj
 0001:000e2600       ??1CNavigationMarker@@UAE@XZ 100e3600 f   NavigationMarker.obj
 0001:000e2710       ?Read_t@CNavigationMarker@@UAEXPAVCTStream@@@Z 100e3710 f   NavigationMarker.obj
 0001:000e2730       ?GetTarget@CNavigationMarker@@UBEPAVCEntity@@XZ 100e3730 f   NavigationMarker.obj
 0001:000e2740       ?GetEntityInfo@CNavigationMarker@@UAEPAXXZ 100e3740 f   NavigationMarker.obj
 0001:000e2750       ?GetPathNode@CNavigationMarker@@QAEPAVCPathNode@@XZ 100e3750 f   NavigationMarker.obj
 0001:000e27c0       ?TargetPointer@CNavigationMarker@@QAEAAVCEntityPointer@@J@Z 100e37c0 f   NavigationMarker.obj
 0001:000e27e0       ?Target@CNavigationMarker@@QAEAAV1@J@Z 100e37e0 f   NavigationMarker.obj
 0001:000e2800       ?GetLink@CNavigationMarker@@QAEPAV1@J@Z 100e3800 f   NavigationMarker.obj
 0001:000e2830       ?GetDescription@CNavigationMarker@@UBEABVCTString@@XZ 100e3830 f   NavigationMarker.obj
 0001:000e2840       ?MovesByTargetedRoute@CNavigationMarker@@UBEHAAVCTString@@@Z 100e3840 f   NavigationMarker.obj
 0001:000e2870       ?DropsMarker@CNavigationMarker@@UBEHAAVCTFileName@@AAVCTString@@@Z 100e3870 f   NavigationMarker.obj
 0001:000e2910       ?IsMarker@CNavigationMarker@@UBEHXZ 100e3910 f   NavigationMarker.obj
 0001:000e2920       ?Main@CNavigationMarker@@QAEHABVCEntityEvent@@@Z 100e3920 f   NavigationMarker.obj
 0001:000e2a60       ?ClearToDefault@@YAXAAW4ParticlesHolderType@@@Z 100e3a60 f i ParticlesHolder.obj
 0001:000e2ee0       ?CParticlesHolder_New@@YAPAVCEntity@@XZ 100e3ee0 f   ParticlesHolder.obj
 0001:000e2f70       ?CParticlesHolder_OnInitClass@@YAXXZ 100e3f70 f   ParticlesHolder.obj
 0001:000e2f80       ?CParticlesHolder_OnEndClass@@YAXXZ 100e3f80 f   ParticlesHolder.obj
 0001:000e2f90       ?CParticlesHolder_OnPrecache@@YAXPAVCDLLEntityClass@@J@Z 100e3f90 f   ParticlesHolder.obj
 0001:000e2fa0       ?CParticlesHolder_OnWorldEnd@@YAXPAVCWorld@@@Z 100e3fa0 f   ParticlesHolder.obj
 0001:000e2fb0       ?CParticlesHolder_OnWorldInit@@YAXPAVCWorld@@@Z 100e3fb0 f   ParticlesHolder.obj
 0001:000e2fc0       ?CParticlesHolder_OnWorldTick@@YAXPAVCWorld@@@Z 100e3fc0 f   ParticlesHolder.obj
 0001:000e2fd0       ?CParticlesHolder_OnWorldRender@@YAXPAVCWorld@@@Z 100e3fd0 f   ParticlesHolder.obj
 0001:000e30a0       ?SetDefaultProperties@CParticlesHolder@@UAEXXZ 100e40a0 f   ParticlesHolder.obj
 0001:000e3190       ?RenderParticles@CParticlesHolder@@UAEXXZ 100e4190 f   ParticlesHolder.obj
 0001:000e3600       ?IsTargetable@CParticlesHolder@@UBEHXZ 100e4600 f   ParticlesHolder.obj
 0001:000e3610       ?MirrorAndStretch@CParticlesHolder@@UAEXMH@Z 100e4610 f   ParticlesHolder.obj
 0001:000e3640       ?StretchModel@CParticlesHolder@@QAEXXZ 100e4640 f   ParticlesHolder.obj
 0001:000e3830       ?GetLerpedPlacement@CParticlesHolder@@UBE?AVCPlacement3D@@XZ 100e4830 f   ParticlesHolder.obj
 0001:000e3860       ?GetUsedMemory@CParticlesHolder@@UAEJXZ 100e4860 f   ParticlesHolder.obj
 0001:000e38a0       ?Active@CParticlesHolder@@QAEHABVCEntityEvent@@@Z 100e48a0 f   ParticlesHolder.obj
 0001:000e3910       ?H0x00df0003_Active_03@CParticlesHolder@@QAEHABVCEntityEvent@@@Z 100e4910 f   ParticlesHolder.obj
 0001:000e3990       ?H0x00df0001_Active_01@CParticlesHolder@@QAEHABVCEntityEvent@@@Z 100e4990 f   ParticlesHolder.obj
 0001:000e3a70       ?H0x00df0002_Active_02@CParticlesHolder@@QAEHABVCEntityEvent@@@Z 100e4a70 f   ParticlesHolder.obj
 0001:000e3ad0       ?H0x00df0004_Active_04@CParticlesHolder@@QAEHABVCEntityEvent@@@Z 100e4ad0 f   ParticlesHolder.obj
 0001:000e3ae0       ?Inactive@CParticlesHolder@@QAEHABVCEntityEvent@@@Z 100e4ae0 f   ParticlesHolder.obj
 0001:000e3b50       ?H0x00df0006_Inactive_01@CParticlesHolder@@QAEHABVCEntityEvent@@@Z 100e4b50 f   ParticlesHolder.obj
 0001:000e3c00       ?H0x00df0007_Inactive_02@CParticlesHolder@@QAEHABVCEntityEvent@@@Z 100e4c00 f   ParticlesHolder.obj
 0001:000e3c10       ?Main@CParticlesHolder@@QAEHABVCEntityEvent@@@Z 100e4c10 f   ParticlesHolder.obj
 0001:000e3d20       ?GetName@CParticlesHolder@@UBEABVCTString@@XZ 100e4d20 f i ParticlesHolder.obj
 0001:000e3d30       ?GetDescription@CParticlesHolder@@UBEABVCTString@@XZ 100e4d30 f i ParticlesHolder.obj
 0001:000e3d40       ??_GCParticlesHolder@@UAEPAXI@Z 100e4d40 f i ParticlesHolder.obj
 0001:000e3d40       ??_ECParticlesHolder@@UAEPAXI@Z 100e4d40 f i ParticlesHolder.obj
 0001:000e3d70       ??1CParticlesHolder@@UAE@XZ 100e4d70 f i ParticlesHolder.obj
 0001:000e4040       ?CPendulum_New@@YAPAVCEntity@@XZ 100e5040 f   Pendulum.obj
 0001:000e40c0       ?CPendulum_OnInitClass@@YAXXZ 100e50c0 f   Pendulum.obj
 0001:000e40d0       ?CPendulum_OnEndClass@@YAXXZ 100e50d0 f   Pendulum.obj
 0001:000e40e0       ?CPendulum_OnPrecache@@YAXPAVCDLLEntityClass@@J@Z 100e50e0 f   Pendulum.obj
 0001:000e40f0       ?CPendulum_OnWorldEnd@@YAXPAVCWorld@@@Z 100e50f0 f   Pendulum.obj
 0001:000e4100       ?CPendulum_OnWorldInit@@YAXPAVCWorld@@@Z 100e5100 f   Pendulum.obj
 0001:000e4110       ?CPendulum_OnWorldTick@@YAXPAVCWorld@@@Z 100e5110 f   Pendulum.obj
 0001:000e4120       ?CPendulum_OnWorldRender@@YAXPAVCWorld@@@Z 100e5120 f   Pendulum.obj
 0001:000e41f0       ?SetDefaultProperties@CPendulum@@UAEXXZ 100e51f0 f   Pendulum.obj
 0001:000e4270       ?ReceiveDamage@CPendulum@@UAEXPAVCEntity@@W4DamageType@@MABV?$Vector@M$02@@2@Z 100e5270 f   Pendulum.obj
 0001:000e42f0       ?PostMoving@CPendulum@@UAEXXZ 100e52f0 f   Pendulum.obj
 0001:000e4400       ?Main@CPendulum@@QAEHABVCEntityEvent@@@Z 100e5400 f   Pendulum.obj
 0001:000e44b0       ?H0x006a0000_Main_01@CPendulum@@QAEHABVCEntityEvent@@@Z 100e54b0 f   Pendulum.obj
 0001:000e4520       ?H0x006a0001_Main_02@CPendulum@@QAEHABVCEntityEvent@@@Z 100e5520 f   Pendulum.obj
 0001:000e4590       ?GetName@CPendulum@@UBEABVCTString@@XZ 100e5590 f i Pendulum.obj
 0001:000e45a0       ?IsTargetable@CPendulum@@UBEHXZ 100e55a0 f i Pendulum.obj
 0001:000e45b0       ??_GCPendulum@@UAEPAXI@Z   100e55b0 f i Pendulum.obj
 0001:000e45b0       ??_ECPendulum@@UAEPAXI@Z   100e55b0 f i Pendulum.obj
 0001:000e45e0       ??1CPendulum@@UAE@XZ       100e55e0 f i Pendulum.obj
 0001:000e48f0       ?CPhotoAlbum_New@@YAPAVCEntity@@XZ 100e58f0 f   PhotoAlbum.obj
 0001:000e4980       ?CPhotoAlbum_OnInitClass@@YAXXZ 100e5980 f   PhotoAlbum.obj
 0001:000e4990       ?CPhotoAlbum_OnEndClass@@YAXXZ 100e5990 f   PhotoAlbum.obj
 0001:000e49a0       ?CPhotoAlbum_OnPrecache@@YAXPAVCDLLEntityClass@@J@Z 100e59a0 f   PhotoAlbum.obj
 0001:000e49b0       ?CPhotoAlbum_OnWorldEnd@@YAXPAVCWorld@@@Z 100e59b0 f   PhotoAlbum.obj
 0001:000e49c0       ?CPhotoAlbum_OnWorldInit@@YAXPAVCWorld@@@Z 100e59c0 f   PhotoAlbum.obj
 0001:000e49d0       ?CPhotoAlbum_OnWorldTick@@YAXPAVCWorld@@@Z 100e59d0 f   PhotoAlbum.obj
 0001:000e49e0       ?CPhotoAlbum_OnWorldRender@@YAXPAVCWorld@@@Z 100e59e0 f   PhotoAlbum.obj
 0001:000e4ab0       ?SetDefaultProperties@CPhotoAlbum@@UAEXXZ 100e5ab0 f   PhotoAlbum.obj
 0001:000e4b20       ?Precache@CPhotoAlbum@@UAEXXZ 100e5b20 f   PhotoAlbum.obj
 0001:000e4b90       ?OpenBook@CPhotoAlbum@@QAEHABVCEntityEvent@@@Z 100e5b90 f   PhotoAlbum.obj
 0001:000e4c70       ?H0x02660001_OpenBook_01@CPhotoAlbum@@QAEHABVCEntityEvent@@@Z 100e5c70 f   PhotoAlbum.obj
 0001:000e4cf0       ?H0x02660002_OpenBook_02@CPhotoAlbum@@QAEHABVCEntityEvent@@@Z 100e5cf0 f   PhotoAlbum.obj
 0001:000e4d60       ?H0x02660003_OpenBook_03@CPhotoAlbum@@QAEHABVCEntityEvent@@@Z 100e5d60 f   PhotoAlbum.obj
 0001:000e4de0       ?H0x02660004_OpenBook_04@CPhotoAlbum@@QAEHABVCEntityEvent@@@Z 100e5de0 f   PhotoAlbum.obj
 0001:000e4e50       ?H0x0266000b_OpenBook_11@CPhotoAlbum@@QAEHABVCEntityEvent@@@Z 100e5e50 f   PhotoAlbum.obj
 0001:000e4ee0       ?H0x02660005_OpenBook_05@CPhotoAlbum@@QAEHABVCEntityEvent@@@Z 100e5ee0 f   PhotoAlbum.obj
 0001:000e4f60       ?H0x02660006_OpenBook_06@CPhotoAlbum@@QAEHABVCEntityEvent@@@Z 100e5f60 f   PhotoAlbum.obj
 0001:000e5060       ?H0x02660007_OpenBook_07@CPhotoAlbum@@QAEHABVCEntityEvent@@@Z 100e6060 f   PhotoAlbum.obj
 0001:000e50e0       ?H0x02660008_OpenBook_08@CPhotoAlbum@@QAEHABVCEntityEvent@@@Z 100e60e0 f   PhotoAlbum.obj
 0001:000e5180       ?H0x02660009_OpenBook_09@CPhotoAlbum@@QAEHABVCEntityEvent@@@Z 100e6180 f   PhotoAlbum.obj
 0001:000e5200       ?H0x0266000a_OpenBook_10@CPhotoAlbum@@QAEHABVCEntityEvent@@@Z 100e6200 f   PhotoAlbum.obj
 0001:000e5270       ?H0x0266000c_OpenBook_12@CPhotoAlbum@@QAEHABVCEntityEvent@@@Z 100e6270 f   PhotoAlbum.obj
 0001:000e52d0       ?Main@CPhotoAlbum@@QAEHABVCEntityEvent@@@Z 100e62d0 f   PhotoAlbum.obj
 0001:000e5400       ?H0x0266000d_Main_01@CPhotoAlbum@@QAEHABVCEntityEvent@@@Z 100e6400 f   PhotoAlbum.obj
 0001:000e5480       ?H0x0266000e_Main_02@CPhotoAlbum@@QAEHABVCEntityEvent@@@Z 100e6480 f   PhotoAlbum.obj
 0001:000e5490       ?IsTargetable@CPhotoAlbum@@UBEHXZ 100e6490 f i PhotoAlbum.obj
 0001:000e54a0       ?GetName@CPhotoAlbum@@UBEABVCTString@@XZ 100e64a0 f i PhotoAlbum.obj
 0001:000e54b0       ?IsImportant@CPhotoAlbum@@UBEHXZ 100e64b0 f i PhotoAlbum.obj
 0001:000e54c0       ??_GCPhotoAlbum@@UAEPAXI@Z 100e64c0 f i PhotoAlbum.obj
 0001:000e54c0       ??_ECPhotoAlbum@@UAEPAXI@Z 100e64c0 f i PhotoAlbum.obj
 0001:000e54f0       ??1CPhotoAlbum@@UAE@XZ     100e64f0 f i PhotoAlbum.obj
 0001:000e5560       ??0EAnimatorInit@@QAE@ABV0@@Z 100e6560 f i Player.obj
 0001:000e5590       ??4EAnimatorInit@@QAEAAV0@ABV0@@Z 100e6590 f i Player.obj
 0001:000e55d0       ??1EAnimatorInit@@UAE@XZ   100e65d0 f i Player.obj
 0001:000e5660       ??_GEAnimatorInit@@UAEPAXI@Z 100e6660 f i Player.obj
 0001:000e5690       ??_EEAnimatorInit@@UAEPAXI@Z 100e6690 f i Player.obj
 0001:000e56f0       ?ClearToDefault@@YAXAAVEAnimatorInit@@@Z 100e66f0 f i Player.obj
 0001:000e5790       ?GetPredictionPair@CPlayerAnimator@@UAEPAVCEntity@@XZ 100e6790 f i Player.obj
 0001:000e57a0       ?SetPredictionPair@CPlayerAnimator@@UAEXPAVCEntity@@@Z 100e67a0 f i Player.obj
 0001:000e57e0       ??0CPlayerAnimator@@QAE@XZ 100e67e0 f i Player.obj
 0001:000e5810       ??0CPlayerAnimator@@QAE@ABV0@@Z 100e6810 f i Player.obj
 0001:000e5a50       ??4CPlayerAnimator@@QAEAAV0@AAV0@@Z 100e6a50 f i Player.obj
 0001:000e5ce0       ??1CPlayerAnimator@@UAE@XZ 100e6ce0 f i Player.obj
 0001:000e5db0       ??_GCPlayerAnimator@@UAEPAXI@Z 100e6db0 f i Player.obj
 0001:000e5de0       ??_ECPlayerAnimator@@UAEPAXI@Z 100e6de0 f i Player.obj
 0001:000e5e40       ?ClearToDefault@@YAXAAW4ViewType@@@Z 100e6e40 f i Player.obj
 0001:000e5e50       ??0EViewInit@@QAE@ABV0@@Z  100e6e50 f i Player.obj
 0001:000e5ea0       ??4EViewInit@@QAEAAV0@ABV0@@Z 100e6ea0 f i Player.obj
 0001:000e5f20       ??1EViewInit@@UAE@XZ       100e6f20 f i Player.obj
 0001:000e5fc0       ??_GEViewInit@@UAEPAXI@Z   100e6fc0 f i Player.obj
 0001:000e5ff0       ??_EEViewInit@@UAEPAXI@Z   100e6ff0 f i Player.obj
 0001:000e6050       ?ClearToDefault@@YAXAAVEViewInit@@@Z 100e7050 f i Player.obj
 0001:000e6140       ?GetPredictionPair@CPlayerView@@UAEPAVCEntity@@XZ 100e7140 f i Player.obj
 0001:000e6150       ?SetPredictionPair@CPlayerView@@UAEXPAVCEntity@@@Z 100e7150 f i Player.obj
 0001:000e6190       ??0CPlayerView@@QAE@XZ     100e7190 f i Player.obj
 0001:000e61c0       ??0CPlayerView@@QAE@ABV0@@Z 100e71c0 f i Player.obj
 0001:000e6630       ??4CPlayerView@@QAEAAV0@AAV0@@Z 100e7630 f i Player.obj
 0001:000e6ad0       ??1CPlayerView@@UAE@XZ     100e7ad0 f i Player.obj
 0001:000e6b50       ??_GCPlayerView@@UAEPAXI@Z 100e7b50 f i Player.obj
 0001:000e6b80       ??_ECPlayerView@@UAEPAXI@Z 100e7b80 f i Player.obj
 0001:000e6be0       ?ClearToDefault@@YAXAAW4SwitchType@@@Z 100e7be0 f i Player.obj
 0001:000e6bf0       ?ClearToDefault@@YAXAAW4WorldLinkType@@@Z 100e7bf0 f i Player.obj
 0001:000e6c00       ?ClearToDefault@@YAXAAW4PowerUpItemType@@@Z 100e7c00 f i Player.obj
 0001:000e6c10       ??0EPowerUp@@QAE@ABV0@@Z   100e7c10 f i Player.obj
 0001:000e6c40       ??4EPowerUp@@QAEAAV0@ABV0@@Z 100e7c40 f i Player.obj
 0001:000e6c60       ??1EPowerUp@@UAE@XZ        100e7c60 f i Player.obj
 0001:000e6c70       ??_GEPowerUp@@UAEPAXI@Z    100e7c70 f i Player.obj
 0001:000e6ca0       ??_EEPowerUp@@UAEPAXI@Z    100e7ca0 f i Player.obj
 0001:000e6d00       ?ClearToDefault@@YAXAAVEPowerUp@@@Z 100e7d00 f i Player.obj
 0001:000e6d30       ?ClearToDefault@@YAXAAW4PlayerAutoAction@@@Z 100e7d30 f i Player.obj
 0001:000e6d40       ??0ESeriousBomb@@QAE@ABV0@@Z 100e7d40 f i Player.obj
 0001:000e6d70       ??4ESeriousBomb@@QAEAAV0@ABV0@@Z 100e7d70 f i Player.obj
 0001:000e6db0       ??1ESeriousBomb@@UAE@XZ    100e7db0 f i Player.obj
 0001:000e6e40       ??_GESeriousBomb@@UAEPAXI@Z 100e7e40 f i Player.obj
 0001:000e6e70       ??_EESeriousBomb@@UAEPAXI@Z 100e7e70 f i Player.obj
 0001:000e6ed0       ?ClearToDefault@@YAXAAVESeriousBomb@@@Z 100e7ed0 f i Player.obj
 0001:000e8fe0       ?CPlayer_New@@YAPAVCEntity@@XZ 100e9fe0 f   Player.obj
 0001:000e9040       ?CPlayer_OnPrecache@@YAXPAVCDLLEntityClass@@J@Z 100ea040 f   Player.obj
 0001:000e9050       ?CPlayer_OnWorldEnd@@YAXPAVCWorld@@@Z 100ea050 f   Player.obj
 0001:000e9060       ?CPlayer_OnWorldInit@@YAXPAVCWorld@@@Z 100ea060 f   Player.obj
 0001:000e9070       ?CPlayer_OnWorldTick@@YAXPAVCWorld@@@Z 100ea070 f   Player.obj
 0001:000e9080       ?CPlayer_OnWorldRender@@YAXPAVCWorld@@@Z 100ea080 f   Player.obj
 0001:000e9150       ?MakeCopy@ECameraStart@@UAEPAVCEntityEvent@@XZ 100ea150 f   Player.obj
 0001:000e9190       ??0ECameraStart@@QAE@XZ    100ea190 f   Player.obj
 0001:000e9200       ?MakeCopy@ECameraStop@@UAEPAVCEntityEvent@@XZ 100ea200 f   Player.obj
 0001:000e9240       ??0ECameraStop@@QAE@XZ     100ea240 f   Player.obj
 0001:000e92b0       ?MakeCopy@ERebirth@@UAEPAVCEntityEvent@@XZ 100ea2b0 f   Player.obj
 0001:000e92e0       ??0ERebirth@@QAE@XZ        100ea2e0 f   Player.obj
 0001:000e92f0       ?MakeCopy@EDisconnected@@UAEPAVCEntityEvent@@XZ 100ea2f0 f   Player.obj
 0001:000e9320       ??0EDisconnected@@QAE@XZ   100ea320 f   Player.obj
 0001:000e9330       ?MakeCopy@EAutoAction@@UAEPAVCEntityEvent@@XZ 100ea330 f   Player.obj
 0001:000e9370       ??0EAutoAction@@QAE@XZ     100ea370 f   Player.obj
 0001:000e9470       ?qsort_CompareMarkerDistance@@YAHPBX0@Z 100ea470 f   Player.obj
 0001:000e9680       ?ctl_ComposeActionPacket@@YAXABVCPlayerCharacter@@AAVCPlayerAction@@H@Z 100ea680 f   Player.obj
 0001:000e9bc0       ?CPlayer_Precache@@YAXXZ   100eabc0 f   Player.obj
 0001:000ea020       ?CPlayer_OnInitClass@@YAXXZ 100eb020 f   Player.obj
 0001:000eb760       ?CPlayer_OnEndClass@@YAXXZ 100ec760 f   Player.obj
 0001:000eb770       ?GetDifficultyString@@YA?AVCTString@@XZ 100ec770 f   Player.obj
 0001:000eb810       ?MaxArmor@@YAMXZ           100ec810 f   Player.obj
 0001:000eb830       ?TopArmor@@YAMXZ           100ec830 f   Player.obj
 0001:000eb850       ?MaxHealth@@YAMXZ          100ec850 f   Player.obj
 0001:000eb870       ?TopHealth@@YAMXZ          100ec870 f   Player.obj
 0001:000eb890       ?NameForState@@YAPBDW4PlayerState@@@Z 100ec890 f   Player.obj
 0001:000eb8e0       ?PrintPlayerDeathMessage@@YAXPAVCPlayer@@ABVEDeath@@@Z 100ec8e0 f   Player.obj
 0001:000ebc50       ?SetDefaultProperties@CPlayer@@UAEXXZ 100ecc50 f   Player.obj
 0001:000ec290       ?GenderSound@CPlayer@@QAEJJ@Z 100ed290 f   Player.obj
 0001:000ec2b0       ?AddBouble@CPlayer@@QAEXV?$Vector@M$02@@0@Z 100ed2b0 f   Player.obj
 0001:000ec3a0       ?ClearShellLaunchData@CPlayer@@QAEXXZ 100ed3a0 f   Player.obj
 0001:000ec3d0       ?AddBulletSpray@CPlayer@@QAEXV?$Vector@M$02@@W4EffectParticlesType@@0@Z 100ed3d0 f   Player.obj
 0001:000ec480       ?ClearBulletSprayLaunchData@CPlayer@@QAEXXZ 100ed480 f   Player.obj
 0001:000ec4b0       ?AddGoreSpray@CPlayer@@QAEXV?$Vector@M$02@@0W4SprayParticlesType@@0V?$AABBox@M$02@@MK@Z 100ed4b0 f   Player.obj
 0001:000ec590       ?ClearGoreSprayLaunchData@CPlayer@@QAEXXZ 100ed590 f   Player.obj
 0001:000ec5c0       ??0CPlayer@@QAE@XZ         100ed5c0 f   Player.obj
 0001:000ec8d0       ?GetPlayerWeapons@CPlayer@@QAEPAVCPlayerWeapons@@XZ 100ed8d0 f   Player.obj
 0001:000ec8e0       ?GetPlayerAnimator@CPlayer@@QAEPAVCPlayerAnimator@@XZ 100ed8e0 f   Player.obj
 0001:000ec8f0       ?GetSettings@CPlayer@@QAEPAVCPlayerSettings@@XZ 100ed8f0 f   Player.obj
 0001:000ec900       ?Copy@CPlayer@@UAEXAAVCEntity@@K@Z 100ed900 f   Player.obj
 0001:000ecb70       ?UpdateLatency@CPlayer@@QAEXM@Z 100edb70 f   Player.obj
 0001:000ecc20       ?ValidateCharacter@CPlayer@@QAEXXZ 100edc20 f   Player.obj
 0001:000ecc50       ?ParseGender@CPlayer@@QAEXAAVCTString@@@Z 100edc50 f   Player.obj
 0001:000ecd50       ?CheckHighScore@CPlayer@@QAEXXZ 100edd50 f   Player.obj
 0001:000ecdc0       ?GetPredictName@CPlayer@@QBE?AVCTString@@XZ 100eddc0 f   Player.obj
 0001:000ece20       ?Write_t@CPlayer@@UAEXPAVCTStream@@@Z 100ede20 f   Player.obj
 0001:000ecf00       ?Read_t@CPlayer@@UAEXPAVCTStream@@@Z 100edf00 f   Player.obj
 0001:000ed0d0       ?GetLightSource@CPlayer@@UAEPAVCLightSource@@XZ 100ee0d0 f   Player.obj
 0001:000ed0f0       ?SetPredictionTime@CPlayer@@UAEXM@Z 100ee0f0 f   Player.obj
 0001:000ed120       ?GetPredictionTime@CPlayer@@UAEMXZ 100ee120 f   Player.obj
 0001:000ed130       ?GetPredictionRange@CPlayer@@UAEMXZ 100ee130 f   Player.obj
 0001:000ed140       ?AddDependentsToPrediction@CPlayer@@UAEXXZ 100ee140 f   Player.obj
 0001:000ed170       ?GetStatsInGameTimeLevel@CPlayer@@QAEMXZ 100ee170 f   Player.obj
 0001:000ed1a0       ?GetStatsInGameTimeGame@CPlayer@@QAEMXZ 100ee1a0 f   Player.obj
 0001:000ed1d0       ?GetStatsRealWorldTime@CPlayer@@QAEMXZ 100ee1d0 f   Player.obj
 0001:000ed220       ?GetStatsRealWorldStarted@CPlayer@@QAE?AVCTString@@XZ 100ee220 f   Player.obj
 0001:000ed2f0       ?GetStats@CPlayer@@QAEXAAVCTString@@W4CompStatType@@J@Z 100ee2f0 f   Player.obj
 0001:000ed3a0       ?GetShortStats@CPlayer@@QAEXAAVCTString@@@Z 100ee3a0 f   Player.obj
 0001:000ed460       ?GetDetailStatsDM@CPlayer@@QAEXAAVCTString@@@Z 100ee460 f   Player.obj
 0001:000ee130       ?GetDetailStatsCoop@CPlayer@@QAEXAAVCTString@@@Z 100ef130 f   Player.obj
 0001:000eece0       ?GetDetailStatsSP@CPlayer@@QAEXAAVCTString@@J@Z 100efce0 f   Player.obj
 0001:000efb90       ?GetGameSpyPlayerInfo@CPlayer@@UAEXJAAVCTString@@@Z 100f0b90 f   Player.obj
 0001:000efcc0       ?HasMessage@CPlayer@@QAEHABVCTFileName@@@Z 100f0cc0 f   Player.obj
 0001:000efd30       ?ReceiveComputerMessage@CPlayer@@QAEXABVCTFileName@@K@Z 100f0d30 f   Player.obj
 0001:000efe70       ?SayVoiceMessage@CPlayer@@QAEXABVCTFileName@@@Z 100f0e70 f   Player.obj
 0001:000efeb0       ?CheatAllMessagesDir@CPlayer@@QAEXABVCTString@@K@Z 100f0eb0 f   Player.obj
 0001:000f0050       ?CheatAllMessages@CPlayer@@QAEXXZ 100f1050 f   Player.obj
 0001:000f01e0       ?ItemPicked@CPlayer@@QAEXABVCTString@@M@Z 100f11e0 f   Player.obj
 0001:000f02a0       ?SetupLightSource@CPlayer@@QAEXXZ 100f12a0 f   Player.obj
 0001:000f0330       ?PlayLightAnim@CPlayer@@QAEXJK@Z 100f1330 f   Player.obj
 0001:000f0360       ?AdjustShadingParameters@CPlayer@@UAEHAAV?$Vector@M$02@@AAK1@Z 100f1360 f   Player.obj
 0001:000f04a0       ?GetModelForRendering@CPlayer@@UAEPAVCModelObject@@XZ 100f14a0 f   Player.obj
 0001:000f0730       ?GetActionMarker@CPlayer@@QAEPAVCPlayerActionMarker@@XZ 100f1730 f   Player.obj
 0001:000f0740       ?FindMusicHolder@CPlayer@@QAEXXZ 100f1740 f   Player.obj
 0001:000f07e0       ?UpdateLevelStats@CPlayer@@QAEXXZ 100f17e0 f   Player.obj
 0001:000f0870       ?IsFuss@CPlayer@@QAEHXZ    100f1870 f   Player.obj
 0001:000f0890       ?SetDefaultMouthPitch@CPlayer@@QAEXXZ 100f1890 f   Player.obj
 0001:000f08c0       ?SetRandomMouthPitch@CPlayer@@QAEXMM@Z 100f18c0 f   Player.obj
 0001:000f0940       ?SetSpeakMouthPitch@CPlayer@@QAEXXZ 100f1940 f   Player.obj
 0001:000f0970       ?ApplyShaking@CPlayer@@QAEXAAVCPlacement3D@@@Z 100f1970 f   Player.obj
 0001:000f0c60       ?GetWorldGlaring@CPlayer@@QAEKXZ 100f1c60 f   Player.obj
 0001:000f0d70       ?RenderScroll@CPlayer@@QAEXPAVCDrawPort@@@Z 100f1d70 f   Player.obj
 0001:000f0da0       ?RenderCredits@CPlayer@@QAEXPAVCDrawPort@@@Z 100f1da0 f   Player.obj
 0001:000f0dd0       ?RenderTextFX@CPlayer@@QAEXPAVCDrawPort@@@Z 100f1dd0 f   Player.obj
 0001:000f0e00       ?RenderHudPicFX@CPlayer@@QAEXPAVCDrawPort@@@Z 100f1e00 f   Player.obj
 0001:000f0e30       ?Glare@CPlayer@@QAEXMMMM@Z 100f1e30 f   Player.obj
 0001:000f0e90       ?SetupView@CPlayer@@QAEXPAVCDrawPort@@AAVCAnyProjection3D@@AAPAVCEntity@@AAVCPlacement3D@@AAKH@Z 100f1e90 f   Player.obj
 0001:000f13f0       ?ListenFromEntity@CPlayer@@QAEXPAVCEntity@@ABVCPlacement3D@@@Z 100f23f0 f   Player.obj
 0001:000f14e0       ?RenderDummyView@CPlayer@@QAEXPAVCDrawPort@@@Z 100f24e0 f   Player.obj
 0001:000f1610       ?RenderPlayerView@CPlayer@@QAEXPAVCDrawPort@@H@Z 100f2610 f   Player.obj
 0001:000f20a0       ?RenderCameraView@CPlayer@@QAEXPAVCDrawPort@@H@Z 100f30a0 f   Player.obj
 0001:000f23b0       ?RenderGameView@CPlayer@@UAEXPAVCDrawPort@@PAX@Z 100f33b0 f   Player.obj
 0001:000f2650       ?PreMoving@CPlayer@@UAEXXZ 100f3650 f   Player.obj
 0001:000f2670       ?DoMoving@CPlayer@@UAEXXZ  100f3670 f   Player.obj
 0001:000f26b0       ?PostMoving@CPlayer@@UAEXXZ 100f36b0 f   Player.obj
 0001:000f27e0       ?SetUnconnected@CPlayer@@QAEXXZ 100f37e0 f   Player.obj
 0001:000f2890       ?SetConnected@CPlayer@@QAEXXZ 100f3890 f   Player.obj
 0001:000f28d0       ?IsConnected@CPlayer@@QBEHXZ 100f38d0 f   Player.obj
 0001:000f28e0       ?ChecksumForSync@CPlayer@@UAEXAAKJ@Z 100f38e0 f   Player.obj
 0001:000f2b10       ?DumpSync_t@CPlayer@@UAEXAAVCTStream@@J@Z 100f3b10 f   Player.obj
 0001:000f2b90       ?LeaveStain@CPlayer@@UAEXH@Z 100f3b90 f   Player.obj
 0001:000f2ed0       ?DamageImpact@CPlayer@@QAEXW4DamageType@@MABV?$Vector@M$02@@1@Z 100f3ed0 f   Player.obj
 0001:000f36b0       ?ReceiveDamage@CPlayer@@UAEXPAVCEntity@@W4DamageType@@MABV?$Vector@M$02@@2@Z 100f46b0 f   Player.obj
 0001:000f3c30       ?ShouldBlowUp@CPlayer@@QAEHXZ 100f4c30 f   Player.obj
 0001:000f3cb0       ?BlowUp@CPlayer@@QAEXXZ    100f4cb0 f   Player.obj
 0001:000f4050       ?GetEntityInfo@CPlayer@@UAEPAXXZ 100f5050 f   Player.obj
 0001:000f4090       ?ReceiveItem@CPlayer@@UAEHABVCEntityEvent@@@Z 100f5090 f   Player.obj
 0001:000f4720       ?ChangePlayerView@CPlayer@@QAEXXZ 100f5720 f   Player.obj
 0001:000f48b0       ?ComputerPressed@CPlayer@@QAEXXZ 100f58b0 f   Player.obj
 0001:000f4900       ?UsePressed@CPlayer@@QAEXH@Z 100f5900 f   Player.obj
 0001:000f4b20       ?SetGameEnd@CPlayer@@QAEXXZ 100f5b20 f   Player.obj
 0001:000f4b80       ?CheckGameEnd@CPlayer@@QAEXXZ 100f5b80 f   Player.obj
 0001:000f4c20       ?PreapplyAction@CPlayer@@QAEXABVCPlayerAction@@@Z 100f5c20 f   Player.obj
 0001:000f4c30       ?ApplyAction@CPlayer@@UAEXABVCPlayerAction@@M@Z 100f5c30 f   Player.obj
 0001:000f5280       ?Disconnect@CPlayer@@UAEXXZ 100f6280 f   Player.obj
 0001:000f5340       ?CharacterChanged@CPlayer@@UAEXABVCPlayerCharacter@@@Z 100f6340 f   Player.obj
 0001:000f5650       ?AliveActions@CPlayer@@QAEXABVCPlayerAction@@@Z 100f6650 f   Player.obj
 0001:000f5750       ?AutoActions@CPlayer@@QAEXABVCPlayerAction@@@Z 100f6750 f   Player.obj
 0001:000f5b80       ?GetLerpedWeaponPosition@CPlayer@@QAEXV?$Vector@M$02@@AAVCPlacement3D@@@Z 100f6b80 f   Player.obj
 0001:000f5c10       ?SpawnBubbles@CPlayer@@QAEXJ@Z 100f6c10 f   Player.obj
 0001:000f5d60       ?PlayPowerUpSound@CPlayer@@QAEXXZ 100f6d60 f   Player.obj
 0001:000f5da0       ?ActiveActions@CPlayer@@QAEXABVCPlayerAction@@@Z 100f6da0 f   Player.obj
 0001:000f6ce0       ?RoundViewAngle@CPlayer@@QAEXAAMM@Z 100f7ce0 f   Player.obj
 0001:000f6d20       ?DeathActions@CPlayer@@QAEXABVCPlayerAction@@@Z 100f7d20 f   Player.obj
 0001:000f7010       ?ButtonsActions@CPlayer@@QAEXAAVCPlayerAction@@@Z 100f8010 f   Player.obj
 0001:000f7410       ?ApplySniperZoom@CPlayer@@QAEXH@Z 100f8410 f   Player.obj
 0001:000f7430       ?CheatsEnabled@CPlayer@@QAEHXZ 100f8430 f   Player.obj
 0001:000f7470       ?Cheats@CPlayer@@QAEXXZ    100f8470 f   Player.obj
 0001:000f76f0       ?GetLerpedAbsoluteViewPlacement@CPlayer@@QAEXAAVCPlacement3D@@@Z 100f86f0 f   Player.obj
 0001:000f8680       ?GetViewEntity@CPlayer@@QAEPAVCEntity@@XZ 100f9680 f   Player.obj
 0001:000f86d0       ?RenderChainsawParticles@CPlayer@@QAEXH@Z 100f96d0 f   Player.obj
 0001:000f88a0       ?RenderHUD@CPlayer@@QAEXAAVCPerspectiveProjection3D@@PAVCDrawPort@@V?$Vector@M$02@@KKHJ@Z 100f98a0 f   Player.obj
 0001:000f8c30       ?GetDeathmatchStartMarker@CPlayer@@QAEPAVCEntity@@XZ 100f9c30 f   Player.obj
 0001:000f8ed0       ?InitializePlayer@CPlayer@@QAEXXZ 100f9ed0 f   Player.obj
 0001:000f9050       ?GetTeleportingOffset@CPlayer@@QAE?AV?$Vector@M$02@@XZ 100fa050 f   Player.obj
 0001:000f9110       ?RemapLevelNames@CPlayer@@QAEXAAJ@Z 100fa110 f   Player.obj
 0001:000f9210       ?TeleportPlayer@CPlayer@@QAEXW4WorldLinkType@@@Z 100fa210 f   Player.obj
 0001:000f9ca0       ?RecordEndOfLevelData@CPlayer@@QAEXXZ 100faca0 f   Player.obj
 0001:000f9e60       ?SpawnTeleport@CPlayer@@QAEXXZ 100fae60 f   Player.obj
 0001:000f9fe0       ?RenderParticles@CPlayer@@UAEXXZ 100fafe0 f   Player.obj
 0001:000fa290       ?TeleportToAutoMarker@CPlayer@@QAEXPAVCPlayerActionMarker@@@Z 100fb290 f   Player.obj
 0001:000fa490       ?CheckDeathForRespawnInPlace@CPlayer@@QAEXVEDeath@@@Z 100fb490 f   Player.obj
 0001:000fa5a0       ?Wounded@CPlayer@@QAEHABVCEntityEvent@@@Z 100fb5a0 f   Player.obj
 0001:000fa600       ?WorldChange@CPlayer@@QAEHABVCEntityEvent@@@Z 100fb600 f   Player.obj
 0001:000fa7c0       ?WorldChangeDead@CPlayer@@QAEHABVCEntityEvent@@@Z 100fb7c0 f   Player.obj
 0001:000fa900       ?H0x01910008_WorldChangeDead_01@CPlayer@@QAEHABVCEntityEvent@@@Z 100fb900 f   Player.obj
 0001:000fa9a0       ?H0x01910009_WorldChangeDead_02@CPlayer@@QAEHABVCEntityEvent@@@Z 100fb9a0 f   Player.obj
 0001:000faa10       ?Death@CPlayer@@QAEHABVCEntityEvent@@@Z 100fba10 f   Player.obj
 0001:000fb110       ?H0x0191000b_Death_01@CPlayer@@QAEHABVCEntityEvent@@@Z 100fc110 f   Player.obj
 0001:000fb2f0       ?H0x0191000c_Death_02@CPlayer@@QAEHABVCEntityEvent@@@Z 100fc2f0 f   Player.obj
 0001:000fb350       ?TheEnd@CPlayer@@QAEHABVCEntityEvent@@@Z 100fc350 f   Player.obj
 0001:000fb540       ?H0x0191000e_TheEnd_01@CPlayer@@QAEHABVCEntityEvent@@@Z 100fc540 f   Player.obj
 0001:000fb570       ?H0x0191000f_TheEnd_02@CPlayer@@QAEHABVCEntityEvent@@@Z 100fc570 f   Player.obj
 0001:000fb580       ?FirstInit@CPlayer@@QAEHABVCEntityEvent@@@Z 100fc580 f   Player.obj
 0001:000fb6a0       ?Rebirth@CPlayer@@QAEHABVCEntityEvent@@@Z 100fc6a0 f   Player.obj
 0001:000fb830       ?AutoGoToMarker@CPlayer@@QAEHABVCEntityEvent@@@Z 100fc830 f   Player.obj
 0001:000fb8e0       ?H0x01910015_AutoGoToMarker_03@CPlayer@@QAEHABVCEntityEvent@@@Z 100fc8e0 f   Player.obj
 0001:000fb9c0       ?H0x01910013_AutoGoToMarker_01@CPlayer@@QAEHABVCEntityEvent@@@Z 100fc9c0 f   Player.obj
 0001:000fba40       ?H0x01910014_AutoGoToMarker_02@CPlayer@@QAEHABVCEntityEvent@@@Z 100fca40 f   Player.obj
 0001:000fbaa0       ?H0x01910016_AutoGoToMarker_04@CPlayer@@QAEHABVCEntityEvent@@@Z 100fcaa0 f   Player.obj
 0001:000fbb00       ?AutoGoToMarkerAndStop@CPlayer@@QAEHABVCEntityEvent@@@Z 100fcb00 f   Player.obj
 0001:000fbbb0       ?H0x0191001a_AutoGoToMarkerAndStop_03@CPlayer@@QAEHABVCEntityEvent@@@Z 100fcbb0 f   Player.obj
 0001:000fbca0       ?H0x01910018_AutoGoToMarkerAndStop_01@CPlayer@@QAEHABVCEntityEvent@@@Z 100fcca0 f   Player.obj
 0001:000fbd20       ?H0x01910019_AutoGoToMarkerAndStop_02@CPlayer@@QAEHABVCEntityEvent@@@Z 100fcd20 f   Player.obj
 0001:000fbd80       ?H0x0191001b_AutoGoToMarkerAndStop_04@CPlayer@@QAEHABVCEntityEvent@@@Z 100fcd80 f   Player.obj
 0001:000fbe00       ?AutoUseItem@CPlayer@@QAEHABVCEntityEvent@@@Z 100fce00 f   Player.obj
 0001:000fbe80       ?H0x0191001d_AutoUseItem_01@CPlayer@@QAEHABVCEntityEvent@@@Z 100fce80 f   Player.obj
 0001:000fbf00       ?H0x0191001e_AutoUseItem_02@CPlayer@@QAEHABVCEntityEvent@@@Z 100fcf00 f   Player.obj
 0001:000fbfb0       ?H0x0191001f_AutoUseItem_03@CPlayer@@QAEHABVCEntityEvent@@@Z 100fcfb0 f   Player.obj
 0001:000fc030       ?H0x01910020_AutoUseItem_04@CPlayer@@QAEHABVCEntityEvent@@@Z 100fd030 f   Player.obj
 0001:000fc160       ?H0x01910021_AutoUseItem_05@CPlayer@@QAEHABVCEntityEvent@@@Z 100fd160 f   Player.obj
 0001:000fc1e0       ?H0x01910022_AutoUseItem_06@CPlayer@@QAEHABVCEntityEvent@@@Z 100fd1e0 f   Player.obj
 0001:000fc240       ?AutoPickItem@CPlayer@@QAEHABVCEntityEvent@@@Z 100fd240 f   Player.obj
 0001:000fc2c0       ?H0x01910024_AutoPickItem_01@CPlayer@@QAEHABVCEntityEvent@@@Z 100fd2c0 f   Player.obj
 0001:000fc340       ?H0x01910025_AutoPickItem_02@CPlayer@@QAEHABVCEntityEvent@@@Z 100fd340 f   Player.obj
 0001:000fc4b0       ?H0x01910026_AutoPickItem_03@CPlayer@@QAEHABVCEntityEvent@@@Z 100fd4b0 f   Player.obj
 0001:000fc530       ?H0x01910027_AutoPickItem_04@CPlayer@@QAEHABVCEntityEvent@@@Z 100fd530 f   Player.obj
 0001:000fc590       ?AutoFallDown@CPlayer@@QAEHABVCEntityEvent@@@Z 100fd590 f   Player.obj
 0001:000fc630       ?H0x01910029_AutoFallDown_01@CPlayer@@QAEHABVCEntityEvent@@@Z 100fd630 f   Player.obj
 0001:000fc6b0       ?H0x0191002a_AutoFallDown_02@CPlayer@@QAEHABVCEntityEvent@@@Z 100fd6b0 f   Player.obj
 0001:000fc710       ?AutoFallToAbys@CPlayer@@QAEHABVCEntityEvent@@@Z 100fd710 f   Player.obj
 0001:000fc7b0       ?H0x0191002c_AutoFallToAbys_01@CPlayer@@QAEHABVCEntityEvent@@@Z 100fd7b0 f   Player.obj
 0001:000fc830       ?H0x0191002d_AutoFallToAbys_02@CPlayer@@QAEHABVCEntityEvent@@@Z 100fd830 f   Player.obj
 0001:000fc890       ?AutoLookAround@CPlayer@@QAEHABVCEntityEvent@@@Z 100fd890 f   Player.obj
 0001:000fc960       ?H0x0191002f_AutoLookAround_01@CPlayer@@QAEHABVCEntityEvent@@@Z 100fd960 f   Player.obj
 0001:000fc9e0       ?H0x01910030_AutoLookAround_02@CPlayer@@QAEHABVCEntityEvent@@@Z 100fd9e0 f   Player.obj
 0001:000fcab0       ?H0x01910031_AutoLookAround_03@CPlayer@@QAEHABVCEntityEvent@@@Z 100fdab0 f   Player.obj
 0001:000fcb30       ?H0x01910032_AutoLookAround_04@CPlayer@@QAEHABVCEntityEvent@@@Z 100fdb30 f   Player.obj
 0001:000fcb90       ?AutoTeleport@CPlayer@@QAEHABVCEntityEvent@@@Z 100fdb90 f   Player.obj
 0001:000fcbf0       ?AutoAppear@CPlayer@@QAEHABVCEntityEvent@@@Z 100fdbf0 f   Player.obj
 0001:000fccf0       ?H0x01910035_AutoAppear_01@CPlayer@@QAEHABVCEntityEvent@@@Z 100fdcf0 f   Player.obj
 0001:000fcd70       ?H0x01910036_AutoAppear_02@CPlayer@@QAEHABVCEntityEvent@@@Z 100fdd70 f   Player.obj
 0001:000fcdf0       ?H0x01910037_AutoAppear_03@CPlayer@@QAEHABVCEntityEvent@@@Z 100fddf0 f   Player.obj
 0001:000fce70       ?H0x01910038_AutoAppear_04@CPlayer@@QAEHABVCEntityEvent@@@Z 100fde70 f   Player.obj
 0001:000fcf60       ?H0x01910039_AutoAppear_05@CPlayer@@QAEHABVCEntityEvent@@@Z 100fdf60 f   Player.obj
 0001:000fcfe0       ?H0x0191003a_AutoAppear_06@CPlayer@@QAEHABVCEntityEvent@@@Z 100fdfe0 f   Player.obj
 0001:000fd080       ?H0x0191003b_AutoAppear_07@CPlayer@@QAEHABVCEntityEvent@@@Z 100fe080 f   Player.obj
 0001:000fd100       ?H0x0191003c_AutoAppear_08@CPlayer@@QAEHABVCEntityEvent@@@Z 100fe100 f   Player.obj
 0001:000fd160       ?TravellingInBeam@CPlayer@@QAEHABVCEntityEvent@@@Z 100fe160 f   Player.obj
 0001:000fd260       ?H0x0191003e_TravellingInBeam_01@CPlayer@@QAEHABVCEntityEvent@@@Z 100fe260 f   Player.obj
 0001:000fd2e0       ?H0x0191003f_TravellingInBeam_02@CPlayer@@QAEHABVCEntityEvent@@@Z 100fe2e0 f   Player.obj
 0001:000fd340       ?LogoFireMinigun@CPlayer@@QAEHABVCEntityEvent@@@Z 100fe340 f   Player.obj
 0001:000fd480       ?H0x01910041_LogoFireMinigun_01@CPlayer@@QAEHABVCEntityEvent@@@Z 100fe480 f   Player.obj
 0001:000fd500       ?H0x01910042_LogoFireMinigun_02@CPlayer@@QAEHABVCEntityEvent@@@Z 100fe500 f   Player.obj
 0001:000fd5b0       ?H0x01910043_LogoFireMinigun_03@CPlayer@@QAEHABVCEntityEvent@@@Z 100fe5b0 f   Player.obj
 0001:000fd630       ?H0x01910044_LogoFireMinigun_04@CPlayer@@QAEHABVCEntityEvent@@@Z 100fe630 f   Player.obj
 0001:000fd720       ?H0x01910045_LogoFireMinigun_05@CPlayer@@QAEHABVCEntityEvent@@@Z 100fe720 f   Player.obj
 0001:000fd7a0       ?H0x01910046_LogoFireMinigun_06@CPlayer@@QAEHABVCEntityEvent@@@Z 100fe7a0 f   Player.obj
 0001:000fd820       ?H0x01910047_LogoFireMinigun_07@CPlayer@@QAEHABVCEntityEvent@@@Z 100fe820 f   Player.obj
 0001:000fd8a0       ?H0x01910048_LogoFireMinigun_08@CPlayer@@QAEHABVCEntityEvent@@@Z 100fe8a0 f   Player.obj
 0001:000fd900       ?AutoStoreWeapon@CPlayer@@QAEHABVCEntityEvent@@@Z 100fe900 f   Player.obj
 0001:000fd990       ?H0x0191004a_AutoStoreWeapon_01@CPlayer@@QAEHABVCEntityEvent@@@Z 100fe990 f   Player.obj
 0001:000fda10       ?H0x0191004b_AutoStoreWeapon_02@CPlayer@@QAEHABVCEntityEvent@@@Z 100fea10 f   Player.obj
 0001:000fdb10       ?H0x0191004c_AutoStoreWeapon_03@CPlayer@@QAEHABVCEntityEvent@@@Z 100feb10 f   Player.obj
 0001:000fdb90       ?H0x0191004d_AutoStoreWeapon_04@CPlayer@@QAEHABVCEntityEvent@@@Z 100feb90 f   Player.obj
 0001:000fdbf0       ?DoAutoActions@CPlayer@@QAEHABVCEntityEvent@@@Z 100febf0 f   Player.obj
 0001:000fdc90       ?H0x019100a2_DoAutoActions_84@CPlayer@@QAEHABVCEntityEvent@@@Z 100fec90 f   Player.obj
 0001:000fdd80       ?H0x0191004f_DoAutoActions_01@CPlayer@@QAEHABVCEntityEvent@@@Z 100fed80 f   Player.obj
 0001:000fde00       ?H0x01910050_DoAutoActions_02@CPlayer@@QAEHABVCEntityEvent@@@Z 100fee00 f   Player.obj
 0001:000fde60       ?H0x019100a1_DoAutoActions_83@CPlayer@@QAEHABVCEntityEvent@@@Z 100fee60 f   Player.obj
 0001:000fdf20       ?H0x01910051_DoAutoActions_03@CPlayer@@QAEHABVCEntityEvent@@@Z 100fef20 f   Player.obj
 0001:000fdfa0       ?H0x01910052_DoAutoActions_04@CPlayer@@QAEHABVCEntityEvent@@@Z 100fefa0 f   Player.obj
 0001:000fe000       ?H0x0191009f_DoAutoActions_81@CPlayer@@QAEHABVCEntityEvent@@@Z 100ff000 f   Player.obj
 0001:000fe090       ?H0x01910053_DoAutoActions_05@CPlayer@@QAEHABVCEntityEvent@@@Z 100ff090 f   Player.obj
 0001:000fe130       ?H0x01910054_DoAutoActions_06@CPlayer@@QAEHABVCEntityEvent@@@Z 100ff130 f   Player.obj
 0001:000fe190       ?H0x0191009d_DoAutoActions_79@CPlayer@@QAEHABVCEntityEvent@@@Z 100ff190 f   Player.obj
 0001:000fe220       ?H0x01910055_DoAutoActions_07@CPlayer@@QAEHABVCEntityEvent@@@Z 100ff220 f   Player.obj
 0001:000fe2c0       ?H0x01910056_DoAutoActions_08@CPlayer@@QAEHABVCEntityEvent@@@Z 100ff2c0 f   Player.obj
 0001:000fe320       ?H0x0191009b_DoAutoActions_77@CPlayer@@QAEHABVCEntityEvent@@@Z 100ff320 f   Player.obj
 0001:000fe3d0       ?H0x01910099_DoAutoActions_75@CPlayer@@QAEHABVCEntityEvent@@@Z 100ff3d0 f   Player.obj
 0001:000fe460       ?H0x01910057_DoAutoActions_09@CPlayer@@QAEHABVCEntityEvent@@@Z 100ff460 f   Player.obj
 0001:000fe500       ?H0x01910058_DoAutoActions_10@CPlayer@@QAEHABVCEntityEvent@@@Z 100ff500 f   Player.obj
 0001:000fe560       ?H0x01910097_DoAutoActions_73@CPlayer@@QAEHABVCEntityEvent@@@Z 100ff560 f   Player.obj
 0001:000fe5f0       ?H0x01910059_DoAutoActions_11@CPlayer@@QAEHABVCEntityEvent@@@Z 100ff5f0 f   Player.obj
 0001:000fe690       ?H0x0191005a_DoAutoActions_12@CPlayer@@QAEHABVCEntityEvent@@@Z 100ff690 f   Player.obj
 0001:000fe6f0       ?H0x01910095_DoAutoActions_71@CPlayer@@QAEHABVCEntityEvent@@@Z 100ff6f0 f   Player.obj
 0001:000fe780       ?H0x0191005b_DoAutoActions_13@CPlayer@@QAEHABVCEntityEvent@@@Z 100ff780 f   Player.obj
 0001:000fe820       ?H0x0191005c_DoAutoActions_14@CPlayer@@QAEHABVCEntityEvent@@@Z 100ff820 f   Player.obj
 0001:000fe880       ?H0x01910093_DoAutoActions_69@CPlayer@@QAEHABVCEntityEvent@@@Z 100ff880 f   Player.obj
 0001:000fe910       ?H0x0191005d_DoAutoActions_15@CPlayer@@QAEHABVCEntityEvent@@@Z 100ff910 f   Player.obj
 0001:000fe930       ?H0x0191005e_DoAutoActions_16@CPlayer@@QAEHABVCEntityEvent@@@Z 100ff930 f   Player.obj
 0001:000fe990       ?H0x01910091_DoAutoActions_67@CPlayer@@QAEHABVCEntityEvent@@@Z 100ff990 f   Player.obj
 0001:000fea20       ?H0x0191005f_DoAutoActions_17@CPlayer@@QAEHABVCEntityEvent@@@Z 100ffa20 f   Player.obj
 0001:000feac0       ?H0x01910060_DoAutoActions_18@CPlayer@@QAEHABVCEntityEvent@@@Z 100ffac0 f   Player.obj
 0001:000feb20       ?H0x0191008f_DoAutoActions_65@CPlayer@@QAEHABVCEntityEvent@@@Z 100ffb20 f   Player.obj
 0001:000febd0       ?H0x0191008d_DoAutoActions_63@CPlayer@@QAEHABVCEntityEvent@@@Z 100ffbd0 f   Player.obj
 0001:000fec60       ?H0x01910061_DoAutoActions_19@CPlayer@@QAEHABVCEntityEvent@@@Z 100ffc60 f   Player.obj
 0001:000fed00       ?H0x01910062_DoAutoActions_20@CPlayer@@QAEHABVCEntityEvent@@@Z 100ffd00 f   Player.obj
 0001:000fed60       ?H0x0191008b_DoAutoActions_61@CPlayer@@QAEHABVCEntityEvent@@@Z 100ffd60 f   Player.obj
 0001:000fedf0       ?H0x01910063_DoAutoActions_21@CPlayer@@QAEHABVCEntityEvent@@@Z 100ffdf0 f   Player.obj
 0001:000fee90       ?H0x01910064_DoAutoActions_22@CPlayer@@QAEHABVCEntityEvent@@@Z 100ffe90 f   Player.obj
 0001:000feef0       ?H0x01910089_DoAutoActions_59@CPlayer@@QAEHABVCEntityEvent@@@Z 100ffef0 f   Player.obj
 0001:000fef80       ?H0x01910065_DoAutoActions_23@CPlayer@@QAEHABVCEntityEvent@@@Z 100fff80 f   Player.obj
 0001:000ff020       ?H0x01910066_DoAutoActions_24@CPlayer@@QAEHABVCEntityEvent@@@Z 10100020 f   Player.obj
 0001:000ff080       ?H0x01910087_DoAutoActions_57@CPlayer@@QAEHABVCEntityEvent@@@Z 10100080 f   Player.obj
 0001:000ff110       ?H0x01910067_DoAutoActions_25@CPlayer@@QAEHABVCEntityEvent@@@Z 10100110 f   Player.obj
 0001:000ff1b0       ?H0x01910068_DoAutoActions_26@CPlayer@@QAEHABVCEntityEvent@@@Z 101001b0 f   Player.obj
 0001:000ff210       ?H0x01910085_DoAutoActions_55@CPlayer@@QAEHABVCEntityEvent@@@Z 10100210 f   Player.obj
 0001:000ff330       ?H0x01910083_DoAutoActions_53@CPlayer@@QAEHABVCEntityEvent@@@Z 10100330 f   Player.obj
 0001:000ff3f0       ?H0x01910081_DoAutoActions_51@CPlayer@@QAEHABVCEntityEvent@@@Z 101003f0 f   Player.obj
 0001:000ff4b0       ?H0x0191007f_DoAutoActions_49@CPlayer@@QAEHABVCEntityEvent@@@Z 101004b0 f   Player.obj
 0001:000ff570       ?H0x0191007d_DoAutoActions_47@CPlayer@@QAEHABVCEntityEvent@@@Z 10100570 f   Player.obj
 0001:000ff630       ?H0x0191007b_DoAutoActions_45@CPlayer@@QAEHABVCEntityEvent@@@Z 10100630 f   Player.obj
 0001:000ff6d0       ?H0x01910069_DoAutoActions_27@CPlayer@@QAEHABVCEntityEvent@@@Z 101006d0 f   Player.obj
 0001:000ff770       ?H0x0191006a_DoAutoActions_28@CPlayer@@QAEHABVCEntityEvent@@@Z 10100770 f   Player.obj
 0001:000ff7d0       ?H0x01910079_DoAutoActions_43@CPlayer@@QAEHABVCEntityEvent@@@Z 101007d0 f   Player.obj
 0001:000ff870       ?H0x0191006b_DoAutoActions_29@CPlayer@@QAEHABVCEntityEvent@@@Z 10100870 f   Player.obj
 0001:000ff910       ?H0x0191006c_DoAutoActions_30@CPlayer@@QAEHABVCEntityEvent@@@Z 10100910 f   Player.obj
 0001:000ff970       ?H0x01910077_DoAutoActions_41@CPlayer@@QAEHABVCEntityEvent@@@Z 10100970 f   Player.obj
 0001:000ffa60       ?H0x01910075_DoAutoActions_39@CPlayer@@QAEHABVCEntityEvent@@@Z 10100a60 f   Player.obj
 0001:000ffb50       ?H0x0191006f_DoAutoActions_33@CPlayer@@QAEHABVCEntityEvent@@@Z 10100b50 f   Player.obj
 0001:000ffbe0       ?H0x0191006d_DoAutoActions_31@CPlayer@@QAEHABVCEntityEvent@@@Z 10100be0 f   Player.obj
 0001:000ffca0       ?H0x0191006e_DoAutoActions_32@CPlayer@@QAEHABVCEntityEvent@@@Z 10100ca0 f   Player.obj
 0001:000ffd00       ?H0x01910070_DoAutoActions_34@CPlayer@@QAEHABVCEntityEvent@@@Z 10100d00 f   Player.obj
 0001:000ffd70       ?H0x01910071_DoAutoActions_35@CPlayer@@QAEHABVCEntityEvent@@@Z 10100d70 f   Player.obj
 0001:000ffdd0       ?H0x01910073_DoAutoActions_37@CPlayer@@QAEHABVCEntityEvent@@@Z 10100dd0 f   Player.obj
 0001:000ffec0       ?H0x01910072_DoAutoActions_36@CPlayer@@QAEHABVCEntityEvent@@@Z 10100ec0 f   Player.obj
 0001:000fff20       ?H0x01910074_DoAutoActions_38@CPlayer@@QAEHABVCEntityEvent@@@Z 10100f20 f   Player.obj
 0001:000fff80       ?H0x01910076_DoAutoActions_40@CPlayer@@QAEHABVCEntityEvent@@@Z 10100f80 f   Player.obj
 0001:000fffe0       ?H0x01910078_DoAutoActions_42@CPlayer@@QAEHABVCEntityEvent@@@Z 10100fe0 f   Player.obj
 0001:00100040       ?H0x0191007a_DoAutoActions_44@CPlayer@@QAEHABVCEntityEvent@@@Z 10101040 f   Player.obj
 0001:001000a0       ?H0x0191007c_DoAutoActions_46@CPlayer@@QAEHABVCEntityEvent@@@Z 101010a0 f   Player.obj
 0001:00100100       ?H0x0191007e_DoAutoActions_48@CPlayer@@QAEHABVCEntityEvent@@@Z 10101100 f   Player.obj
 0001:00100160       ?H0x01910080_DoAutoActions_50@CPlayer@@QAEHABVCEntityEvent@@@Z 10101160 f   Player.obj
 0001:001001c0       ?H0x01910082_DoAutoActions_52@CPlayer@@QAEHABVCEntityEvent@@@Z 101011c0 f   Player.obj
 0001:00100220       ?H0x01910084_DoAutoActions_54@CPlayer@@QAEHABVCEntityEvent@@@Z 10101220 f   Player.obj
 0001:00100280       ?H0x01910086_DoAutoActions_56@CPlayer@@QAEHABVCEntityEvent@@@Z 10101280 f   Player.obj
 0001:001002e0       ?H0x01910088_DoAutoActions_58@CPlayer@@QAEHABVCEntityEvent@@@Z 101012e0 f   Player.obj
 0001:00100340       ?H0x0191008a_DoAutoActions_60@CPlayer@@QAEHABVCEntityEvent@@@Z 10101340 f   Player.obj
 0001:001003a0       ?H0x0191008c_DoAutoActions_62@CPlayer@@QAEHABVCEntityEvent@@@Z 101013a0 f   Player.obj
 0001:00100400       ?H0x0191008e_DoAutoActions_64@CPlayer@@QAEHABVCEntityEvent@@@Z 10101400 f   Player.obj
 0001:00100460       ?H0x01910090_DoAutoActions_66@CPlayer@@QAEHABVCEntityEvent@@@Z 10101460 f   Player.obj
 0001:001004c0       ?H0x01910092_DoAutoActions_68@CPlayer@@QAEHABVCEntityEvent@@@Z 101014c0 f   Player.obj
 0001:00100520       ?H0x01910094_DoAutoActions_70@CPlayer@@QAEHABVCEntityEvent@@@Z 10101520 f   Player.obj
 0001:00100580       ?H0x01910096_DoAutoActions_72@CPlayer@@QAEHABVCEntityEvent@@@Z 10101580 f   Player.obj
 0001:001005e0       ?H0x01910098_DoAutoActions_74@CPlayer@@QAEHABVCEntityEvent@@@Z 101015e0 f   Player.obj
 0001:00100640       ?H0x0191009a_DoAutoActions_76@CPlayer@@QAEHABVCEntityEvent@@@Z 10101640 f   Player.obj
 0001:001006a0       ?H0x0191009c_DoAutoActions_78@CPlayer@@QAEHABVCEntityEvent@@@Z 101016a0 f   Player.obj
 0001:00100700       ?H0x0191009e_DoAutoActions_80@CPlayer@@QAEHABVCEntityEvent@@@Z 10101700 f   Player.obj
 0001:00100760       ?H0x019100a0_DoAutoActions_82@CPlayer@@QAEHABVCEntityEvent@@@Z 10101760 f   Player.obj
 0001:00100840       ?H0x019100a3_DoAutoActions_85@CPlayer@@QAEHABVCEntityEvent@@@Z 10101840 f   Player.obj
 0001:001008d0       ?Main@CPlayer@@QAEHABVCEntityEvent@@@Z 101018d0 f   Player.obj
 0001:00100a10       ?H0x019100a4_Main_01@CPlayer@@QAEHABVCEntityEvent@@@Z 10101a10 f   Player.obj
 0001:00100ad0       ?H0x019100a5_Main_02@CPlayer@@QAEHABVCEntityEvent@@@Z 10101ad0 f   Player.obj
 0001:00100e30       ?H0x019100a6_Main_03@CPlayer@@QAEHABVCEntityEvent@@@Z 10101e30 f   Player.obj
 0001:00101460       ?H0x019100a7_Main_04@CPlayer@@QAEHABVCEntityEvent@@@Z 10102460 f   Player.obj
 0001:001015b0       ??1?$CDynamicStackArray@VCTFileName@@@@QAE@XZ 101025b0 f i Player.obj
 0001:00101670       ??4?$CStaticStackArray@J@@QAEAAV0@ABV0@@Z 10102670 f i Player.obj
 0001:001016e0       ??4?$CStaticStackArray@PAVCBrushPolygon@@@@QAEAAV0@ABV0@@Z 101026e0 f i Player.obj
 0001:00101750       ??1?$CStaticArray@UMarkerDistance@@@@QAE@XZ 10102750 f i Player.obj
 0001:00101780       ??_GCDABlockInfo@@QAEPAXI@Z 10102780 f i Player.obj
 0001:001017b0       ?New@?$CDynamicArray@VCCompMessageID@@@@QAEPAVCCompMessageID@@J@Z 101027b0 f i Player.obj
 0001:00101a30       ?CPlayerActionMarker_New@@YAPAVCEntity@@XZ 10102a30 f   PlayerActionMarker.obj
 0001:00101ae0       ?CPlayerActionMarker_OnInitClass@@YAXXZ 10102ae0 f   PlayerActionMarker.obj
 0001:00101af0       ?CPlayerActionMarker_OnEndClass@@YAXXZ 10102af0 f   PlayerActionMarker.obj
 0001:00101b00       ?CPlayerActionMarker_OnPrecache@@YAXPAVCDLLEntityClass@@J@Z 10102b00 f   PlayerActionMarker.obj
 0001:00101b10       ?CPlayerActionMarker_OnWorldEnd@@YAXPAVCWorld@@@Z 10102b10 f   PlayerActionMarker.obj
 0001:00101b20       ?CPlayerActionMarker_OnWorldInit@@YAXPAVCWorld@@@Z 10102b20 f   PlayerActionMarker.obj
 0001:00101b30       ?CPlayerActionMarker_OnWorldTick@@YAXPAVCWorld@@@Z 10102b30 f   PlayerActionMarker.obj
 0001:00101b40       ?CPlayerActionMarker_OnWorldRender@@YAXPAVCWorld@@@Z 10102b40 f   PlayerActionMarker.obj
 0001:00101ba0       ?SetDefaultProperties@CPlayerActionMarker@@UAEXXZ 10102ba0 f   PlayerActionMarker.obj
 0001:00101c30       ?GetDescription@CPlayerActionMarker@@UBEABVCTString@@XZ 10102c30 f   PlayerActionMarker.obj
 0001:00101cf0       ?DropsMarker@CPlayerActionMarker@@UBEHAAVCTFileName@@AAVCTString@@@Z 10102cf0 f   PlayerActionMarker.obj
 0001:00101d90       ?HandleEvent@CPlayerActionMarker@@UAEHABVCEntityEvent@@@Z 10102d90 f   PlayerActionMarker.obj
 0001:00101e70       ?Main@CPlayerActionMarker@@QAEHABVCEntityEvent@@@Z 10102e70 f   PlayerActionMarker.obj
 0001:00101ef0       ??_ECPlayerActionMarker@@UAEPAXI@Z 10102ef0 f i PlayerActionMarker.obj
 0001:00101ef0       ??_GCPlayerActionMarker@@UAEPAXI@Z 10102ef0 f i PlayerActionMarker.obj
 0001:00101f20       ??1CPlayerActionMarker@@UAE@XZ 10102f20 f i PlayerActionMarker.obj
 0001:00102ef0       ?CPlayerAnimator_New@@YAPAVCEntity@@XZ 10103ef0 f   PlayerAnimator.obj
 0001:00102f70       ?CPlayerAnimator_OnInitClass@@YAXXZ 10103f70 f   PlayerAnimator.obj
 0001:00102f80       ?CPlayerAnimator_OnEndClass@@YAXXZ 10103f80 f   PlayerAnimator.obj
 0001:00102f90       ?CPlayerAnimator_OnPrecache@@YAXPAVCDLLEntityClass@@J@Z 10103f90 f   PlayerAnimator.obj
 0001:00102fa0       ?CPlayerAnimator_OnWorldEnd@@YAXPAVCWorld@@@Z 10103fa0 f   PlayerAnimator.obj
 0001:00102fb0       ?CPlayerAnimator_OnWorldInit@@YAXPAVCWorld@@@Z 10103fb0 f   PlayerAnimator.obj
 0001:00102fc0       ?CPlayerAnimator_OnWorldTick@@YAXPAVCWorld@@@Z 10103fc0 f   PlayerAnimator.obj
 0001:00102fd0       ?CPlayerAnimator_OnWorldRender@@YAXPAVCWorld@@@Z 10103fd0 f   PlayerAnimator.obj
 0001:001030a0       ?MakeCopy@EAnimatorInit@@UAEPAVCEntityEvent@@XZ 101040a0 f   PlayerAnimator.obj
 0001:001030e0       ??0EAnimatorInit@@QAE@XZ   101040e0 f   PlayerAnimator.obj
 0001:00103150       ?CPlayerAnimator_Precache@@YAXK@Z 10104150 f   PlayerAnimator.obj
 0001:001035e0       ?SetDefaultProperties@CPlayerAnimator@@UAEXXZ 101045e0 f   PlayerAnimator.obj
 0001:00103740       ?Read_t@CPlayerAnimator@@UAEXPAVCTStream@@@Z 10104740 f   PlayerAnimator.obj
 0001:00103760       ?Precache@CPlayerAnimator@@UAEXXZ 10104760 f   PlayerAnimator.obj
 0001:00103780       ?GetPlayer@CPlayerAnimator@@QAEPAVCPlayer@@XZ 10104780 f   PlayerAnimator.obj
 0001:00103790       ?GetBody@CPlayerAnimator@@QAEPAVCModelObject@@XZ 10104790 f   PlayerAnimator.obj
 0001:001037b0       ?GetBodyRen@CPlayerAnimator@@QAEPAVCModelObject@@XZ 101047b0 f   PlayerAnimator.obj
 0001:001037d0       ?SetComponents@CPlayerAnimator@@QAEXPAVCModelObject@@KKKKK@Z 101047d0 f   PlayerAnimator.obj
 0001:00103880       ?AddAttachmentModel@CPlayerAnimator@@QAEXPAVCModelObject@@JKKKKK@Z 10104880 f   PlayerAnimator.obj
 0001:001038c0       ?AddWeaponAttachment@CPlayerAnimator@@QAEXJKKKKK@Z 101048c0 f   PlayerAnimator.obj
 0001:001038f0       ?SetAttachment@CPlayerAnimator@@QAEXJ@Z 101048f0 f   PlayerAnimator.obj
 0001:00103920       ?SyncWeapon@CPlayerAnimator@@QAEXXZ 10104920 f   PlayerAnimator.obj
 0001:001039e0       ?SetWeapon@CPlayerAnimator@@QAEXXZ 101049e0 f   PlayerAnimator.obj
 0001:001041a0       ?SetItem@CPlayerAnimator@@QAEXPAVCModelObject@@@Z 101051a0 f   PlayerAnimator.obj
 0001:001042b0       ?SetBodyAnimation@CPlayerAnimator@@QAEXJK@Z 101052b0 f   PlayerAnimator.obj
 0001:00104310       ?Initialize@CPlayerAnimator@@QAEXXZ 10105310 f   PlayerAnimator.obj
 0001:001043b0       ?StoreLast@CPlayerAnimator@@QAEXXZ 101053b0 f   PlayerAnimator.obj
 0001:00104410       ?AnimateBanking@CPlayerAnimator@@QAEXXZ 10105410 f   PlayerAnimator.obj
 0001:001045f0       ?AnimateSoftEyes@CPlayerAnimator@@QAEXXZ 101055f0 f   PlayerAnimator.obj
 0001:00104940       ?ChangeView@CPlayerAnimator@@QAEXAAVCPlacement3D@@@Z 10105940 f   PlayerAnimator.obj
 0001:00104b70       ?BodyAndHeadOrientation@CPlayerAnimator@@QAEXAAVCPlacement3D@@@Z 10105b70 f   PlayerAnimator.obj
 0001:00104ca0       ?AnimatePlayer@CPlayerAnimator@@QAEXXZ 10105ca0 f   PlayerAnimator.obj
 0001:00105330       ?Crouch@CPlayerAnimator@@QAEXXZ 10106330 f   PlayerAnimator.obj
 0001:001053b0       ?Rise@CPlayerAnimator@@QAEXXZ 101063b0 f   PlayerAnimator.obj
 0001:00105430       ?Fall@CPlayerAnimator@@QAEXXZ 10106430 f   PlayerAnimator.obj
 0001:00105470       ?Swim@CPlayerAnimator@@QAEXXZ 10106470 f   PlayerAnimator.obj
 0001:001054b0       ?Stand@CPlayerAnimator@@QAEXXZ 101064b0 f   PlayerAnimator.obj
 0001:001054f0       ?FireAnimation@CPlayerAnimator@@QAEXJK@Z 101064f0 f   PlayerAnimator.obj
 0001:001055e0       ?FireAnimationOff@CPlayerAnimator@@QAEXXZ 101065e0 f   PlayerAnimator.obj
 0001:001055f0       ?BodyAnimationTemplate@CPlayerAnimator@@QAEXJJJJK@Z 101065f0 f   PlayerAnimator.obj
 0001:001056b0       ?BodyWalkAnimation@CPlayerAnimator@@QAEXXZ 101066b0 f   PlayerAnimator.obj
 0001:001056c0       ?BodyStillAnimation@CPlayerAnimator@@QAEXXZ 101066c0 f   PlayerAnimator.obj
 0001:001056d0       ?BodyPushAnimation@CPlayerAnimator@@QAEXXZ 101066d0 f   PlayerAnimator.obj
 0001:00105700       ?RemoveWeapon@CPlayerAnimator@@QAEXXZ 10106700 f   PlayerAnimator.obj
 0001:00105830       ?BodyPullAnimation@CPlayerAnimator@@QAEXXZ 10106830 f   PlayerAnimator.obj
 0001:001058c0       ?BodyPullItemAnimation@CPlayerAnimator@@QAEXXZ 101068c0 f   PlayerAnimator.obj
 0001:00105930       ?BodyPickItemAnimation@CPlayerAnimator@@QAEXXZ 10106930 f   PlayerAnimator.obj
 0001:001059a0       ?BodyRemoveItem@CPlayerAnimator@@QAEXXZ 101069a0 f   PlayerAnimator.obj
 0001:001059d0       ?OnPreRender@CPlayerAnimator@@QAEXXZ 101069d0 f   PlayerAnimator.obj
 0001:00105a70       ?ShowFlare@CPlayerAnimator@@QAEXJJJ@Z 10106a70 f   PlayerAnimator.obj
 0001:00105af0       ?HideFlare@CPlayerAnimator@@QAEXJJJ@Z 10106af0 f   PlayerAnimator.obj
 0001:00105b50       ?ControlFlareAttachment@CPlayerAnimator@@QAEXXZ 10106b50 f   PlayerAnimator.obj
 0001:00105d20       ?ReminderAction@CPlayerAnimator@@QAEHABVCEntityEvent@@@Z 10106d20 f   PlayerAnimator.obj
 0001:00105de0       ?Main@CPlayerAnimator@@QAEHABVCEntityEvent@@@Z 10106de0 f   PlayerAnimator.obj
 0001:00105ec0       ?H0x01960002_Main_01@CPlayerAnimator@@QAEHABVCEntityEvent@@@Z 10106ec0 f   PlayerAnimator.obj
 0001:00105f70       ?H0x01960003_Main_02@CPlayerAnimator@@QAEHABVCEntityEvent@@@Z 10106f70 f   PlayerAnimator.obj
 0001:001062f0       ?CPlayerMarker_New@@YAPAVCEntity@@XZ 101072f0 f   PlayerMarker.obj
 0001:001063b0       ?CPlayerMarker_OnInitClass@@YAXXZ 101073b0 f   PlayerMarker.obj
 0001:001063c0       ?CPlayerMarker_OnEndClass@@YAXXZ 101073c0 f   PlayerMarker.obj
